
dal.elf:     file format elf32-littlearm

Sections:
Idx Name          Size      VMA       LMA       File off  Algn
  0 .isr_vector   0000010c  08000000  08000000  00001000  2**0
                  CONTENTS, ALLOC, LOAD, READONLY, DATA
  1 .text         00008b74  08000110  08000110  00001110  2**4
                  CONTENTS, ALLOC, LOAD, READONLY, CODE
  2 .rodata       00000834  08008c88  08008c88  00009c88  2**3
                  CONTENTS, ALLOC, LOAD, READONLY, DATA
  3 .ARM.extab    00000000  080094bc  080094bc  0000b1e0  2**0
                  CONTENTS, READONLY
  4 .ARM          00000008  080094bc  080094bc  0000a4bc  2**2
                  CONTENTS, ALLOC, LOAD, READONLY, DATA
  5 .preinit_array 00000000  080094c4  080094c4  0000b1e0  2**0
                  CONTENTS, ALLOC, LOAD, DATA
  6 .init_array   00000004  080094c4  080094c4  0000a4c4  2**2
                  CONTENTS, ALLOC, LOAD, READONLY, DATA
  7 .fini_array   00000004  080094c8  080094c8  0000a4c8  2**2
                  CONTENTS, ALLOC, LOAD, READONLY, DATA
  8 .data         000001e0  20000000  080094cc  0000b000  2**2
                  CONTENTS, ALLOC, LOAD, DATA
  9 .bss          00003d80  200001e0  080096ac  0000b1e0  2**2
                  ALLOC
 10 ._user_heap_stack 00000600  20003f60  080096ac  0000bf60  2**0
                  ALLOC
 11 .ARM.attributes 00000029  00000000  00000000  0000b1e0  2**0
                  CONTENTS, READONLY
 12 .comment      00000043  00000000  00000000  0000b209  2**0
                  CONTENTS, READONLY
 13 .debug_frame  000011d8  00000000  00000000  0000b24c  2**2
                  CONTENTS, READONLY, DEBUGGING, OCTETS

Disassembly of section .text:

08000110 <__do_global_dtors_aux>:
 8000110:	b510      	push	{r4, lr}
 8000112:	4c05      	ldr	r4, [pc, #20]	@ (8000128 <__do_global_dtors_aux+0x18>)
 8000114:	7823      	ldrb	r3, [r4, #0]
 8000116:	b933      	cbnz	r3, 8000126 <__do_global_dtors_aux+0x16>
 8000118:	4b04      	ldr	r3, [pc, #16]	@ (800012c <__do_global_dtors_aux+0x1c>)
 800011a:	b113      	cbz	r3, 8000122 <__do_global_dtors_aux+0x12>
 800011c:	4804      	ldr	r0, [pc, #16]	@ (8000130 <__do_global_dtors_aux+0x20>)
 800011e:	f3af 8000 	nop.w
 8000122:	2301      	movs	r3, #1
 8000124:	7023      	strb	r3, [r4, #0]
 8000126:	bd10      	pop	{r4, pc}
 8000128:	200001e0 	.word	0x200001e0
 800012c:	00000000 	.word	0x00000000
 8000130:	08008c6c 	.word	0x08008c6c

08000134 <frame_dummy>:
 8000134:	b508      	push	{r3, lr}
 8000136:	4b03      	ldr	r3, [pc, #12]	@ (8000144 <frame_dummy+0x10>)
 8000138:	b11b      	cbz	r3, 8000142 <frame_dummy+0xe>
 800013a:	4903      	ldr	r1, [pc, #12]	@ (8000148 <frame_dummy+0x14>)
 800013c:	4803      	ldr	r0, [pc, #12]	@ (800014c <frame_dummy+0x18>)
 800013e:	f3af 8000 	nop.w
 8000142:	bd08      	pop	{r3, pc}
 8000144:	00000000 	.word	0x00000000
 8000148:	200001e4 	.word	0x200001e4
 800014c:	08008c6c 	.word	0x08008c6c

08000150 <strlen>:
 8000150:	4603      	mov	r3, r0
 8000152:	f813 2b01 	ldrb.w	r2, [r3], #1
 8000156:	2a00      	cmp	r2, #0
 8000158:	d1fb      	bne.n	8000152 <strlen+0x2>
 800015a:	1a18      	subs	r0, r3, r0
 800015c:	3801      	subs	r0, #1
 800015e:	4770      	bx	lr

08000160 <__aeabi_drsub>:
 8000160:	f081 4100 	eor.w	r1, r1, #2147483648	@ 0x80000000
 8000164:	e002      	b.n	800016c <__adddf3>
 8000166:	bf00      	nop

08000168 <__aeabi_dsub>:
 8000168:	f083 4300 	eor.w	r3, r3, #2147483648	@ 0x80000000

0800016c <__adddf3>:
 800016c:	b530      	push	{r4, r5, lr}
 800016e:	ea4f 0441 	mov.w	r4, r1, lsl #1
 8000172:	ea4f 0543 	mov.w	r5, r3, lsl #1
 8000176:	ea94 0f05 	teq	r4, r5
 800017a:	bf08      	it	eq
 800017c:	ea90 0f02 	teqeq	r0, r2
 8000180:	bf1f      	itttt	ne
 8000182:	ea54 0c00 	orrsne.w	ip, r4, r0
 8000186:	ea55 0c02 	orrsne.w	ip, r5, r2
 800018a:	ea7f 5c64 	mvnsne.w	ip, r4, asr #21
 800018e:	ea7f 5c65 	mvnsne.w	ip, r5, asr #21
 8000192:	f000 80e2 	beq.w	800035a <__adddf3+0x1ee>
 8000196:	ea4f 5454 	mov.w	r4, r4, lsr #21
 800019a:	ebd4 5555 	rsbs	r5, r4, r5, lsr #21
 800019e:	bfb8      	it	lt
 80001a0:	426d      	neglt	r5, r5
 80001a2:	dd0c      	ble.n	80001be <__adddf3+0x52>
 80001a4:	442c      	add	r4, r5
 80001a6:	ea80 0202 	eor.w	r2, r0, r2
 80001aa:	ea81 0303 	eor.w	r3, r1, r3
 80001ae:	ea82 0000 	eor.w	r0, r2, r0
 80001b2:	ea83 0101 	eor.w	r1, r3, r1
 80001b6:	ea80 0202 	eor.w	r2, r0, r2
 80001ba:	ea81 0303 	eor.w	r3, r1, r3
 80001be:	2d36      	cmp	r5, #54	@ 0x36
 80001c0:	bf88      	it	hi
 80001c2:	bd30      	pophi	{r4, r5, pc}
 80001c4:	f011 4f00 	tst.w	r1, #2147483648	@ 0x80000000
 80001c8:	ea4f 3101 	mov.w	r1, r1, lsl #12
 80001cc:	f44f 1c80 	mov.w	ip, #1048576	@ 0x100000
 80001d0:	ea4c 3111 	orr.w	r1, ip, r1, lsr #12
 80001d4:	d002      	beq.n	80001dc <__adddf3+0x70>
 80001d6:	4240      	negs	r0, r0
 80001d8:	eb61 0141 	sbc.w	r1, r1, r1, lsl #1
 80001dc:	f013 4f00 	tst.w	r3, #2147483648	@ 0x80000000
 80001e0:	ea4f 3303 	mov.w	r3, r3, lsl #12
 80001e4:	ea4c 3313 	orr.w	r3, ip, r3, lsr #12
 80001e8:	d002      	beq.n	80001f0 <__adddf3+0x84>
 80001ea:	4252      	negs	r2, r2
 80001ec:	eb63 0343 	sbc.w	r3, r3, r3, lsl #1
 80001f0:	ea94 0f05 	teq	r4, r5
 80001f4:	f000 80a7 	beq.w	8000346 <__adddf3+0x1da>
 80001f8:	f1a4 0401 	sub.w	r4, r4, #1
 80001fc:	f1d5 0e20 	rsbs	lr, r5, #32
 8000200:	db0d      	blt.n	800021e <__adddf3+0xb2>
 8000202:	fa02 fc0e 	lsl.w	ip, r2, lr
 8000206:	fa22 f205 	lsr.w	r2, r2, r5
 800020a:	1880      	adds	r0, r0, r2
 800020c:	f141 0100 	adc.w	r1, r1, #0
 8000210:	fa03 f20e 	lsl.w	r2, r3, lr
 8000214:	1880      	adds	r0, r0, r2
 8000216:	fa43 f305 	asr.w	r3, r3, r5
 800021a:	4159      	adcs	r1, r3
 800021c:	e00e      	b.n	800023c <__adddf3+0xd0>
 800021e:	f1a5 0520 	sub.w	r5, r5, #32
 8000222:	f10e 0e20 	add.w	lr, lr, #32
 8000226:	2a01      	cmp	r2, #1
 8000228:	fa03 fc0e 	lsl.w	ip, r3, lr
 800022c:	bf28      	it	cs
 800022e:	f04c 0c02 	orrcs.w	ip, ip, #2
 8000232:	fa43 f305 	asr.w	r3, r3, r5
 8000236:	18c0      	adds	r0, r0, r3
 8000238:	eb51 71e3 	adcs.w	r1, r1, r3, asr #31
 800023c:	f001 4500 	and.w	r5, r1, #2147483648	@ 0x80000000
 8000240:	d507      	bpl.n	8000252 <__adddf3+0xe6>
 8000242:	f04f 0e00 	mov.w	lr, #0
 8000246:	f1dc 0c00 	rsbs	ip, ip, #0
 800024a:	eb7e 0000 	sbcs.w	r0, lr, r0
 800024e:	eb6e 0101 	sbc.w	r1, lr, r1
 8000252:	f5b1 1f80 	cmp.w	r1, #1048576	@ 0x100000
 8000256:	d31b      	bcc.n	8000290 <__adddf3+0x124>
 8000258:	f5b1 1f00 	cmp.w	r1, #2097152	@ 0x200000
 800025c:	d30c      	bcc.n	8000278 <__adddf3+0x10c>
 800025e:	0849      	lsrs	r1, r1, #1
 8000260:	ea5f 0030 	movs.w	r0, r0, rrx
 8000264:	ea4f 0c3c 	mov.w	ip, ip, rrx
 8000268:	f104 0401 	add.w	r4, r4, #1
 800026c:	ea4f 5244 	mov.w	r2, r4, lsl #21
 8000270:	f512 0f80 	cmn.w	r2, #4194304	@ 0x400000
 8000274:	f080 809a 	bcs.w	80003ac <__adddf3+0x240>
 8000278:	f1bc 4f00 	cmp.w	ip, #2147483648	@ 0x80000000
 800027c:	bf08      	it	eq
 800027e:	ea5f 0c50 	movseq.w	ip, r0, lsr #1
 8000282:	f150 0000 	adcs.w	r0, r0, #0
 8000286:	eb41 5104 	adc.w	r1, r1, r4, lsl #20
 800028a:	ea41 0105 	orr.w	r1, r1, r5
 800028e:	bd30      	pop	{r4, r5, pc}
 8000290:	ea5f 0c4c 	movs.w	ip, ip, lsl #1
 8000294:	4140      	adcs	r0, r0
 8000296:	eb41 0101 	adc.w	r1, r1, r1
 800029a:	3c01      	subs	r4, #1
 800029c:	bf28      	it	cs
 800029e:	f5b1 1f80 	cmpcs.w	r1, #1048576	@ 0x100000
 80002a2:	d2e9      	bcs.n	8000278 <__adddf3+0x10c>
 80002a4:	f091 0f00 	teq	r1, #0
 80002a8:	bf04      	itt	eq
 80002aa:	4601      	moveq	r1, r0
 80002ac:	2000      	moveq	r0, #0
 80002ae:	fab1 f381 	clz	r3, r1
 80002b2:	bf08      	it	eq
 80002b4:	3320      	addeq	r3, #32
 80002b6:	f1a3 030b 	sub.w	r3, r3, #11
 80002ba:	f1b3 0220 	subs.w	r2, r3, #32
 80002be:	da0c      	bge.n	80002da <__adddf3+0x16e>
 80002c0:	320c      	adds	r2, #12
 80002c2:	dd08      	ble.n	80002d6 <__adddf3+0x16a>
 80002c4:	f102 0c14 	add.w	ip, r2, #20
 80002c8:	f1c2 020c 	rsb	r2, r2, #12
 80002cc:	fa01 f00c 	lsl.w	r0, r1, ip
 80002d0:	fa21 f102 	lsr.w	r1, r1, r2
 80002d4:	e00c      	b.n	80002f0 <__adddf3+0x184>
 80002d6:	f102 0214 	add.w	r2, r2, #20
 80002da:	bfd8      	it	le
 80002dc:	f1c2 0c20 	rsble	ip, r2, #32
 80002e0:	fa01 f102 	lsl.w	r1, r1, r2
 80002e4:	fa20 fc0c 	lsr.w	ip, r0, ip
 80002e8:	bfdc      	itt	le
 80002ea:	ea41 010c 	orrle.w	r1, r1, ip
 80002ee:	4090      	lslle	r0, r2
 80002f0:	1ae4      	subs	r4, r4, r3
 80002f2:	bfa2      	ittt	ge
 80002f4:	eb01 5104 	addge.w	r1, r1, r4, lsl #20
 80002f8:	4329      	orrge	r1, r5
 80002fa:	bd30      	popge	{r4, r5, pc}
 80002fc:	ea6f 0404 	mvn.w	r4, r4
 8000300:	3c1f      	subs	r4, #31
 8000302:	da1c      	bge.n	800033e <__adddf3+0x1d2>
 8000304:	340c      	adds	r4, #12
 8000306:	dc0e      	bgt.n	8000326 <__adddf3+0x1ba>
 8000308:	f104 0414 	add.w	r4, r4, #20
 800030c:	f1c4 0220 	rsb	r2, r4, #32
 8000310:	fa20 f004 	lsr.w	r0, r0, r4
 8000314:	fa01 f302 	lsl.w	r3, r1, r2
 8000318:	ea40 0003 	orr.w	r0, r0, r3
 800031c:	fa21 f304 	lsr.w	r3, r1, r4
 8000320:	ea45 0103 	orr.w	r1, r5, r3
 8000324:	bd30      	pop	{r4, r5, pc}
 8000326:	f1c4 040c 	rsb	r4, r4, #12
 800032a:	f1c4 0220 	rsb	r2, r4, #32
 800032e:	fa20 f002 	lsr.w	r0, r0, r2
 8000332:	fa01 f304 	lsl.w	r3, r1, r4
 8000336:	ea40 0003 	orr.w	r0, r0, r3
 800033a:	4629      	mov	r1, r5
 800033c:	bd30      	pop	{r4, r5, pc}
 800033e:	fa21 f004 	lsr.w	r0, r1, r4
 8000342:	4629      	mov	r1, r5
 8000344:	bd30      	pop	{r4, r5, pc}
 8000346:	f094 0f00 	teq	r4, #0
 800034a:	f483 1380 	eor.w	r3, r3, #1048576	@ 0x100000
 800034e:	bf06      	itte	eq
 8000350:	f481 1180 	eoreq.w	r1, r1, #1048576	@ 0x100000
 8000354:	3401      	addeq	r4, #1
 8000356:	3d01      	subne	r5, #1
 8000358:	e74e      	b.n	80001f8 <__adddf3+0x8c>
 800035a:	ea7f 5c64 	mvns.w	ip, r4, asr #21
 800035e:	bf18      	it	ne
 8000360:	ea7f 5c65 	mvnsne.w	ip, r5, asr #21
 8000364:	d029      	beq.n	80003ba <__adddf3+0x24e>
 8000366:	ea94 0f05 	teq	r4, r5
 800036a:	bf08      	it	eq
 800036c:	ea90 0f02 	teqeq	r0, r2
 8000370:	d005      	beq.n	800037e <__adddf3+0x212>
 8000372:	ea54 0c00 	orrs.w	ip, r4, r0
 8000376:	bf04      	itt	eq
 8000378:	4619      	moveq	r1, r3
 800037a:	4610      	moveq	r0, r2
 800037c:	bd30      	pop	{r4, r5, pc}
 800037e:	ea91 0f03 	teq	r1, r3
 8000382:	bf1e      	ittt	ne
 8000384:	2100      	movne	r1, #0
 8000386:	2000      	movne	r0, #0
 8000388:	bd30      	popne	{r4, r5, pc}
 800038a:	ea5f 5c54 	movs.w	ip, r4, lsr #21
 800038e:	d105      	bne.n	800039c <__adddf3+0x230>
 8000390:	0040      	lsls	r0, r0, #1
 8000392:	4149      	adcs	r1, r1
 8000394:	bf28      	it	cs
 8000396:	f041 4100 	orrcs.w	r1, r1, #2147483648	@ 0x80000000
 800039a:	bd30      	pop	{r4, r5, pc}
 800039c:	f514 0480 	adds.w	r4, r4, #4194304	@ 0x400000
 80003a0:	bf3c      	itt	cc
 80003a2:	f501 1180 	addcc.w	r1, r1, #1048576	@ 0x100000
 80003a6:	bd30      	popcc	{r4, r5, pc}
 80003a8:	f001 4500 	and.w	r5, r1, #2147483648	@ 0x80000000
 80003ac:	f045 41fe 	orr.w	r1, r5, #2130706432	@ 0x7f000000
 80003b0:	f441 0170 	orr.w	r1, r1, #15728640	@ 0xf00000
 80003b4:	f04f 0000 	mov.w	r0, #0
 80003b8:	bd30      	pop	{r4, r5, pc}
 80003ba:	ea7f 5c64 	mvns.w	ip, r4, asr #21
 80003be:	bf1a      	itte	ne
 80003c0:	4619      	movne	r1, r3
 80003c2:	4610      	movne	r0, r2
 80003c4:	ea7f 5c65 	mvnseq.w	ip, r5, asr #21
 80003c8:	bf1c      	itt	ne
 80003ca:	460b      	movne	r3, r1
 80003cc:	4602      	movne	r2, r0
 80003ce:	ea50 3401 	orrs.w	r4, r0, r1, lsl #12
 80003d2:	bf06      	itte	eq
 80003d4:	ea52 3503 	orrseq.w	r5, r2, r3, lsl #12
 80003d8:	ea91 0f03 	teqeq	r1, r3
 80003dc:	f441 2100 	orrne.w	r1, r1, #524288	@ 0x80000
 80003e0:	bd30      	pop	{r4, r5, pc}
 80003e2:	bf00      	nop

080003e4 <__aeabi_ui2d>:
 80003e4:	f090 0f00 	teq	r0, #0
 80003e8:	bf04      	itt	eq
 80003ea:	2100      	moveq	r1, #0
 80003ec:	4770      	bxeq	lr
 80003ee:	b530      	push	{r4, r5, lr}
 80003f0:	f44f 6480 	mov.w	r4, #1024	@ 0x400
 80003f4:	f104 0432 	add.w	r4, r4, #50	@ 0x32
 80003f8:	f04f 0500 	mov.w	r5, #0
 80003fc:	f04f 0100 	mov.w	r1, #0
 8000400:	e750      	b.n	80002a4 <__adddf3+0x138>
 8000402:	bf00      	nop

08000404 <__aeabi_i2d>:
 8000404:	f090 0f00 	teq	r0, #0
 8000408:	bf04      	itt	eq
 800040a:	2100      	moveq	r1, #0
 800040c:	4770      	bxeq	lr
 800040e:	b530      	push	{r4, r5, lr}
 8000410:	f44f 6480 	mov.w	r4, #1024	@ 0x400
 8000414:	f104 0432 	add.w	r4, r4, #50	@ 0x32
 8000418:	f010 4500 	ands.w	r5, r0, #2147483648	@ 0x80000000
 800041c:	bf48      	it	mi
 800041e:	4240      	negmi	r0, r0
 8000420:	f04f 0100 	mov.w	r1, #0
 8000424:	e73e      	b.n	80002a4 <__adddf3+0x138>
 8000426:	bf00      	nop

08000428 <__aeabi_f2d>:
 8000428:	0042      	lsls	r2, r0, #1
 800042a:	ea4f 01e2 	mov.w	r1, r2, asr #3
 800042e:	ea4f 0131 	mov.w	r1, r1, rrx
 8000432:	ea4f 7002 	mov.w	r0, r2, lsl #28
 8000436:	bf1f      	itttt	ne
 8000438:	f012 437f 	andsne.w	r3, r2, #4278190080	@ 0xff000000
 800043c:	f093 4f7f 	teqne	r3, #4278190080	@ 0xff000000
 8000440:	f081 5160 	eorne.w	r1, r1, #939524096	@ 0x38000000
 8000444:	4770      	bxne	lr
 8000446:	f032 427f 	bics.w	r2, r2, #4278190080	@ 0xff000000
 800044a:	bf08      	it	eq
 800044c:	4770      	bxeq	lr
 800044e:	f093 4f7f 	teq	r3, #4278190080	@ 0xff000000
 8000452:	bf04      	itt	eq
 8000454:	f441 2100 	orreq.w	r1, r1, #524288	@ 0x80000
 8000458:	4770      	bxeq	lr
 800045a:	b530      	push	{r4, r5, lr}
 800045c:	f44f 7460 	mov.w	r4, #896	@ 0x380
 8000460:	f001 4500 	and.w	r5, r1, #2147483648	@ 0x80000000
 8000464:	f021 4100 	bic.w	r1, r1, #2147483648	@ 0x80000000
 8000468:	e71c      	b.n	80002a4 <__adddf3+0x138>
 800046a:	bf00      	nop

0800046c <__aeabi_ul2d>:
 800046c:	ea50 0201 	orrs.w	r2, r0, r1
 8000470:	bf08      	it	eq
 8000472:	4770      	bxeq	lr
 8000474:	b530      	push	{r4, r5, lr}
 8000476:	f04f 0500 	mov.w	r5, #0
 800047a:	e00a      	b.n	8000492 <__aeabi_l2d+0x16>

0800047c <__aeabi_l2d>:
 800047c:	ea50 0201 	orrs.w	r2, r0, r1
 8000480:	bf08      	it	eq
 8000482:	4770      	bxeq	lr
 8000484:	b530      	push	{r4, r5, lr}
 8000486:	f011 4500 	ands.w	r5, r1, #2147483648	@ 0x80000000
 800048a:	d502      	bpl.n	8000492 <__aeabi_l2d+0x16>
 800048c:	4240      	negs	r0, r0
 800048e:	eb61 0141 	sbc.w	r1, r1, r1, lsl #1
 8000492:	f44f 6480 	mov.w	r4, #1024	@ 0x400
 8000496:	f104 0432 	add.w	r4, r4, #50	@ 0x32
 800049a:	ea5f 5c91 	movs.w	ip, r1, lsr #22
 800049e:	f43f aed8 	beq.w	8000252 <__adddf3+0xe6>
 80004a2:	f04f 0203 	mov.w	r2, #3
 80004a6:	ea5f 0cdc 	movs.w	ip, ip, lsr #3
 80004aa:	bf18      	it	ne
 80004ac:	3203      	addne	r2, #3
 80004ae:	ea5f 0cdc 	movs.w	ip, ip, lsr #3
 80004b2:	bf18      	it	ne
 80004b4:	3203      	addne	r2, #3
 80004b6:	eb02 02dc 	add.w	r2, r2, ip, lsr #3
 80004ba:	f1c2 0320 	rsb	r3, r2, #32
 80004be:	fa00 fc03 	lsl.w	ip, r0, r3
 80004c2:	fa20 f002 	lsr.w	r0, r0, r2
 80004c6:	fa01 fe03 	lsl.w	lr, r1, r3
 80004ca:	ea40 000e 	orr.w	r0, r0, lr
 80004ce:	fa21 f102 	lsr.w	r1, r1, r2
 80004d2:	4414      	add	r4, r2
 80004d4:	e6bd      	b.n	8000252 <__adddf3+0xe6>
 80004d6:	bf00      	nop

080004d8 <__aeabi_dmul>:
 80004d8:	b570      	push	{r4, r5, r6, lr}
 80004da:	f04f 0cff 	mov.w	ip, #255	@ 0xff
 80004de:	f44c 6ce0 	orr.w	ip, ip, #1792	@ 0x700
 80004e2:	ea1c 5411 	ands.w	r4, ip, r1, lsr #20
 80004e6:	bf1d      	ittte	ne
 80004e8:	ea1c 5513 	andsne.w	r5, ip, r3, lsr #20
 80004ec:	ea94 0f0c 	teqne	r4, ip
 80004f0:	ea95 0f0c 	teqne	r5, ip
 80004f4:	f000 f8de 	bleq	80006b4 <__aeabi_dmul+0x1dc>
 80004f8:	442c      	add	r4, r5
 80004fa:	ea81 0603 	eor.w	r6, r1, r3
 80004fe:	ea21 514c 	bic.w	r1, r1, ip, lsl #21
 8000502:	ea23 534c 	bic.w	r3, r3, ip, lsl #21
 8000506:	ea50 3501 	orrs.w	r5, r0, r1, lsl #12
 800050a:	bf18      	it	ne
 800050c:	ea52 3503 	orrsne.w	r5, r2, r3, lsl #12
 8000510:	f441 1180 	orr.w	r1, r1, #1048576	@ 0x100000
 8000514:	f443 1380 	orr.w	r3, r3, #1048576	@ 0x100000
 8000518:	d038      	beq.n	800058c <__aeabi_dmul+0xb4>
 800051a:	fba0 ce02 	umull	ip, lr, r0, r2
 800051e:	f04f 0500 	mov.w	r5, #0
 8000522:	fbe1 e502 	umlal	lr, r5, r1, r2
 8000526:	f006 4200 	and.w	r2, r6, #2147483648	@ 0x80000000
 800052a:	fbe0 e503 	umlal	lr, r5, r0, r3
 800052e:	f04f 0600 	mov.w	r6, #0
 8000532:	fbe1 5603 	umlal	r5, r6, r1, r3
 8000536:	f09c 0f00 	teq	ip, #0
 800053a:	bf18      	it	ne
 800053c:	f04e 0e01 	orrne.w	lr, lr, #1
 8000540:	f1a4 04ff 	sub.w	r4, r4, #255	@ 0xff
 8000544:	f5b6 7f00 	cmp.w	r6, #512	@ 0x200
 8000548:	f564 7440 	sbc.w	r4, r4, #768	@ 0x300
 800054c:	d204      	bcs.n	8000558 <__aeabi_dmul+0x80>
 800054e:	ea5f 0e4e 	movs.w	lr, lr, lsl #1
 8000552:	416d      	adcs	r5, r5
 8000554:	eb46 0606 	adc.w	r6, r6, r6
 8000558:	ea42 21c6 	orr.w	r1, r2, r6, lsl #11
 800055c:	ea41 5155 	orr.w	r1, r1, r5, lsr #21
 8000560:	ea4f 20c5 	mov.w	r0, r5, lsl #11
 8000564:	ea40 505e 	orr.w	r0, r0, lr, lsr #21
 8000568:	ea4f 2ece 	mov.w	lr, lr, lsl #11
 800056c:	f1b4 0cfd 	subs.w	ip, r4, #253	@ 0xfd
 8000570:	bf88      	it	hi
 8000572:	f5bc 6fe0 	cmphi.w	ip, #1792	@ 0x700
 8000576:	d81e      	bhi.n	80005b6 <__aeabi_dmul+0xde>
 8000578:	f1be 4f00 	cmp.w	lr, #2147483648	@ 0x80000000
 800057c:	bf08      	it	eq
 800057e:	ea5f 0e50 	movseq.w	lr, r0, lsr #1
 8000582:	f150 0000 	adcs.w	r0, r0, #0
 8000586:	eb41 5104 	adc.w	r1, r1, r4, lsl #20
 800058a:	bd70      	pop	{r4, r5, r6, pc}
 800058c:	f006 4600 	and.w	r6, r6, #2147483648	@ 0x80000000
 8000590:	ea46 0101 	orr.w	r1, r6, r1
 8000594:	ea40 0002 	orr.w	r0, r0, r2
 8000598:	ea81 0103 	eor.w	r1, r1, r3
 800059c:	ebb4 045c 	subs.w	r4, r4, ip, lsr #1
 80005a0:	bfc2      	ittt	gt
 80005a2:	ebd4 050c 	rsbsgt	r5, r4, ip
 80005a6:	ea41 5104 	orrgt.w	r1, r1, r4, lsl #20
 80005aa:	bd70      	popgt	{r4, r5, r6, pc}
 80005ac:	f441 1180 	orr.w	r1, r1, #1048576	@ 0x100000
 80005b0:	f04f 0e00 	mov.w	lr, #0
 80005b4:	3c01      	subs	r4, #1
 80005b6:	f300 80ab 	bgt.w	8000710 <__aeabi_dmul+0x238>
 80005ba:	f114 0f36 	cmn.w	r4, #54	@ 0x36
 80005be:	bfde      	ittt	le
 80005c0:	2000      	movle	r0, #0
 80005c2:	f001 4100 	andle.w	r1, r1, #2147483648	@ 0x80000000
 80005c6:	bd70      	pople	{r4, r5, r6, pc}
 80005c8:	f1c4 0400 	rsb	r4, r4, #0
 80005cc:	3c20      	subs	r4, #32
 80005ce:	da35      	bge.n	800063c <__aeabi_dmul+0x164>
 80005d0:	340c      	adds	r4, #12
 80005d2:	dc1b      	bgt.n	800060c <__aeabi_dmul+0x134>
 80005d4:	f104 0414 	add.w	r4, r4, #20
 80005d8:	f1c4 0520 	rsb	r5, r4, #32
 80005dc:	fa00 f305 	lsl.w	r3, r0, r5
 80005e0:	fa20 f004 	lsr.w	r0, r0, r4
 80005e4:	fa01 f205 	lsl.w	r2, r1, r5
 80005e8:	ea40 0002 	orr.w	r0, r0, r2
 80005ec:	f001 4200 	and.w	r2, r1, #2147483648	@ 0x80000000
 80005f0:	f021 4100 	bic.w	r1, r1, #2147483648	@ 0x80000000
 80005f4:	eb10 70d3 	adds.w	r0, r0, r3, lsr #31
 80005f8:	fa21 f604 	lsr.w	r6, r1, r4
 80005fc:	eb42 0106 	adc.w	r1, r2, r6
 8000600:	ea5e 0e43 	orrs.w	lr, lr, r3, lsl #1
 8000604:	bf08      	it	eq
 8000606:	ea20 70d3 	biceq.w	r0, r0, r3, lsr #31
 800060a:	bd70      	pop	{r4, r5, r6, pc}
 800060c:	f1c4 040c 	rsb	r4, r4, #12
 8000610:	f1c4 0520 	rsb	r5, r4, #32
 8000614:	fa00 f304 	lsl.w	r3, r0, r4
 8000618:	fa20 f005 	lsr.w	r0, r0, r5
 800061c:	fa01 f204 	lsl.w	r2, r1, r4
 8000620:	ea40 0002 	orr.w	r0, r0, r2
 8000624:	f001 4100 	and.w	r1, r1, #2147483648	@ 0x80000000
 8000628:	eb10 70d3 	adds.w	r0, r0, r3, lsr #31
 800062c:	f141 0100 	adc.w	r1, r1, #0
 8000630:	ea5e 0e43 	orrs.w	lr, lr, r3, lsl #1
 8000634:	bf08      	it	eq
 8000636:	ea20 70d3 	biceq.w	r0, r0, r3, lsr #31
 800063a:	bd70      	pop	{r4, r5, r6, pc}
 800063c:	f1c4 0520 	rsb	r5, r4, #32
 8000640:	fa00 f205 	lsl.w	r2, r0, r5
 8000644:	ea4e 0e02 	orr.w	lr, lr, r2
 8000648:	fa20 f304 	lsr.w	r3, r0, r4
 800064c:	fa01 f205 	lsl.w	r2, r1, r5
 8000650:	ea43 0302 	orr.w	r3, r3, r2
 8000654:	fa21 f004 	lsr.w	r0, r1, r4
 8000658:	f001 4100 	and.w	r1, r1, #2147483648	@ 0x80000000
 800065c:	fa21 f204 	lsr.w	r2, r1, r4
 8000660:	ea20 0002 	bic.w	r0, r0, r2
 8000664:	eb00 70d3 	add.w	r0, r0, r3, lsr #31
 8000668:	ea5e 0e43 	orrs.w	lr, lr, r3, lsl #1
 800066c:	bf08      	it	eq
 800066e:	ea20 70d3 	biceq.w	r0, r0, r3, lsr #31
 8000672:	bd70      	pop	{r4, r5, r6, pc}
 8000674:	f094 0f00 	teq	r4, #0
 8000678:	d10f      	bne.n	800069a <__aeabi_dmul+0x1c2>
 800067a:	f001 4600 	and.w	r6, r1, #2147483648	@ 0x80000000
 800067e:	0040      	lsls	r0, r0, #1
 8000680:	eb41 0101 	adc.w	r1, r1, r1
 8000684:	f411 1f80 	tst.w	r1, #1048576	@ 0x100000
 8000688:	bf08      	it	eq
 800068a:	3c01      	subeq	r4, #1
 800068c:	d0f7      	beq.n	800067e <__aeabi_dmul+0x1a6>
 800068e:	ea41 0106 	orr.w	r1, r1, r6
 8000692:	f095 0f00 	teq	r5, #0
 8000696:	bf18      	it	ne
 8000698:	4770      	bxne	lr
 800069a:	f003 4600 	and.w	r6, r3, #2147483648	@ 0x80000000
 800069e:	0052      	lsls	r2, r2, #1
 80006a0:	eb43 0303 	adc.w	r3, r3, r3
 80006a4:	f413 1f80 	tst.w	r3, #1048576	@ 0x100000
 80006a8:	bf08      	it	eq
 80006aa:	3d01      	subeq	r5, #1
 80006ac:	d0f7      	beq.n	800069e <__aeabi_dmul+0x1c6>
 80006ae:	ea43 0306 	orr.w	r3, r3, r6
 80006b2:	4770      	bx	lr
 80006b4:	ea94 0f0c 	teq	r4, ip
 80006b8:	ea0c 5513 	and.w	r5, ip, r3, lsr #20
 80006bc:	bf18      	it	ne
 80006be:	ea95 0f0c 	teqne	r5, ip
 80006c2:	d00c      	beq.n	80006de <__aeabi_dmul+0x206>
 80006c4:	ea50 0641 	orrs.w	r6, r0, r1, lsl #1
 80006c8:	bf18      	it	ne
 80006ca:	ea52 0643 	orrsne.w	r6, r2, r3, lsl #1
 80006ce:	d1d1      	bne.n	8000674 <__aeabi_dmul+0x19c>
 80006d0:	ea81 0103 	eor.w	r1, r1, r3
 80006d4:	f001 4100 	and.w	r1, r1, #2147483648	@ 0x80000000
 80006d8:	f04f 0000 	mov.w	r0, #0
 80006dc:	bd70      	pop	{r4, r5, r6, pc}
 80006de:	ea50 0641 	orrs.w	r6, r0, r1, lsl #1
 80006e2:	bf06      	itte	eq
 80006e4:	4610      	moveq	r0, r2
 80006e6:	4619      	moveq	r1, r3
 80006e8:	ea52 0643 	orrsne.w	r6, r2, r3, lsl #1
 80006ec:	d019      	beq.n	8000722 <__aeabi_dmul+0x24a>
 80006ee:	ea94 0f0c 	teq	r4, ip
 80006f2:	d102      	bne.n	80006fa <__aeabi_dmul+0x222>
 80006f4:	ea50 3601 	orrs.w	r6, r0, r1, lsl #12
 80006f8:	d113      	bne.n	8000722 <__aeabi_dmul+0x24a>
 80006fa:	ea95 0f0c 	teq	r5, ip
 80006fe:	d105      	bne.n	800070c <__aeabi_dmul+0x234>
 8000700:	ea52 3603 	orrs.w	r6, r2, r3, lsl #12
 8000704:	bf1c      	itt	ne
 8000706:	4610      	movne	r0, r2
 8000708:	4619      	movne	r1, r3
 800070a:	d10a      	bne.n	8000722 <__aeabi_dmul+0x24a>
 800070c:	ea81 0103 	eor.w	r1, r1, r3
 8000710:	f001 4100 	and.w	r1, r1, #2147483648	@ 0x80000000
 8000714:	f041 41fe 	orr.w	r1, r1, #2130706432	@ 0x7f000000
 8000718:	f441 0170 	orr.w	r1, r1, #15728640	@ 0xf00000
 800071c:	f04f 0000 	mov.w	r0, #0
 8000720:	bd70      	pop	{r4, r5, r6, pc}
 8000722:	f041 41fe 	orr.w	r1, r1, #2130706432	@ 0x7f000000
 8000726:	f441 0178 	orr.w	r1, r1, #16252928	@ 0xf80000
 800072a:	bd70      	pop	{r4, r5, r6, pc}

0800072c <__aeabi_ddiv>:
 800072c:	b570      	push	{r4, r5, r6, lr}
 800072e:	f04f 0cff 	mov.w	ip, #255	@ 0xff
 8000732:	f44c 6ce0 	orr.w	ip, ip, #1792	@ 0x700
 8000736:	ea1c 5411 	ands.w	r4, ip, r1, lsr #20
 800073a:	bf1d      	ittte	ne
 800073c:	ea1c 5513 	andsne.w	r5, ip, r3, lsr #20
 8000740:	ea94 0f0c 	teqne	r4, ip
 8000744:	ea95 0f0c 	teqne	r5, ip
 8000748:	f000 f8a7 	bleq	800089a <__aeabi_ddiv+0x16e>
 800074c:	eba4 0405 	sub.w	r4, r4, r5
 8000750:	ea81 0e03 	eor.w	lr, r1, r3
 8000754:	ea52 3503 	orrs.w	r5, r2, r3, lsl #12
 8000758:	ea4f 3101 	mov.w	r1, r1, lsl #12
 800075c:	f000 8088 	beq.w	8000870 <__aeabi_ddiv+0x144>
 8000760:	ea4f 3303 	mov.w	r3, r3, lsl #12
 8000764:	f04f 5580 	mov.w	r5, #268435456	@ 0x10000000
 8000768:	ea45 1313 	orr.w	r3, r5, r3, lsr #4
 800076c:	ea43 6312 	orr.w	r3, r3, r2, lsr #24
 8000770:	ea4f 2202 	mov.w	r2, r2, lsl #8
 8000774:	ea45 1511 	orr.w	r5, r5, r1, lsr #4
 8000778:	ea45 6510 	orr.w	r5, r5, r0, lsr #24
 800077c:	ea4f 2600 	mov.w	r6, r0, lsl #8
 8000780:	f00e 4100 	and.w	r1, lr, #2147483648	@ 0x80000000
 8000784:	429d      	cmp	r5, r3
 8000786:	bf08      	it	eq
 8000788:	4296      	cmpeq	r6, r2
 800078a:	f144 04fd 	adc.w	r4, r4, #253	@ 0xfd
 800078e:	f504 7440 	add.w	r4, r4, #768	@ 0x300
 8000792:	d202      	bcs.n	800079a <__aeabi_ddiv+0x6e>
 8000794:	085b      	lsrs	r3, r3, #1
 8000796:	ea4f 0232 	mov.w	r2, r2, rrx
 800079a:	1ab6      	subs	r6, r6, r2
 800079c:	eb65 0503 	sbc.w	r5, r5, r3
 80007a0:	085b      	lsrs	r3, r3, #1
 80007a2:	ea4f 0232 	mov.w	r2, r2, rrx
 80007a6:	f44f 1080 	mov.w	r0, #1048576	@ 0x100000
 80007aa:	f44f 2c00 	mov.w	ip, #524288	@ 0x80000
 80007ae:	ebb6 0e02 	subs.w	lr, r6, r2
 80007b2:	eb75 0e03 	sbcs.w	lr, r5, r3
 80007b6:	bf22      	ittt	cs
 80007b8:	1ab6      	subcs	r6, r6, r2
 80007ba:	4675      	movcs	r5, lr
 80007bc:	ea40 000c 	orrcs.w	r0, r0, ip
 80007c0:	085b      	lsrs	r3, r3, #1
 80007c2:	ea4f 0232 	mov.w	r2, r2, rrx
 80007c6:	ebb6 0e02 	subs.w	lr, r6, r2
 80007ca:	eb75 0e03 	sbcs.w	lr, r5, r3
 80007ce:	bf22      	ittt	cs
 80007d0:	1ab6      	subcs	r6, r6, r2
 80007d2:	4675      	movcs	r5, lr
 80007d4:	ea40 005c 	orrcs.w	r0, r0, ip, lsr #1
 80007d8:	085b      	lsrs	r3, r3, #1
 80007da:	ea4f 0232 	mov.w	r2, r2, rrx
 80007de:	ebb6 0e02 	subs.w	lr, r6, r2
 80007e2:	eb75 0e03 	sbcs.w	lr, r5, r3
 80007e6:	bf22      	ittt	cs
 80007e8:	1ab6      	subcs	r6, r6, r2
 80007ea:	4675      	movcs	r5, lr
 80007ec:	ea40 009c 	orrcs.w	r0, r0, ip, lsr #2
 80007f0:	085b      	lsrs	r3, r3, #1
 80007f2:	ea4f 0232 	mov.w	r2, r2, rrx
 80007f6:	ebb6 0e02 	subs.w	lr, r6, r2
 80007fa:	eb75 0e03 	sbcs.w	lr, r5, r3
 80007fe:	bf22      	ittt	cs
 8000800:	1ab6      	subcs	r6, r6, r2
 8000802:	4675      	movcs	r5, lr
 8000804:	ea40 00dc 	orrcs.w	r0, r0, ip, lsr #3
 8000808:	ea55 0e06 	orrs.w	lr, r5, r6
 800080c:	d018      	beq.n	8000840 <__aeabi_ddiv+0x114>
 800080e:	ea4f 1505 	mov.w	r5, r5, lsl #4
 8000812:	ea45 7516 	orr.w	r5, r5, r6, lsr #28
 8000816:	ea4f 1606 	mov.w	r6, r6, lsl #4
 800081a:	ea4f 03c3 	mov.w	r3, r3, lsl #3
 800081e:	ea43 7352 	orr.w	r3, r3, r2, lsr #29
 8000822:	ea4f 02c2 	mov.w	r2, r2, lsl #3
 8000826:	ea5f 1c1c 	movs.w	ip, ip, lsr #4
 800082a:	d1c0      	bne.n	80007ae <__aeabi_ddiv+0x82>
 800082c:	f411 1f80 	tst.w	r1, #1048576	@ 0x100000
 8000830:	d10b      	bne.n	800084a <__aeabi_ddiv+0x11e>
 8000832:	ea41 0100 	orr.w	r1, r1, r0
 8000836:	f04f 0000 	mov.w	r0, #0
 800083a:	f04f 4c00 	mov.w	ip, #2147483648	@ 0x80000000
 800083e:	e7b6      	b.n	80007ae <__aeabi_ddiv+0x82>
 8000840:	f411 1f80 	tst.w	r1, #1048576	@ 0x100000
 8000844:	bf04      	itt	eq
 8000846:	4301      	orreq	r1, r0
 8000848:	2000      	moveq	r0, #0
 800084a:	f1b4 0cfd 	subs.w	ip, r4, #253	@ 0xfd
 800084e:	bf88      	it	hi
 8000850:	f5bc 6fe0 	cmphi.w	ip, #1792	@ 0x700
 8000854:	f63f aeaf 	bhi.w	80005b6 <__aeabi_dmul+0xde>
 8000858:	ebb5 0c03 	subs.w	ip, r5, r3
 800085c:	bf04      	itt	eq
 800085e:	ebb6 0c02 	subseq.w	ip, r6, r2
 8000862:	ea5f 0c50 	movseq.w	ip, r0, lsr #1
 8000866:	f150 0000 	adcs.w	r0, r0, #0
 800086a:	eb41 5104 	adc.w	r1, r1, r4, lsl #20
 800086e:	bd70      	pop	{r4, r5, r6, pc}
 8000870:	f00e 4e00 	and.w	lr, lr, #2147483648	@ 0x80000000
 8000874:	ea4e 3111 	orr.w	r1, lr, r1, lsr #12
 8000878:	eb14 045c 	adds.w	r4, r4, ip, lsr #1
 800087c:	bfc2      	ittt	gt
 800087e:	ebd4 050c 	rsbsgt	r5, r4, ip
 8000882:	ea41 5104 	orrgt.w	r1, r1, r4, lsl #20
 8000886:	bd70      	popgt	{r4, r5, r6, pc}
 8000888:	f441 1180 	orr.w	r1, r1, #1048576	@ 0x100000
 800088c:	f04f 0e00 	mov.w	lr, #0
 8000890:	3c01      	subs	r4, #1
 8000892:	e690      	b.n	80005b6 <__aeabi_dmul+0xde>
 8000894:	ea45 0e06 	orr.w	lr, r5, r6
 8000898:	e68d      	b.n	80005b6 <__aeabi_dmul+0xde>
 800089a:	ea0c 5513 	and.w	r5, ip, r3, lsr #20
 800089e:	ea94 0f0c 	teq	r4, ip
 80008a2:	bf08      	it	eq
 80008a4:	ea95 0f0c 	teqeq	r5, ip
 80008a8:	f43f af3b 	beq.w	8000722 <__aeabi_dmul+0x24a>
 80008ac:	ea94 0f0c 	teq	r4, ip
 80008b0:	d10a      	bne.n	80008c8 <__aeabi_ddiv+0x19c>
 80008b2:	ea50 3401 	orrs.w	r4, r0, r1, lsl #12
 80008b6:	f47f af34 	bne.w	8000722 <__aeabi_dmul+0x24a>
 80008ba:	ea95 0f0c 	teq	r5, ip
 80008be:	f47f af25 	bne.w	800070c <__aeabi_dmul+0x234>
 80008c2:	4610      	mov	r0, r2
 80008c4:	4619      	mov	r1, r3
 80008c6:	e72c      	b.n	8000722 <__aeabi_dmul+0x24a>
 80008c8:	ea95 0f0c 	teq	r5, ip
 80008cc:	d106      	bne.n	80008dc <__aeabi_ddiv+0x1b0>
 80008ce:	ea52 3503 	orrs.w	r5, r2, r3, lsl #12
 80008d2:	f43f aefd 	beq.w	80006d0 <__aeabi_dmul+0x1f8>
 80008d6:	4610      	mov	r0, r2
 80008d8:	4619      	mov	r1, r3
 80008da:	e722      	b.n	8000722 <__aeabi_dmul+0x24a>
 80008dc:	ea50 0641 	orrs.w	r6, r0, r1, lsl #1
 80008e0:	bf18      	it	ne
 80008e2:	ea52 0643 	orrsne.w	r6, r2, r3, lsl #1
 80008e6:	f47f aec5 	bne.w	8000674 <__aeabi_dmul+0x19c>
 80008ea:	ea50 0441 	orrs.w	r4, r0, r1, lsl #1
 80008ee:	f47f af0d 	bne.w	800070c <__aeabi_dmul+0x234>
 80008f2:	ea52 0543 	orrs.w	r5, r2, r3, lsl #1
 80008f6:	f47f aeeb 	bne.w	80006d0 <__aeabi_dmul+0x1f8>
 80008fa:	e712      	b.n	8000722 <__aeabi_dmul+0x24a>

080008fc <__gedf2>:
 80008fc:	f04f 3cff 	mov.w	ip, #4294967295
 8000900:	e006      	b.n	8000910 <__cmpdf2+0x4>
 8000902:	bf00      	nop

08000904 <__ledf2>:
 8000904:	f04f 0c01 	mov.w	ip, #1
 8000908:	e002      	b.n	8000910 <__cmpdf2+0x4>
 800090a:	bf00      	nop

0800090c <__cmpdf2>:
 800090c:	f04f 0c01 	mov.w	ip, #1
 8000910:	f84d cd04 	str.w	ip, [sp, #-4]!
 8000914:	ea4f 0c41 	mov.w	ip, r1, lsl #1
 8000918:	ea7f 5c6c 	mvns.w	ip, ip, asr #21
 800091c:	ea4f 0c43 	mov.w	ip, r3, lsl #1
 8000920:	bf18      	it	ne
 8000922:	ea7f 5c6c 	mvnsne.w	ip, ip, asr #21
 8000926:	d01b      	beq.n	8000960 <__cmpdf2+0x54>
 8000928:	b001      	add	sp, #4
 800092a:	ea50 0c41 	orrs.w	ip, r0, r1, lsl #1
 800092e:	bf0c      	ite	eq
 8000930:	ea52 0c43 	orrseq.w	ip, r2, r3, lsl #1
 8000934:	ea91 0f03 	teqne	r1, r3
 8000938:	bf02      	ittt	eq
 800093a:	ea90 0f02 	teqeq	r0, r2
 800093e:	2000      	moveq	r0, #0
 8000940:	4770      	bxeq	lr
 8000942:	f110 0f00 	cmn.w	r0, #0
 8000946:	ea91 0f03 	teq	r1, r3
 800094a:	bf58      	it	pl
 800094c:	4299      	cmppl	r1, r3
 800094e:	bf08      	it	eq
 8000950:	4290      	cmpeq	r0, r2
 8000952:	bf2c      	ite	cs
 8000954:	17d8      	asrcs	r0, r3, #31
 8000956:	ea6f 70e3 	mvncc.w	r0, r3, asr #31
 800095a:	f040 0001 	orr.w	r0, r0, #1
 800095e:	4770      	bx	lr
 8000960:	ea4f 0c41 	mov.w	ip, r1, lsl #1
 8000964:	ea7f 5c6c 	mvns.w	ip, ip, asr #21
 8000968:	d102      	bne.n	8000970 <__cmpdf2+0x64>
 800096a:	ea50 3c01 	orrs.w	ip, r0, r1, lsl #12
 800096e:	d107      	bne.n	8000980 <__cmpdf2+0x74>
 8000970:	ea4f 0c43 	mov.w	ip, r3, lsl #1
 8000974:	ea7f 5c6c 	mvns.w	ip, ip, asr #21
 8000978:	d1d6      	bne.n	8000928 <__cmpdf2+0x1c>
 800097a:	ea52 3c03 	orrs.w	ip, r2, r3, lsl #12
 800097e:	d0d3      	beq.n	8000928 <__cmpdf2+0x1c>
 8000980:	f85d 0b04 	ldr.w	r0, [sp], #4
 8000984:	4770      	bx	lr
 8000986:	bf00      	nop

08000988 <__aeabi_cdrcmple>:
 8000988:	4684      	mov	ip, r0
 800098a:	4610      	mov	r0, r2
 800098c:	4662      	mov	r2, ip
 800098e:	468c      	mov	ip, r1
 8000990:	4619      	mov	r1, r3
 8000992:	4663      	mov	r3, ip
 8000994:	e000      	b.n	8000998 <__aeabi_cdcmpeq>
 8000996:	bf00      	nop

08000998 <__aeabi_cdcmpeq>:
 8000998:	b501      	push	{r0, lr}
 800099a:	f7ff ffb7 	bl	800090c <__cmpdf2>
 800099e:	2800      	cmp	r0, #0
 80009a0:	bf48      	it	mi
 80009a2:	f110 0f00 	cmnmi.w	r0, #0
 80009a6:	bd01      	pop	{r0, pc}

080009a8 <__aeabi_dcmpeq>:
 80009a8:	f84d ed08 	str.w	lr, [sp, #-8]!
 80009ac:	f7ff fff4 	bl	8000998 <__aeabi_cdcmpeq>
 80009b0:	bf0c      	ite	eq
 80009b2:	2001      	moveq	r0, #1
 80009b4:	2000      	movne	r0, #0
 80009b6:	f85d fb08 	ldr.w	pc, [sp], #8
 80009ba:	bf00      	nop

080009bc <__aeabi_dcmplt>:
 80009bc:	f84d ed08 	str.w	lr, [sp, #-8]!
 80009c0:	f7ff ffea 	bl	8000998 <__aeabi_cdcmpeq>
 80009c4:	bf34      	ite	cc
 80009c6:	2001      	movcc	r0, #1
 80009c8:	2000      	movcs	r0, #0
 80009ca:	f85d fb08 	ldr.w	pc, [sp], #8
 80009ce:	bf00      	nop

080009d0 <__aeabi_dcmple>:
 80009d0:	f84d ed08 	str.w	lr, [sp, #-8]!
 80009d4:	f7ff ffe0 	bl	8000998 <__aeabi_cdcmpeq>
 80009d8:	bf94      	ite	ls
 80009da:	2001      	movls	r0, #1
 80009dc:	2000      	movhi	r0, #0
 80009de:	f85d fb08 	ldr.w	pc, [sp], #8
 80009e2:	bf00      	nop

080009e4 <__aeabi_dcmpge>:
 80009e4:	f84d ed08 	str.w	lr, [sp, #-8]!
 80009e8:	f7ff ffce 	bl	8000988 <__aeabi_cdrcmple>
 80009ec:	bf94      	ite	ls
 80009ee:	2001      	movls	r0, #1
 80009f0:	2000      	movhi	r0, #0
 80009f2:	f85d fb08 	ldr.w	pc, [sp], #8
 80009f6:	bf00      	nop

080009f8 <__aeabi_dcmpgt>:
 80009f8:	f84d ed08 	str.w	lr, [sp, #-8]!
 80009fc:	f7ff ffc4 	bl	8000988 <__aeabi_cdrcmple>
 8000a00:	bf34      	ite	cc
 8000a02:	2001      	movcc	r0, #1
 8000a04:	2000      	movcs	r0, #0
 8000a06:	f85d fb08 	ldr.w	pc, [sp], #8
 8000a0a:	bf00      	nop

08000a0c <__aeabi_dcmpun>:
 8000a0c:	ea4f 0c41 	mov.w	ip, r1, lsl #1
 8000a10:	ea7f 5c6c 	mvns.w	ip, ip, asr #21
 8000a14:	d102      	bne.n	8000a1c <__aeabi_dcmpun+0x10>
 8000a16:	ea50 3c01 	orrs.w	ip, r0, r1, lsl #12
 8000a1a:	d10a      	bne.n	8000a32 <__aeabi_dcmpun+0x26>
 8000a1c:	ea4f 0c43 	mov.w	ip, r3, lsl #1
 8000a20:	ea7f 5c6c 	mvns.w	ip, ip, asr #21
 8000a24:	d102      	bne.n	8000a2c <__aeabi_dcmpun+0x20>
 8000a26:	ea52 3c03 	orrs.w	ip, r2, r3, lsl #12
 8000a2a:	d102      	bne.n	8000a32 <__aeabi_dcmpun+0x26>
 8000a2c:	f04f 0000 	mov.w	r0, #0
 8000a30:	4770      	bx	lr
 8000a32:	f04f 0001 	mov.w	r0, #1
 8000a36:	4770      	bx	lr

08000a38 <__aeabi_d2iz>:
 8000a38:	ea4f 0241 	mov.w	r2, r1, lsl #1
 8000a3c:	f512 1200 	adds.w	r2, r2, #2097152	@ 0x200000
 8000a40:	d215      	bcs.n	8000a6e <__aeabi_d2iz+0x36>
 8000a42:	d511      	bpl.n	8000a68 <__aeabi_d2iz+0x30>
 8000a44:	f46f 7378 	mvn.w	r3, #992	@ 0x3e0
 8000a48:	ebb3 5262 	subs.w	r2, r3, r2, asr #21
 8000a4c:	d912      	bls.n	8000a74 <__aeabi_d2iz+0x3c>
 8000a4e:	ea4f 23c1 	mov.w	r3, r1, lsl #11
 8000a52:	f043 4300 	orr.w	r3, r3, #2147483648	@ 0x80000000
 8000a56:	ea43 5350 	orr.w	r3, r3, r0, lsr #21
 8000a5a:	f011 4f00 	tst.w	r1, #2147483648	@ 0x80000000
 8000a5e:	fa23 f002 	lsr.w	r0, r3, r2
 8000a62:	bf18      	it	ne
 8000a64:	4240      	negne	r0, r0
 8000a66:	4770      	bx	lr
 8000a68:	f04f 0000 	mov.w	r0, #0
 8000a6c:	4770      	bx	lr
 8000a6e:	ea50 3001 	orrs.w	r0, r0, r1, lsl #12
 8000a72:	d105      	bne.n	8000a80 <__aeabi_d2iz+0x48>
 8000a74:	f011 4000 	ands.w	r0, r1, #2147483648	@ 0x80000000
 8000a78:	bf08      	it	eq
 8000a7a:	f06f 4000 	mvneq.w	r0, #2147483648	@ 0x80000000
 8000a7e:	4770      	bx	lr
 8000a80:	f04f 0000 	mov.w	r0, #0
 8000a84:	4770      	bx	lr
 8000a86:	bf00      	nop

08000a88 <MX_I2C1_Init>:
 8000a88:	b508      	push	{r3, lr}
 8000a8a:	480a      	ldr	r0, [pc, #40]	@ (8000ab4 <MX_I2C1_Init+0x2c>)
 8000a8c:	4a0a      	ldr	r2, [pc, #40]	@ (8000ab8 <MX_I2C1_Init+0x30>)
 8000a8e:	4b0b      	ldr	r3, [pc, #44]	@ (8000abc <MX_I2C1_Init+0x34>)
 8000a90:	e9c0 2300 	strd	r2, r3, [r0]
 8000a94:	2300      	movs	r3, #0
 8000a96:	f44f 4280 	mov.w	r2, #16384	@ 0x4000
 8000a9a:	e9c0 3302 	strd	r3, r3, [r0, #8]
 8000a9e:	e9c0 2304 	strd	r2, r3, [r0, #16]
 8000aa2:	e9c0 3306 	strd	r3, r3, [r0, #24]
 8000aa6:	6203      	str	r3, [r0, #32]
 8000aa8:	f001 fe4c 	bl	8002744 <HAL_I2C_Init>
 8000aac:	b108      	cbz	r0, 8000ab2 <MX_I2C1_Init+0x2a>
 8000aae:	b672      	cpsid	i
 8000ab0:	e7fe      	b.n	8000ab0 <MX_I2C1_Init+0x28>
 8000ab2:	bd08      	pop	{r3, pc}
 8000ab4:	20000820 	.word	0x20000820
 8000ab8:	40005400 	.word	0x40005400
 8000abc:	000186a0 	.word	0x000186a0

08000ac0 <DebugPrint>:
 8000ac0:	b40f      	push	{r0, r1, r2, r3}
 8000ac2:	b513      	push	{r0, r1, r4, lr}
 8000ac4:	4c0b      	ldr	r4, [pc, #44]	@ (8000af4 <DebugPrint+0x34>)
 8000ac6:	ab04      	add	r3, sp, #16
 8000ac8:	f853 2b04 	ldr.w	r2, [r3], #4
 8000acc:	2180      	movs	r1, #128	@ 0x80
 8000ace:	4620      	mov	r0, r4
 8000ad0:	9301      	str	r3, [sp, #4]
 8000ad2:	f005 ffd7 	bl	8006a84 <vsniprintf>
 8000ad6:	4620      	mov	r0, r4
 8000ad8:	f7ff fb3a 	bl	8000150 <strlen>
 8000adc:	2364      	movs	r3, #100	@ 0x64
 8000ade:	b282      	uxth	r2, r0
 8000ae0:	4621      	mov	r1, r4
 8000ae2:	4805      	ldr	r0, [pc, #20]	@ (8000af8 <DebugPrint+0x38>)
 8000ae4:	f002 fded 	bl	80036c2 <HAL_UART_Transmit>
 8000ae8:	b002      	add	sp, #8
 8000aea:	e8bd 4010 	ldmia.w	sp!, {r4, lr}
 8000aee:	b004      	add	sp, #16
 8000af0:	4770      	bx	lr
 8000af2:	bf00      	nop
 8000af4:	2000020c 	.word	0x2000020c
 8000af8:	20000790 	.word	0x20000790

08000afc <Modbus_OnRegisterRead>:
 8000afc:	2826      	cmp	r0, #38	@ 0x26
 8000afe:	b510      	push	{r4, lr}
 8000b00:	460c      	mov	r4, r1
 8000b02:	d843      	bhi.n	8000b8c <Modbus_OnRegisterRead+0x90>
 8000b04:	2809      	cmp	r0, #9
 8000b06:	d800      	bhi.n	8000b0a <Modbus_OnRegisterRead+0xe>
 8000b08:	bd10      	pop	{r4, pc}
 8000b0a:	380a      	subs	r0, #10
 8000b0c:	281c      	cmp	r0, #28
 8000b0e:	d8fb      	bhi.n	8000b08 <Modbus_OnRegisterRead+0xc>
 8000b10:	a301      	add	r3, pc, #4	@ (adr r3, 8000b18 <Modbus_OnRegisterRead+0x1c>)
 8000b12:	f853 f020 	ldr.w	pc, [r3, r0, lsl #2]
 8000b16:	bf00      	nop
 8000b18:	08000bab 	.word	0x08000bab
 8000b1c:	08000bb7 	.word	0x08000bb7
 8000b20:	08000bbb 	.word	0x08000bbb
 8000b24:	08000bbf 	.word	0x08000bbf
 8000b28:	08000bc3 	.word	0x08000bc3
 8000b2c:	08000b09 	.word	0x08000b09
 8000b30:	08000b09 	.word	0x08000b09
 8000b34:	08000b09 	.word	0x08000b09
 8000b38:	08000b09 	.word	0x08000b09
 8000b3c:	08000b09 	.word	0x08000b09
 8000b40:	08000b09 	.word	0x08000b09
 8000b44:	08000b09 	.word	0x08000b09
 8000b48:	08000b09 	.word	0x08000b09
 8000b4c:	08000b09 	.word	0x08000b09
 8000b50:	08000b09 	.word	0x08000b09
 8000b54:	08000b09 	.word	0x08000b09
 8000b58:	08000b09 	.word	0x08000b09
 8000b5c:	08000b09 	.word	0x08000b09
 8000b60:	08000b09 	.word	0x08000b09
 8000b64:	08000b09 	.word	0x08000b09
 8000b68:	08000b09 	.word	0x08000b09
 8000b6c:	08000b09 	.word	0x08000b09
 8000b70:	08000bfb 	.word	0x08000bfb
 8000b74:	08000bfb 	.word	0x08000bfb
 8000b78:	08000bc9 	.word	0x08000bc9
 8000b7c:	08000bd5 	.word	0x08000bd5
 8000b80:	08000bd9 	.word	0x08000bd9
 8000b84:	08000be5 	.word	0x08000be5
 8000b88:	08000bff 	.word	0x08000bff
 8000b8c:	f5a0 7380 	sub.w	r3, r0, #256	@ 0x100
 8000b90:	2b08      	cmp	r3, #8
 8000b92:	d8b9      	bhi.n	8000b08 <Modbus_OnRegisterRead+0xc>
 8000b94:	f46f 7380 	mvn.w	r3, #256	@ 0x100
 8000b98:	4418      	add	r0, r3
 8000b9a:	2807      	cmp	r0, #7
 8000b9c:	d83a      	bhi.n	8000c14 <Modbus_OnRegisterRead+0x118>
 8000b9e:	e8df f000 	tbb	[pc, r0]
 8000ba2:	563c      	.short	0x563c
 8000ba4:	5e5e4e5a 	.word	0x5e5e4e5a
 8000ba8:	6361      	.short	0x6361
 8000baa:	2180      	movs	r1, #128	@ 0x80
 8000bac:	482f      	ldr	r0, [pc, #188]	@ (8000c6c <Modbus_OnRegisterRead+0x170>)
 8000bae:	f001 fc93 	bl	80024d8 <HAL_GPIO_ReadPin>
 8000bb2:	8020      	strh	r0, [r4, #0]
 8000bb4:	e7a8      	b.n	8000b08 <Modbus_OnRegisterRead+0xc>
 8000bb6:	2140      	movs	r1, #64	@ 0x40
 8000bb8:	e7f8      	b.n	8000bac <Modbus_OnRegisterRead+0xb0>
 8000bba:	2120      	movs	r1, #32
 8000bbc:	e7f6      	b.n	8000bac <Modbus_OnRegisterRead+0xb0>
 8000bbe:	2110      	movs	r1, #16
 8000bc0:	e7f4      	b.n	8000bac <Modbus_OnRegisterRead+0xb0>
 8000bc2:	4b2b      	ldr	r3, [pc, #172]	@ (8000c70 <Modbus_OnRegisterRead+0x174>)
 8000bc4:	781b      	ldrb	r3, [r3, #0]
 8000bc6:	e003      	b.n	8000bd0 <Modbus_OnRegisterRead+0xd4>
 8000bc8:	4b2a      	ldr	r3, [pc, #168]	@ (8000c74 <Modbus_OnRegisterRead+0x178>)
 8000bca:	781b      	ldrb	r3, [r3, #0]
 8000bcc:	f3c3 0340 	ubfx	r3, r3, #1, #1
 8000bd0:	8023      	strh	r3, [r4, #0]
 8000bd2:	e799      	b.n	8000b08 <Modbus_OnRegisterRead+0xc>
 8000bd4:	4b28      	ldr	r3, [pc, #160]	@ (8000c78 <Modbus_OnRegisterRead+0x17c>)
 8000bd6:	e7f8      	b.n	8000bca <Modbus_OnRegisterRead+0xce>
 8000bd8:	4b28      	ldr	r3, [pc, #160]	@ (8000c7c <Modbus_OnRegisterRead+0x180>)
 8000bda:	781b      	ldrb	r3, [r3, #0]
 8000bdc:	2b00      	cmp	r3, #0
 8000bde:	d0f7      	beq.n	8000bd0 <Modbus_OnRegisterRead+0xd4>
 8000be0:	4b27      	ldr	r3, [pc, #156]	@ (8000c80 <Modbus_OnRegisterRead+0x184>)
 8000be2:	e7ef      	b.n	8000bc4 <Modbus_OnRegisterRead+0xc8>
 8000be4:	4b25      	ldr	r3, [pc, #148]	@ (8000c7c <Modbus_OnRegisterRead+0x180>)
 8000be6:	781b      	ldrb	r3, [r3, #0]
 8000be8:	b13b      	cbz	r3, 8000bfa <Modbus_OnRegisterRead+0xfe>
 8000bea:	4b26      	ldr	r3, [pc, #152]	@ (8000c84 <Modbus_OnRegisterRead+0x188>)
 8000bec:	781b      	ldrb	r3, [r3, #0]
 8000bee:	2b01      	cmp	r3, #1
 8000bf0:	d903      	bls.n	8000bfa <Modbus_OnRegisterRead+0xfe>
 8000bf2:	4b25      	ldr	r3, [pc, #148]	@ (8000c88 <Modbus_OnRegisterRead+0x18c>)
 8000bf4:	881b      	ldrh	r3, [r3, #0]
 8000bf6:	ba5b      	rev16	r3, r3
 8000bf8:	e7ea      	b.n	8000bd0 <Modbus_OnRegisterRead+0xd4>
 8000bfa:	2300      	movs	r3, #0
 8000bfc:	e7e8      	b.n	8000bd0 <Modbus_OnRegisterRead+0xd4>
 8000bfe:	4b1f      	ldr	r3, [pc, #124]	@ (8000c7c <Modbus_OnRegisterRead+0x180>)
 8000c00:	781b      	ldrb	r3, [r3, #0]
 8000c02:	2b00      	cmp	r3, #0
 8000c04:	d0f9      	beq.n	8000bfa <Modbus_OnRegisterRead+0xfe>
 8000c06:	4b1f      	ldr	r3, [pc, #124]	@ (8000c84 <Modbus_OnRegisterRead+0x188>)
 8000c08:	781b      	ldrb	r3, [r3, #0]
 8000c0a:	2b03      	cmp	r3, #3
 8000c0c:	d9f5      	bls.n	8000bfa <Modbus_OnRegisterRead+0xfe>
 8000c0e:	4b1e      	ldr	r3, [pc, #120]	@ (8000c88 <Modbus_OnRegisterRead+0x18c>)
 8000c10:	885b      	ldrh	r3, [r3, #2]
 8000c12:	e7f0      	b.n	8000bf6 <Modbus_OnRegisterRead+0xfa>
 8000c14:	4b1d      	ldr	r3, [pc, #116]	@ (8000c8c <Modbus_OnRegisterRead+0x190>)
 8000c16:	7a1b      	ldrb	r3, [r3, #8]
 8000c18:	e7da      	b.n	8000bd0 <Modbus_OnRegisterRead+0xd4>
 8000c1a:	4b1c      	ldr	r3, [pc, #112]	@ (8000c8c <Modbus_OnRegisterRead+0x190>)
 8000c1c:	f8d3 346c 	ldr.w	r3, [r3, #1132]	@ 0x46c
 8000c20:	f5b3 4f16 	cmp.w	r3, #38400	@ 0x9600
 8000c24:	d011      	beq.n	8000c4a <Modbus_OnRegisterRead+0x14e>
 8000c26:	d807      	bhi.n	8000c38 <Modbus_OnRegisterRead+0x13c>
 8000c28:	f5b3 5f16 	cmp.w	r3, #9600	@ 0x2580
 8000c2c:	d009      	beq.n	8000c42 <Modbus_OnRegisterRead+0x146>
 8000c2e:	f5b3 4f96 	cmp.w	r3, #19200	@ 0x4b00
 8000c32:	d008      	beq.n	8000c46 <Modbus_OnRegisterRead+0x14a>
 8000c34:	2305      	movs	r3, #5
 8000c36:	e7cb      	b.n	8000bd0 <Modbus_OnRegisterRead+0xd4>
 8000c38:	f5b3 4f61 	cmp.w	r3, #57600	@ 0xe100
 8000c3c:	d1fa      	bne.n	8000c34 <Modbus_OnRegisterRead+0x138>
 8000c3e:	2304      	movs	r3, #4
 8000c40:	e7c6      	b.n	8000bd0 <Modbus_OnRegisterRead+0xd4>
 8000c42:	2301      	movs	r3, #1
 8000c44:	e7c4      	b.n	8000bd0 <Modbus_OnRegisterRead+0xd4>
 8000c46:	2302      	movs	r3, #2
 8000c48:	e7c2      	b.n	8000bd0 <Modbus_OnRegisterRead+0xd4>
 8000c4a:	2303      	movs	r3, #3
 8000c4c:	e7c0      	b.n	8000bd0 <Modbus_OnRegisterRead+0xd4>
 8000c4e:	4b0f      	ldr	r3, [pc, #60]	@ (8000c8c <Modbus_OnRegisterRead+0x190>)
 8000c50:	f893 3470 	ldrb.w	r3, [r3, #1136]	@ 0x470
 8000c54:	e7bc      	b.n	8000bd0 <Modbus_OnRegisterRead+0xd4>
 8000c56:	4b0d      	ldr	r3, [pc, #52]	@ (8000c8c <Modbus_OnRegisterRead+0x190>)
 8000c58:	f893 3471 	ldrb.w	r3, [r3, #1137]	@ 0x471
 8000c5c:	e7b8      	b.n	8000bd0 <Modbus_OnRegisterRead+0xd4>
 8000c5e:	f240 1301 	movw	r3, #257	@ 0x101
 8000c62:	e7b5      	b.n	8000bd0 <Modbus_OnRegisterRead+0xd4>
 8000c64:	4b03      	ldr	r3, [pc, #12]	@ (8000c74 <Modbus_OnRegisterRead+0x178>)
 8000c66:	e7ad      	b.n	8000bc4 <Modbus_OnRegisterRead+0xc8>
 8000c68:	4b03      	ldr	r3, [pc, #12]	@ (8000c78 <Modbus_OnRegisterRead+0x17c>)
 8000c6a:	e7ab      	b.n	8000bc4 <Modbus_OnRegisterRead+0xc8>
 8000c6c:	40010800 	.word	0x40010800
 8000c70:	2000028f 	.word	0x2000028f
 8000c74:	2000028e 	.word	0x2000028e
 8000c78:	2000028d 	.word	0x2000028d
 8000c7c:	20000294 	.word	0x20000294
 8000c80:	20000295 	.word	0x20000295
 8000c84:	20000296 	.word	0x20000296
 8000c88:	20000297 	.word	0x20000297
 8000c8c:	200002a0 	.word	0x200002a0

08000c90 <Modbus_OnRegisterWrite>:
 8000c90:	f5a0 7080 	sub.w	r0, r0, #256	@ 0x100
 8000c94:	b510      	push	{r4, lr}
 8000c96:	460c      	mov	r4, r1
 8000c98:	2809      	cmp	r0, #9
 8000c9a:	d853      	bhi.n	8000d44 <Modbus_OnRegisterWrite+0xb4>
 8000c9c:	e8df f000 	tbb	[pc, r0]
 8000ca0:	33250f05 	.word	0x33250f05
 8000ca4:	52525252 	.word	0x52525252
 8000ca8:	4252      	.short	0x4252
 8000caa:	1e4b      	subs	r3, r1, #1
 8000cac:	2bf6      	cmp	r3, #246	@ 0xf6
 8000cae:	d849      	bhi.n	8000d44 <Modbus_OnRegisterWrite+0xb4>
 8000cb0:	4b25      	ldr	r3, [pc, #148]	@ (8000d48 <Modbus_OnRegisterWrite+0xb8>)
 8000cb2:	4826      	ldr	r0, [pc, #152]	@ (8000d4c <Modbus_OnRegisterWrite+0xbc>)
 8000cb4:	7219      	strb	r1, [r3, #8]
 8000cb6:	e8bd 4010 	ldmia.w	sp!, {r4, lr}
 8000cba:	f7ff bf01 	b.w	8000ac0 <DebugPrint>
 8000cbe:	1e4c      	subs	r4, r1, #1
 8000cc0:	b2a4      	uxth	r4, r4
 8000cc2:	2c03      	cmp	r4, #3
 8000cc4:	bf8c      	ite	hi
 8000cc6:	f44f 34e1 	movhi.w	r4, #115200	@ 0x1c200
 8000cca:	4b21      	ldrls	r3, [pc, #132]	@ (8000d50 <Modbus_OnRegisterWrite+0xc0>)
 8000ccc:	481e      	ldr	r0, [pc, #120]	@ (8000d48 <Modbus_OnRegisterWrite+0xb8>)
 8000cce:	bf98      	it	ls
 8000cd0:	f833 4014 	ldrhls.w	r4, [r3, r4, lsl #1]
 8000cd4:	f890 2470 	ldrb.w	r2, [r0, #1136]	@ 0x470
 8000cd8:	4621      	mov	r1, r4
 8000cda:	f890 3471 	ldrb.w	r3, [r0, #1137]	@ 0x471
 8000cde:	f000 fbdd 	bl	800149c <Modbus_SetConfig>
 8000ce2:	bb78      	cbnz	r0, 8000d44 <Modbus_OnRegisterWrite+0xb4>
 8000ce4:	4621      	mov	r1, r4
 8000ce6:	481b      	ldr	r0, [pc, #108]	@ (8000d54 <Modbus_OnRegisterWrite+0xc4>)
 8000ce8:	e7e5      	b.n	8000cb6 <Modbus_OnRegisterWrite+0x26>
 8000cea:	2902      	cmp	r1, #2
 8000cec:	d82a      	bhi.n	8000d44 <Modbus_OnRegisterWrite+0xb4>
 8000cee:	4816      	ldr	r0, [pc, #88]	@ (8000d48 <Modbus_OnRegisterWrite+0xb8>)
 8000cf0:	b2ca      	uxtb	r2, r1
 8000cf2:	f890 3471 	ldrb.w	r3, [r0, #1137]	@ 0x471
 8000cf6:	f8d0 146c 	ldr.w	r1, [r0, #1132]	@ 0x46c
 8000cfa:	f000 fbcf 	bl	800149c <Modbus_SetConfig>
 8000cfe:	bb08      	cbnz	r0, 8000d44 <Modbus_OnRegisterWrite+0xb4>
 8000d00:	4621      	mov	r1, r4
 8000d02:	4815      	ldr	r0, [pc, #84]	@ (8000d58 <Modbus_OnRegisterWrite+0xc8>)
 8000d04:	e7d7      	b.n	8000cb6 <Modbus_OnRegisterWrite+0x26>
 8000d06:	1e4b      	subs	r3, r1, #1
 8000d08:	2b01      	cmp	r3, #1
 8000d0a:	d81b      	bhi.n	8000d44 <Modbus_OnRegisterWrite+0xb4>
 8000d0c:	480e      	ldr	r0, [pc, #56]	@ (8000d48 <Modbus_OnRegisterWrite+0xb8>)
 8000d0e:	b2cb      	uxtb	r3, r1
 8000d10:	f890 2470 	ldrb.w	r2, [r0, #1136]	@ 0x470
 8000d14:	f8d0 146c 	ldr.w	r1, [r0, #1132]	@ 0x46c
 8000d18:	f000 fbc0 	bl	800149c <Modbus_SetConfig>
 8000d1c:	b990      	cbnz	r0, 8000d44 <Modbus_OnRegisterWrite+0xb4>
 8000d1e:	4621      	mov	r1, r4
 8000d20:	480e      	ldr	r0, [pc, #56]	@ (8000d5c <Modbus_OnRegisterWrite+0xcc>)
 8000d22:	e7c8      	b.n	8000cb6 <Modbus_OnRegisterWrite+0x26>
 8000d24:	2901      	cmp	r1, #1
 8000d26:	d10d      	bne.n	8000d44 <Modbus_OnRegisterWrite+0xb4>
 8000d28:	2400      	movs	r4, #0
 8000d2a:	4b0d      	ldr	r3, [pc, #52]	@ (8000d60 <Modbus_OnRegisterWrite+0xd0>)
 8000d2c:	480d      	ldr	r0, [pc, #52]	@ (8000d64 <Modbus_OnRegisterWrite+0xd4>)
 8000d2e:	701c      	strb	r4, [r3, #0]
 8000d30:	f7ff fec6 	bl	8000ac0 <DebugPrint>
 8000d34:	4622      	mov	r2, r4
 8000d36:	e8bd 4010 	ldmia.w	sp!, {r4, lr}
 8000d3a:	f44f 4100 	mov.w	r1, #32768	@ 0x8000
 8000d3e:	480a      	ldr	r0, [pc, #40]	@ (8000d68 <Modbus_OnRegisterWrite+0xd8>)
 8000d40:	f001 bbd0 	b.w	80024e4 <HAL_GPIO_WritePin>
 8000d44:	bd10      	pop	{r4, pc}
 8000d46:	bf00      	nop
 8000d48:	200002a0 	.word	0x200002a0
 8000d4c:	08008c88 	.word	0x08008c88
 8000d50:	080091c6 	.word	0x080091c6
 8000d54:	08008cae 	.word	0x08008cae
 8000d58:	08008cd0 	.word	0x08008cd0
 8000d5c:	08008cef 	.word	0x08008cef
 8000d60:	2000028d 	.word	0x2000028d
 8000d64:	08008d11 	.word	0x08008d11
 8000d68:	40011000 	.word	0x40011000

08000d6c <StartDockTask>:
 8000d6c:	b570      	push	{r4, r5, r6, lr}
 8000d6e:	480e      	ldr	r0, [pc, #56]	@ (8000da8 <StartDockTask+0x3c>)
 8000d70:	f7ff fea6 	bl	8000ac0 <DebugPrint>
 8000d74:	4d0d      	ldr	r5, [pc, #52]	@ (8000dac <StartDockTask+0x40>)
 8000d76:	4e0e      	ldr	r6, [pc, #56]	@ (8000db0 <StartDockTask+0x44>)
 8000d78:	2180      	movs	r1, #128	@ 0x80
 8000d7a:	4628      	mov	r0, r5
 8000d7c:	f001 fbac 	bl	80024d8 <HAL_GPIO_ReadPin>
 8000d80:	4604      	mov	r4, r0
 8000d82:	2140      	movs	r1, #64	@ 0x40
 8000d84:	4628      	mov	r0, r5
 8000d86:	f001 fba7 	bl	80024d8 <HAL_GPIO_ReadPin>
 8000d8a:	2c01      	cmp	r4, #1
 8000d8c:	d107      	bne.n	8000d9e <StartDockTask+0x32>
 8000d8e:	3801      	subs	r0, #1
 8000d90:	bf18      	it	ne
 8000d92:	2001      	movne	r0, #1
 8000d94:	7030      	strb	r0, [r6, #0]
 8000d96:	20c8      	movs	r0, #200	@ 0xc8
 8000d98:	f002 ff2c 	bl	8003bf4 <osDelay>
 8000d9c:	e7ec      	b.n	8000d78 <StartDockTask+0xc>
 8000d9e:	2801      	cmp	r0, #1
 8000da0:	bf18      	it	ne
 8000da2:	2002      	movne	r0, #2
 8000da4:	e7f6      	b.n	8000d94 <StartDockTask+0x28>
 8000da6:	bf00      	nop
 8000da8:	08008d27 	.word	0x08008d27
 8000dac:	40010800 	.word	0x40010800
 8000db0:	2000028f 	.word	0x2000028f

08000db4 <StartDefaultTask>:
 8000db4:	e92d 43f8 	stmdb	sp!, {r3, r4, r5, r6, r7, r8, r9, lr}
 8000db8:	4e32      	ldr	r6, [pc, #200]	@ (8000e84 <StartDefaultTask+0xd0>)
 8000dba:	4833      	ldr	r0, [pc, #204]	@ (8000e88 <StartDefaultTask+0xd4>)
 8000dbc:	f7ff fe80 	bl	8000ac0 <DebugPrint>
 8000dc0:	2101      	movs	r1, #1
 8000dc2:	6830      	ldr	r0, [r6, #0]
 8000dc4:	f002 ff33 	bl	8003c2e <osEventFlagsSet>
 8000dc8:	2500      	movs	r5, #0
 8000dca:	4c30      	ldr	r4, [pc, #192]	@ (8000e8c <StartDefaultTask+0xd8>)
 8000dcc:	4f30      	ldr	r7, [pc, #192]	@ (8000e90 <StartDefaultTask+0xdc>)
 8000dce:	f8df 80c4 	ldr.w	r8, [pc, #196]	@ 8000e94 <StartDefaultTask+0xe0>
 8000dd2:	f44f 737a 	mov.w	r3, #1000	@ 0x3e8
 8000dd6:	2200      	movs	r2, #0
 8000dd8:	2108      	movs	r1, #8
 8000dda:	6830      	ldr	r0, [r6, #0]
 8000ddc:	f002 ff6e 	bl	8003cbc <osEventFlagsWait>
 8000de0:	1c83      	adds	r3, r0, #2
 8000de2:	d02f      	beq.n	8000e44 <StartDefaultTask+0x90>
 8000de4:	0701      	lsls	r1, r0, #28
 8000de6:	d52d      	bpl.n	8000e44 <StartDefaultTask+0x90>
 8000de8:	f001 f940 	bl	800206c <HAL_GetTick>
 8000dec:	f242 730f 	movw	r3, #9999	@ 0x270f
 8000df0:	1b40      	subs	r0, r0, r5
 8000df2:	4298      	cmp	r0, r3
 8000df4:	d808      	bhi.n	8000e08 <StartDefaultTask+0x54>
 8000df6:	2108      	movs	r1, #8
 8000df8:	6830      	ldr	r0, [r6, #0]
 8000dfa:	f002 ff41 	bl	8003c80 <osEventFlagsClear>
 8000dfe:	f44f 707a 	mov.w	r0, #1000	@ 0x3e8
 8000e02:	f002 fef7 	bl	8003bf4 <osDelay>
 8000e06:	e7e4      	b.n	8000dd2 <StartDefaultTask+0x1e>
 8000e08:	4823      	ldr	r0, [pc, #140]	@ (8000e98 <StartDefaultTask+0xe4>)
 8000e0a:	f7ff fe59 	bl	8000ac0 <DebugPrint>
 8000e0e:	f001 f92d 	bl	800206c <HAL_GetTick>
 8000e12:	2108      	movs	r1, #8
 8000e14:	4605      	mov	r5, r0
 8000e16:	6830      	ldr	r0, [r6, #0]
 8000e18:	f002 ff32 	bl	8003c80 <osEventFlagsClear>
 8000e1c:	7823      	ldrb	r3, [r4, #0]
 8000e1e:	07da      	lsls	r2, r3, #31
 8000e20:	d506      	bpl.n	8000e30 <StartDefaultTask+0x7c>
 8000e22:	481e      	ldr	r0, [pc, #120]	@ (8000e9c <StartDefaultTask+0xe8>)
 8000e24:	f7ff fe4c 	bl	8000ac0 <DebugPrint>
 8000e28:	7823      	ldrb	r3, [r4, #0]
 8000e2a:	f003 03fe 	and.w	r3, r3, #254	@ 0xfe
 8000e2e:	7023      	strb	r3, [r4, #0]
 8000e30:	7823      	ldrb	r3, [r4, #0]
 8000e32:	079b      	lsls	r3, r3, #30
 8000e34:	d506      	bpl.n	8000e44 <StartDefaultTask+0x90>
 8000e36:	481a      	ldr	r0, [pc, #104]	@ (8000ea0 <StartDefaultTask+0xec>)
 8000e38:	f7ff fe42 	bl	8000ac0 <DebugPrint>
 8000e3c:	7823      	ldrb	r3, [r4, #0]
 8000e3e:	f003 03fd 	and.w	r3, r3, #253	@ 0xfd
 8000e42:	7023      	strb	r3, [r4, #0]
 8000e44:	7823      	ldrb	r3, [r4, #0]
 8000e46:	f003 09ff 	and.w	r9, r3, #255	@ 0xff
 8000e4a:	b19b      	cbz	r3, 8000e74 <StartDefaultTask+0xc0>
 8000e4c:	2201      	movs	r2, #1
 8000e4e:	f44f 4100 	mov.w	r1, #32768	@ 0x8000
 8000e52:	4638      	mov	r0, r7
 8000e54:	f001 fb46 	bl	80024e4 <HAL_GPIO_WritePin>
 8000e58:	2201      	movs	r2, #1
 8000e5a:	f44f 7180 	mov.w	r1, #256	@ 0x100
 8000e5e:	4640      	mov	r0, r8
 8000e60:	f001 fb40 	bl	80024e4 <HAL_GPIO_WritePin>
 8000e64:	4638      	mov	r0, r7
 8000e66:	f44f 5100 	mov.w	r1, #8192	@ 0x2000
 8000e6a:	f001 fb40 	bl	80024ee <HAL_GPIO_TogglePin>
 8000e6e:	f44f 70fa 	mov.w	r0, #500	@ 0x1f4
 8000e72:	e7c6      	b.n	8000e02 <StartDefaultTask+0x4e>
 8000e74:	464a      	mov	r2, r9
 8000e76:	f44f 4100 	mov.w	r1, #32768	@ 0x8000
 8000e7a:	4638      	mov	r0, r7
 8000e7c:	f001 fb32 	bl	80024e4 <HAL_GPIO_WritePin>
 8000e80:	464a      	mov	r2, r9
 8000e82:	e7ea      	b.n	8000e5a <StartDefaultTask+0xa6>
 8000e84:	20000200 	.word	0x20000200
 8000e88:	08008d47 	.word	0x08008d47
 8000e8c:	2000028d 	.word	0x2000028d
 8000e90:	40011000 	.word	0x40011000
 8000e94:	40010800 	.word	0x40010800
 8000e98:	08008d6a 	.word	0x08008d6a
 8000e9c:	08008d9a 	.word	0x08008d9a
 8000ea0:	08008db5 	.word	0x08008db5

08000ea4 <StartModbusTask>:
 8000ea4:	b508      	push	{r3, lr}
 8000ea6:	4805      	ldr	r0, [pc, #20]	@ (8000ebc <StartModbusTask+0x18>)
 8000ea8:	f7ff fe0a 	bl	8000ac0 <DebugPrint>
 8000eac:	4c04      	ldr	r4, [pc, #16]	@ (8000ec0 <StartModbusTask+0x1c>)
 8000eae:	4620      	mov	r0, r4
 8000eb0:	f000 fba2 	bl	80015f8 <Modbus_Process>
 8000eb4:	2001      	movs	r0, #1
 8000eb6:	f002 fe9d 	bl	8003bf4 <osDelay>
 8000eba:	e7f8      	b.n	8000eae <StartModbusTask+0xa>
 8000ebc:	08008dd0 	.word	0x08008dd0
 8000ec0:	200002a0 	.word	0x200002a0

08000ec4 <StartNfcTask>:
 8000ec4:	e92d 47ff 	stmdb	sp!, {r0, r1, r2, r3, r4, r5, r6, r7, r8, r9, sl, lr}
 8000ec8:	4f53      	ldr	r7, [pc, #332]	@ (8001018 <StartNfcTask+0x154>)
 8000eca:	4854      	ldr	r0, [pc, #336]	@ (800101c <StartNfcTask+0x158>)
 8000ecc:	f7ff fdf8 	bl	8000ac0 <DebugPrint>
 8000ed0:	2101      	movs	r1, #1
 8000ed2:	f242 7310 	movw	r3, #10000	@ 0x2710
 8000ed6:	2200      	movs	r2, #0
 8000ed8:	6838      	ldr	r0, [r7, #0]
 8000eda:	f002 feef 	bl	8003cbc <osEventFlagsWait>
 8000ede:	f000 fe51 	bl	8001b84 <getFirmwareVersion>
 8000ee2:	4601      	mov	r1, r0
 8000ee4:	2800      	cmp	r0, #0
 8000ee6:	d071      	beq.n	8000fcc <StartNfcTask+0x108>
 8000ee8:	484d      	ldr	r0, [pc, #308]	@ (8001020 <StartNfcTask+0x15c>)
 8000eea:	f7ff fde9 	bl	8000ac0 <DebugPrint>
 8000eee:	20ff      	movs	r0, #255	@ 0xff
 8000ef0:	f000 fe5c 	bl	8001bac <setPassiveActivationRetries>
 8000ef4:	2800      	cmp	r0, #0
 8000ef6:	d06d      	beq.n	8000fd4 <StartNfcTask+0x110>
 8000ef8:	484a      	ldr	r0, [pc, #296]	@ (8001024 <StartNfcTask+0x160>)
 8000efa:	f7ff fde1 	bl	8000ac0 <DebugPrint>
 8000efe:	f000 fdf5 	bl	8001aec <SAMConfig>
 8000f02:	2800      	cmp	r0, #0
 8000f04:	d168      	bne.n	8000fd8 <StartNfcTask+0x114>
 8000f06:	4848      	ldr	r0, [pc, #288]	@ (8001028 <StartNfcTask+0x164>)
 8000f08:	f7ff fdda 	bl	8000ac0 <DebugPrint>
 8000f0c:	f8df 811c 	ldr.w	r8, [pc, #284]	@ 800102c <StartNfcTask+0x168>
 8000f10:	4e47      	ldr	r6, [pc, #284]	@ (8001030 <StartNfcTask+0x16c>)
 8000f12:	f898 1000 	ldrb.w	r1, [r8]
 8000f16:	4d47      	ldr	r5, [pc, #284]	@ (8001034 <StartNfcTask+0x170>)
 8000f18:	2900      	cmp	r1, #0
 8000f1a:	d061      	beq.n	8000fe0 <StartNfcTask+0x11c>
 8000f1c:	4b46      	ldr	r3, [pc, #280]	@ (8001038 <StartNfcTask+0x174>)
 8000f1e:	781b      	ldrb	r3, [r3, #0]
 8000f20:	0798      	lsls	r0, r3, #30
 8000f22:	d55d      	bpl.n	8000fe0 <StartNfcTask+0x11c>
 8000f24:	2164      	movs	r1, #100	@ 0x64
 8000f26:	6828      	ldr	r0, [r5, #0]
 8000f28:	f002 ff2a 	bl	8003d80 <osMutexAcquire>
 8000f2c:	4604      	mov	r4, r0
 8000f2e:	2800      	cmp	r0, #0
 8000f30:	d147      	bne.n	8000fc2 <StartNfcTask+0xfe>
 8000f32:	f44f 63fa 	mov.w	r3, #2000	@ 0x7d0
 8000f36:	f10d 0207 	add.w	r2, sp, #7
 8000f3a:	a902      	add	r1, sp, #8
 8000f3c:	f88d 0007 	strb.w	r0, [sp, #7]
 8000f40:	f000 fe6c 	bl	8001c1c <readPassiveTargetID>
 8000f44:	2800      	cmp	r0, #0
 8000f46:	d034      	beq.n	8000fb2 <StartNfcTask+0xee>
 8000f48:	f89d 9007 	ldrb.w	r9, [sp, #7]
 8000f4c:	f1b9 0f00 	cmp.w	r9, #0
 8000f50:	d02f      	beq.n	8000fb2 <StartNfcTask+0xee>
 8000f52:	2301      	movs	r3, #1
 8000f54:	a802      	add	r0, sp, #8
 8000f56:	f810 2b01 	ldrb.w	r2, [r0], #1
 8000f5a:	00d9      	lsls	r1, r3, #3
 8000f5c:	3908      	subs	r1, #8
 8000f5e:	408a      	lsls	r2, r1
 8000f60:	4314      	orrs	r4, r2
 8000f62:	b2da      	uxtb	r2, r3
 8000f64:	4591      	cmp	r9, r2
 8000f66:	d902      	bls.n	8000f6e <StartNfcTask+0xaa>
 8000f68:	3301      	adds	r3, #1
 8000f6a:	2b05      	cmp	r3, #5
 8000f6c:	d1f3      	bne.n	8000f56 <StartNfcTask+0x92>
 8000f6e:	6833      	ldr	r3, [r6, #0]
 8000f70:	f8df a0c8 	ldr.w	sl, [pc, #200]	@ 800103c <StartNfcTask+0x178>
 8000f74:	42a3      	cmp	r3, r4
 8000f76:	d102      	bne.n	8000f7e <StartNfcTask+0xba>
 8000f78:	f89a 3000 	ldrb.w	r3, [sl]
 8000f7c:	b9cb      	cbnz	r3, 8000fb2 <StartNfcTask+0xee>
 8000f7e:	464a      	mov	r2, r9
 8000f80:	482f      	ldr	r0, [pc, #188]	@ (8001040 <StartNfcTask+0x17c>)
 8000f82:	a902      	add	r1, sp, #8
 8000f84:	f005 fe29 	bl	8006bda <memcpy>
 8000f88:	f1b9 0f04 	cmp.w	r9, #4
 8000f8c:	d026      	beq.n	8000fdc <StartNfcTask+0x118>
 8000f8e:	f1a9 0207 	sub.w	r2, r9, #7
 8000f92:	4253      	negs	r3, r2
 8000f94:	4153      	adcs	r3, r2
 8000f96:	005b      	lsls	r3, r3, #1
 8000f98:	4a2a      	ldr	r2, [pc, #168]	@ (8001044 <StartNfcTask+0x180>)
 8000f9a:	2102      	movs	r1, #2
 8000f9c:	f882 9000 	strb.w	r9, [r2]
 8000fa0:	2201      	movs	r2, #1
 8000fa2:	f88a 2000 	strb.w	r2, [sl]
 8000fa6:	4a28      	ldr	r2, [pc, #160]	@ (8001048 <StartNfcTask+0x184>)
 8000fa8:	6838      	ldr	r0, [r7, #0]
 8000faa:	6034      	str	r4, [r6, #0]
 8000fac:	7013      	strb	r3, [r2, #0]
 8000fae:	f002 fe3e 	bl	8003c2e <osEventFlagsSet>
 8000fb2:	4a26      	ldr	r2, [pc, #152]	@ (800104c <StartNfcTask+0x188>)
 8000fb4:	7813      	ldrb	r3, [r2, #0]
 8000fb6:	f003 03fd 	and.w	r3, r3, #253	@ 0xfd
 8000fba:	7013      	strb	r3, [r2, #0]
 8000fbc:	6828      	ldr	r0, [r5, #0]
 8000fbe:	f002 ff02 	bl	8003dc6 <osMutexRelease>
 8000fc2:	f44f 70fa 	mov.w	r0, #500	@ 0x1f4
 8000fc6:	f002 fe15 	bl	8003bf4 <osDelay>
 8000fca:	e7a2      	b.n	8000f12 <StartNfcTask+0x4e>
 8000fcc:	4820      	ldr	r0, [pc, #128]	@ (8001050 <StartNfcTask+0x18c>)
 8000fce:	f7ff fd77 	bl	8000ac0 <DebugPrint>
 8000fd2:	e78c      	b.n	8000eee <StartNfcTask+0x2a>
 8000fd4:	481f      	ldr	r0, [pc, #124]	@ (8001054 <StartNfcTask+0x190>)
 8000fd6:	e790      	b.n	8000efa <StartNfcTask+0x36>
 8000fd8:	481f      	ldr	r0, [pc, #124]	@ (8001058 <StartNfcTask+0x194>)
 8000fda:	e795      	b.n	8000f08 <StartNfcTask+0x44>
 8000fdc:	2301      	movs	r3, #1
 8000fde:	e7db      	b.n	8000f98 <StartNfcTask+0xd4>
 8000fe0:	4c1e      	ldr	r4, [pc, #120]	@ (800105c <StartNfcTask+0x198>)
 8000fe2:	6823      	ldr	r3, [r4, #0]
 8000fe4:	3301      	adds	r3, #1
 8000fe6:	2b31      	cmp	r3, #49	@ 0x31
 8000fe8:	6023      	str	r3, [r4, #0]
 8000fea:	d906      	bls.n	8000ffa <StartNfcTask+0x136>
 8000fec:	4b12      	ldr	r3, [pc, #72]	@ (8001038 <StartNfcTask+0x174>)
 8000fee:	481c      	ldr	r0, [pc, #112]	@ (8001060 <StartNfcTask+0x19c>)
 8000ff0:	781a      	ldrb	r2, [r3, #0]
 8000ff2:	f7ff fd65 	bl	8000ac0 <DebugPrint>
 8000ff6:	2300      	movs	r3, #0
 8000ff8:	6023      	str	r3, [r4, #0]
 8000ffa:	210a      	movs	r1, #10
 8000ffc:	6828      	ldr	r0, [r5, #0]
 8000ffe:	f002 febf 	bl	8003d80 <osMutexAcquire>
 8001002:	2800      	cmp	r0, #0
 8001004:	d1dd      	bne.n	8000fc2 <StartNfcTask+0xfe>
 8001006:	4b0d      	ldr	r3, [pc, #52]	@ (800103c <StartNfcTask+0x178>)
 8001008:	6030      	str	r0, [r6, #0]
 800100a:	7018      	strb	r0, [r3, #0]
 800100c:	4b0d      	ldr	r3, [pc, #52]	@ (8001044 <StartNfcTask+0x180>)
 800100e:	7018      	strb	r0, [r3, #0]
 8001010:	4b0d      	ldr	r3, [pc, #52]	@ (8001048 <StartNfcTask+0x184>)
 8001012:	7018      	strb	r0, [r3, #0]
 8001014:	e7d2      	b.n	8000fbc <StartNfcTask+0xf8>
 8001016:	bf00      	nop
 8001018:	20000200 	.word	0x20000200
 800101c:	08008df2 	.word	0x08008df2
 8001020:	08008e12 	.word	0x08008e12
 8001024:	08008e50 	.word	0x08008e50
 8001028:	08008e99 	.word	0x08008e99
 800102c:	2000028c 	.word	0x2000028c
 8001030:	20000290 	.word	0x20000290
 8001034:	20000208 	.word	0x20000208
 8001038:	2000028e 	.word	0x2000028e
 800103c:	20000294 	.word	0x20000294
 8001040:	20000297 	.word	0x20000297
 8001044:	20000296 	.word	0x20000296
 8001048:	20000295 	.word	0x20000295
 800104c:	2000028d 	.word	0x2000028d
 8001050:	08008e2f 	.word	0x08008e2f
 8001054:	08008e73 	.word	0x08008e73
 8001058:	08008eb2 	.word	0x08008eb2
 800105c:	200001fc 	.word	0x200001fc
 8001060:	08008ecf 	.word	0x08008ecf

08001064 <SystemClock_Config>:
 8001064:	2220      	movs	r2, #32
 8001066:	b510      	push	{r4, lr}
 8001068:	b090      	sub	sp, #64	@ 0x40
 800106a:	2100      	movs	r1, #0
 800106c:	eb0d 0002 	add.w	r0, sp, r2
 8001070:	f005 fd26 	bl	8006ac0 <memset>
 8001074:	2100      	movs	r1, #0
 8001076:	2214      	movs	r2, #20
 8001078:	a801      	add	r0, sp, #4
 800107a:	f005 fd21 	bl	8006ac0 <memset>
 800107e:	2402      	movs	r4, #2
 8001080:	2201      	movs	r2, #1
 8001082:	f44f 3380 	mov.w	r3, #65536	@ 0x10000
 8001086:	a806      	add	r0, sp, #24
 8001088:	e9cd 2306 	strd	r2, r3, [sp, #24]
 800108c:	e9cd 430d 	strd	r4, r3, [sp, #52]	@ 0x34
 8001090:	920a      	str	r2, [sp, #40]	@ 0x28
 8001092:	f001 fe85 	bl	8002da0 <HAL_RCC_OscConfig>
 8001096:	4601      	mov	r1, r0
 8001098:	b108      	cbz	r0, 800109e <SystemClock_Config+0x3a>
 800109a:	b672      	cpsid	i
 800109c:	e7fe      	b.n	800109c <SystemClock_Config+0x38>
 800109e:	230f      	movs	r3, #15
 80010a0:	e9cd 0003 	strd	r0, r0, [sp, #12]
 80010a4:	9005      	str	r0, [sp, #20]
 80010a6:	a801      	add	r0, sp, #4
 80010a8:	e9cd 3401 	strd	r3, r4, [sp, #4]
 80010ac:	f002 f83a 	bl	8003124 <HAL_RCC_ClockConfig>
 80010b0:	b108      	cbz	r0, 80010b6 <SystemClock_Config+0x52>
 80010b2:	b672      	cpsid	i
 80010b4:	e7fe      	b.n	80010b4 <SystemClock_Config+0x50>
 80010b6:	b010      	add	sp, #64	@ 0x40
 80010b8:	bd10      	pop	{r4, pc}
	...

080010bc <SystemInit_Modules>:
 80010bc:	b5f8      	push	{r3, r4, r5, r6, r7, lr}
 80010be:	4d1d      	ldr	r5, [pc, #116]	@ (8001134 <SystemInit_Modules+0x78>)
 80010c0:	4b1d      	ldr	r3, [pc, #116]	@ (8001138 <SystemInit_Modules+0x7c>)
 80010c2:	2400      	movs	r4, #0
 80010c4:	602b      	str	r3, [r5, #0]
 80010c6:	2348      	movs	r3, #72	@ 0x48
 80010c8:	2064      	movs	r0, #100	@ 0x64
 80010ca:	4f1c      	ldr	r7, [pc, #112]	@ (800113c <SystemInit_Modules+0x80>)
 80010cc:	4e1c      	ldr	r6, [pc, #112]	@ (8001140 <SystemInit_Modules+0x84>)
 80010ce:	712b      	strb	r3, [r5, #4]
 80010d0:	4b1c      	ldr	r3, [pc, #112]	@ (8001144 <SystemInit_Modules+0x88>)
 80010d2:	703c      	strb	r4, [r7, #0]
 80010d4:	60ac      	str	r4, [r5, #8]
 80010d6:	7034      	strb	r4, [r6, #0]
 80010d8:	81ac      	strh	r4, [r5, #12]
 80010da:	612b      	str	r3, [r5, #16]
 80010dc:	f000 ffcc 	bl	8002078 <HAL_Delay>
 80010e0:	3401      	adds	r4, #1
 80010e2:	4628      	mov	r0, r5
 80010e4:	f000 fd36 	bl	8001b54 <PN532_Init>
 80010e8:	2c03      	cmp	r4, #3
 80010ea:	d003      	beq.n	80010f4 <SystemInit_Modules+0x38>
 80010ec:	b118      	cbz	r0, 80010f6 <SystemInit_Modules+0x3a>
 80010ee:	f44f 70fa 	mov.w	r0, #500	@ 0x1f4
 80010f2:	e7f3      	b.n	80010dc <SystemInit_Modules+0x20>
 80010f4:	b968      	cbnz	r0, 8001112 <SystemInit_Modules+0x56>
 80010f6:	783b      	ldrb	r3, [r7, #0]
 80010f8:	f043 0302 	orr.w	r3, r3, #2
 80010fc:	703b      	strb	r3, [r7, #0]
 80010fe:	2201      	movs	r2, #1
 8001100:	4b11      	ldr	r3, [pc, #68]	@ (8001148 <SystemInit_Modules+0x8c>)
 8001102:	7839      	ldrb	r1, [r7, #0]
 8001104:	701a      	strb	r2, [r3, #0]
 8001106:	4811      	ldr	r0, [pc, #68]	@ (800114c <SystemInit_Modules+0x90>)
 8001108:	7832      	ldrb	r2, [r6, #0]
 800110a:	e8bd 40f8 	ldmia.w	sp!, {r3, r4, r5, r6, r7, lr}
 800110e:	f7ff bcd7 	b.w	8000ac0 <DebugPrint>
 8001112:	7833      	ldrb	r3, [r6, #0]
 8001114:	2201      	movs	r2, #1
 8001116:	f043 0302 	orr.w	r3, r3, #2
 800111a:	f44f 4100 	mov.w	r1, #32768	@ 0x8000
 800111e:	480c      	ldr	r0, [pc, #48]	@ (8001150 <SystemInit_Modules+0x94>)
 8001120:	7033      	strb	r3, [r6, #0]
 8001122:	f001 f9df 	bl	80024e4 <HAL_GPIO_WritePin>
 8001126:	2201      	movs	r2, #1
 8001128:	f44f 7180 	mov.w	r1, #256	@ 0x100
 800112c:	4809      	ldr	r0, [pc, #36]	@ (8001154 <SystemInit_Modules+0x98>)
 800112e:	f001 f9d9 	bl	80024e4 <HAL_GPIO_WritePin>
 8001132:	e7e4      	b.n	80010fe <SystemInit_Modules+0x42>
 8001134:	20000724 	.word	0x20000724
 8001138:	20000820 	.word	0x20000820
 800113c:	2000028e 	.word	0x2000028e
 8001140:	2000028d 	.word	0x2000028d
 8001144:	08000ac1 	.word	0x08000ac1
 8001148:	2000028c 	.word	0x2000028c
 800114c:	08008f16 	.word	0x08008f16
 8001150:	40011000 	.word	0x40011000
 8001154:	40010800 	.word	0x40010800

08001158 <main>:
 8001158:	b580      	push	{r7, lr}
 800115a:	b08a      	sub	sp, #40	@ 0x28
 800115c:	f000 ff68 	bl	8002030 <HAL_Init>
 8001160:	f7ff ff80 	bl	8001064 <SystemClock_Config>
 8001164:	2210      	movs	r2, #16
 8001166:	2100      	movs	r1, #0
 8001168:	a806      	add	r0, sp, #24
 800116a:	f005 fca9 	bl	8006ac0 <memset>
 800116e:	4b92      	ldr	r3, [pc, #584]	@ (80013b8 <main+0x260>)
 8001170:	f44f 4160 	mov.w	r1, #57344	@ 0xe000
 8001174:	699a      	ldr	r2, [r3, #24]
 8001176:	4891      	ldr	r0, [pc, #580]	@ (80013bc <main+0x264>)
 8001178:	f042 0210 	orr.w	r2, r2, #16
 800117c:	619a      	str	r2, [r3, #24]
 800117e:	699a      	ldr	r2, [r3, #24]
 8001180:	2400      	movs	r4, #0
 8001182:	f002 0210 	and.w	r2, r2, #16
 8001186:	9200      	str	r2, [sp, #0]
 8001188:	9a00      	ldr	r2, [sp, #0]
 800118a:	699a      	ldr	r2, [r3, #24]
 800118c:	2502      	movs	r5, #2
 800118e:	f042 0220 	orr.w	r2, r2, #32
 8001192:	619a      	str	r2, [r3, #24]
 8001194:	699a      	ldr	r2, [r3, #24]
 8001196:	2701      	movs	r7, #1
 8001198:	f002 0220 	and.w	r2, r2, #32
 800119c:	9201      	str	r2, [sp, #4]
 800119e:	9a01      	ldr	r2, [sp, #4]
 80011a0:	699a      	ldr	r2, [r3, #24]
 80011a2:	f44f 7880 	mov.w	r8, #256	@ 0x100
 80011a6:	f042 0204 	orr.w	r2, r2, #4
 80011aa:	619a      	str	r2, [r3, #24]
 80011ac:	699a      	ldr	r2, [r3, #24]
 80011ae:	f44f 36e1 	mov.w	r6, #115200	@ 0x1c200
 80011b2:	f002 0204 	and.w	r2, r2, #4
 80011b6:	9202      	str	r2, [sp, #8]
 80011b8:	9a02      	ldr	r2, [sp, #8]
 80011ba:	699a      	ldr	r2, [r3, #24]
 80011bc:	f042 0208 	orr.w	r2, r2, #8
 80011c0:	619a      	str	r2, [r3, #24]
 80011c2:	699b      	ldr	r3, [r3, #24]
 80011c4:	2200      	movs	r2, #0
 80011c6:	f003 0308 	and.w	r3, r3, #8
 80011ca:	9303      	str	r3, [sp, #12]
 80011cc:	9b03      	ldr	r3, [sp, #12]
 80011ce:	f001 f989 	bl	80024e4 <HAL_GPIO_WritePin>
 80011d2:	2200      	movs	r2, #0
 80011d4:	f44f 7180 	mov.w	r1, #256	@ 0x100
 80011d8:	4879      	ldr	r0, [pc, #484]	@ (80013c0 <main+0x268>)
 80011da:	f001 f983 	bl	80024e4 <HAL_GPIO_WritePin>
 80011de:	f44f 4360 	mov.w	r3, #57344	@ 0xe000
 80011e2:	4876      	ldr	r0, [pc, #472]	@ (80013bc <main+0x264>)
 80011e4:	a906      	add	r1, sp, #24
 80011e6:	e9cd 3706 	strd	r3, r7, [sp, #24]
 80011ea:	e9cd 4508 	strd	r4, r5, [sp, #32]
 80011ee:	f001 f831 	bl	8002254 <HAL_GPIO_Init>
 80011f2:	23f0      	movs	r3, #240	@ 0xf0
 80011f4:	4872      	ldr	r0, [pc, #456]	@ (80013c0 <main+0x268>)
 80011f6:	a906      	add	r1, sp, #24
 80011f8:	e9cd 3406 	strd	r3, r4, [sp, #24]
 80011fc:	9508      	str	r5, [sp, #32]
 80011fe:	f001 f829 	bl	8002254 <HAL_GPIO_Init>
 8001202:	e9cd 4508 	strd	r4, r5, [sp, #32]
 8001206:	250c      	movs	r5, #12
 8001208:	486d      	ldr	r0, [pc, #436]	@ (80013c0 <main+0x268>)
 800120a:	a906      	add	r1, sp, #24
 800120c:	e9cd 8706 	strd	r8, r7, [sp, #24]
 8001210:	f001 f820 	bl	8002254 <HAL_GPIO_Init>
 8001214:	f7ff fc38 	bl	8000a88 <MX_I2C1_Init>
 8001218:	486a      	ldr	r0, [pc, #424]	@ (80013c4 <main+0x26c>)
 800121a:	4b6b      	ldr	r3, [pc, #428]	@ (80013c8 <main+0x270>)
 800121c:	e9c0 4402 	strd	r4, r4, [r0, #8]
 8001220:	e9c0 3600 	strd	r3, r6, [r0]
 8001224:	e9c0 5405 	strd	r5, r4, [r0, #20]
 8001228:	6104      	str	r4, [r0, #16]
 800122a:	61c4      	str	r4, [r0, #28]
 800122c:	f002 fa00 	bl	8003630 <HAL_UART_Init>
 8001230:	b108      	cbz	r0, 8001236 <main+0xde>
 8001232:	b672      	cpsid	i
 8001234:	e7fe      	b.n	8001234 <main+0xdc>
 8001236:	4c65      	ldr	r4, [pc, #404]	@ (80013cc <main+0x274>)
 8001238:	4b65      	ldr	r3, [pc, #404]	@ (80013d0 <main+0x278>)
 800123a:	e9c4 0002 	strd	r0, r0, [r4, #8]
 800123e:	e9c4 0504 	strd	r0, r5, [r4, #16]
 8001242:	e9c4 0006 	strd	r0, r0, [r4, #24]
 8001246:	4620      	mov	r0, r4
 8001248:	e9c4 3600 	strd	r3, r6, [r4]
 800124c:	f002 f9f0 	bl	8003630 <HAL_UART_Init>
 8001250:	4606      	mov	r6, r0
 8001252:	b108      	cbz	r0, 8001258 <main+0x100>
 8001254:	b672      	cpsid	i
 8001256:	e7fe      	b.n	8001256 <main+0xfe>
 8001258:	4601      	mov	r1, r0
 800125a:	2210      	movs	r2, #16
 800125c:	a806      	add	r0, sp, #24
 800125e:	f005 fc2f 	bl	8006ac0 <memset>
 8001262:	f04f 4380 	mov.w	r3, #1073741824	@ 0x40000000
 8001266:	4d5b      	ldr	r5, [pc, #364]	@ (80013d4 <main+0x27c>)
 8001268:	e9cd 6604 	strd	r6, r6, [sp, #16]
 800126c:	e9c5 3600 	strd	r3, r6, [r5]
 8001270:	f64f 73ff 	movw	r3, #65535	@ 0xffff
 8001274:	4628      	mov	r0, r5
 8001276:	e9c5 3603 	strd	r3, r6, [r5, #12]
 800127a:	60ae      	str	r6, [r5, #8]
 800127c:	61ae      	str	r6, [r5, #24]
 800127e:	f002 f83f 	bl	8003300 <HAL_TIM_Base_Init>
 8001282:	b108      	cbz	r0, 8001288 <main+0x130>
 8001284:	b672      	cpsid	i
 8001286:	e7fe      	b.n	8001286 <main+0x12e>
 8001288:	f44f 5380 	mov.w	r3, #4096	@ 0x1000
 800128c:	4628      	mov	r0, r5
 800128e:	a906      	add	r1, sp, #24
 8001290:	9306      	str	r3, [sp, #24]
 8001292:	f002 f86b 	bl	800336c <HAL_TIM_ConfigClockSource>
 8001296:	b108      	cbz	r0, 800129c <main+0x144>
 8001298:	b672      	cpsid	i
 800129a:	e7fe      	b.n	800129a <main+0x142>
 800129c:	e9cd 0004 	strd	r0, r0, [sp, #16]
 80012a0:	a904      	add	r1, sp, #16
 80012a2:	4628      	mov	r0, r5
 80012a4:	f002 f8fc 	bl	80034a0 <HAL_TIMEx_MasterConfigSynchronization>
 80012a8:	b108      	cbz	r0, 80012ae <main+0x156>
 80012aa:	b672      	cpsid	i
 80012ac:	e7fe      	b.n	80012ac <main+0x154>
 80012ae:	f44f 707a 	mov.w	r0, #1000	@ 0x3e8
 80012b2:	f000 fee1 	bl	8002078 <HAL_Delay>
 80012b6:	f7ff ff01 	bl	80010bc <SystemInit_Modules>
 80012ba:	4621      	mov	r1, r4
 80012bc:	2304      	movs	r3, #4
 80012be:	462a      	mov	r2, r5
 80012c0:	4845      	ldr	r0, [pc, #276]	@ (80013d8 <main+0x280>)
 80012c2:	f000 f8bd 	bl	8001440 <Modbus_Init>
 80012c6:	4604      	mov	r4, r0
 80012c8:	2800      	cmp	r0, #0
 80012ca:	d171      	bne.n	80013b0 <main+0x258>
 80012cc:	4843      	ldr	r0, [pc, #268]	@ (80013dc <main+0x284>)
 80012ce:	f7ff fbf7 	bl	8000ac0 <DebugPrint>
 80012d2:	2104      	movs	r1, #4
 80012d4:	4842      	ldr	r0, [pc, #264]	@ (80013e0 <main+0x288>)
 80012d6:	f7ff fbf3 	bl	8000ac0 <DebugPrint>
 80012da:	4842      	ldr	r0, [pc, #264]	@ (80013e4 <main+0x28c>)
 80012dc:	f7ff fbf0 	bl	8000ac0 <DebugPrint>
 80012e0:	4841      	ldr	r0, [pc, #260]	@ (80013e8 <main+0x290>)
 80012e2:	f7ff fbed 	bl	8000ac0 <DebugPrint>
 80012e6:	4941      	ldr	r1, [pc, #260]	@ (80013ec <main+0x294>)
 80012e8:	483b      	ldr	r0, [pc, #236]	@ (80013d8 <main+0x280>)
 80012ea:	f000 fb3c 	bl	8001966 <Modbus_RegisterReadCallback>
 80012ee:	4940      	ldr	r1, [pc, #256]	@ (80013f0 <main+0x298>)
 80012f0:	4839      	ldr	r0, [pc, #228]	@ (80013d8 <main+0x280>)
 80012f2:	f000 fb3c 	bl	800196e <Modbus_RegisterWriteCallback>
 80012f6:	2204      	movs	r2, #4
 80012f8:	4641      	mov	r1, r8
 80012fa:	4837      	ldr	r0, [pc, #220]	@ (80013d8 <main+0x280>)
 80012fc:	f000 fb28 	bl	8001950 <Modbus_WriteRegister>
 8001300:	2204      	movs	r2, #4
 8001302:	f44f 7182 	mov.w	r1, #260	@ 0x104
 8001306:	4834      	ldr	r0, [pc, #208]	@ (80013d8 <main+0x280>)
 8001308:	f000 fb22 	bl	8001950 <Modbus_WriteRegister>
 800130c:	f240 1201 	movw	r2, #257	@ 0x101
 8001310:	f240 1105 	movw	r1, #261	@ 0x105
 8001314:	4830      	ldr	r0, [pc, #192]	@ (80013d8 <main+0x280>)
 8001316:	f000 fb1b 	bl	8001950 <Modbus_WriteRegister>
 800131a:	f240 1201 	movw	r2, #257	@ 0x101
 800131e:	f44f 7183 	mov.w	r1, #262	@ 0x106
 8001322:	482d      	ldr	r0, [pc, #180]	@ (80013d8 <main+0x280>)
 8001324:	f000 fb14 	bl	8001950 <Modbus_WriteRegister>
 8001328:	2205      	movs	r2, #5
 800132a:	f240 1101 	movw	r1, #257	@ 0x101
 800132e:	482a      	ldr	r0, [pc, #168]	@ (80013d8 <main+0x280>)
 8001330:	f000 fb0e 	bl	8001950 <Modbus_WriteRegister>
 8001334:	4622      	mov	r2, r4
 8001336:	f44f 7181 	mov.w	r1, #258	@ 0x102
 800133a:	4827      	ldr	r0, [pc, #156]	@ (80013d8 <main+0x280>)
 800133c:	f000 fb08 	bl	8001950 <Modbus_WriteRegister>
 8001340:	463a      	mov	r2, r7
 8001342:	f240 1103 	movw	r1, #259	@ 0x103
 8001346:	4824      	ldr	r0, [pc, #144]	@ (80013d8 <main+0x280>)
 8001348:	f000 fb02 	bl	8001950 <Modbus_WriteRegister>
 800134c:	f002 fbe2 	bl	8003b14 <osKernelInitialize>
 8001350:	4828      	ldr	r0, [pc, #160]	@ (80013f4 <main+0x29c>)
 8001352:	f002 fcdd 	bl	8003d10 <osMutexNew>
 8001356:	4b28      	ldr	r3, [pc, #160]	@ (80013f8 <main+0x2a0>)
 8001358:	2100      	movs	r1, #0
 800135a:	6018      	str	r0, [r3, #0]
 800135c:	4a27      	ldr	r2, [pc, #156]	@ (80013fc <main+0x2a4>)
 800135e:	2001      	movs	r0, #1
 8001360:	f002 fd50 	bl	8003e04 <osSemaphoreNew>
 8001364:	4b26      	ldr	r3, [pc, #152]	@ (8001400 <main+0x2a8>)
 8001366:	2100      	movs	r1, #0
 8001368:	6018      	str	r0, [r3, #0]
 800136a:	4a26      	ldr	r2, [pc, #152]	@ (8001404 <main+0x2ac>)
 800136c:	4826      	ldr	r0, [pc, #152]	@ (8001408 <main+0x2b0>)
 800136e:	f002 fbfd 	bl	8003b6c <osThreadNew>
 8001372:	4b26      	ldr	r3, [pc, #152]	@ (800140c <main+0x2b4>)
 8001374:	2100      	movs	r1, #0
 8001376:	6018      	str	r0, [r3, #0]
 8001378:	4a25      	ldr	r2, [pc, #148]	@ (8001410 <main+0x2b8>)
 800137a:	4826      	ldr	r0, [pc, #152]	@ (8001414 <main+0x2bc>)
 800137c:	f002 fbf6 	bl	8003b6c <osThreadNew>
 8001380:	4b25      	ldr	r3, [pc, #148]	@ (8001418 <main+0x2c0>)
 8001382:	2100      	movs	r1, #0
 8001384:	6018      	str	r0, [r3, #0]
 8001386:	4a25      	ldr	r2, [pc, #148]	@ (800141c <main+0x2c4>)
 8001388:	4825      	ldr	r0, [pc, #148]	@ (8001420 <main+0x2c8>)
 800138a:	f002 fbef 	bl	8003b6c <osThreadNew>
 800138e:	4b25      	ldr	r3, [pc, #148]	@ (8001424 <main+0x2cc>)
 8001390:	2100      	movs	r1, #0
 8001392:	6018      	str	r0, [r3, #0]
 8001394:	4a24      	ldr	r2, [pc, #144]	@ (8001428 <main+0x2d0>)
 8001396:	4825      	ldr	r0, [pc, #148]	@ (800142c <main+0x2d4>)
 8001398:	f002 fbe8 	bl	8003b6c <osThreadNew>
 800139c:	4b24      	ldr	r3, [pc, #144]	@ (8001430 <main+0x2d8>)
 800139e:	6018      	str	r0, [r3, #0]
 80013a0:	4824      	ldr	r0, [pc, #144]	@ (8001434 <main+0x2dc>)
 80013a2:	f002 fc33 	bl	8003c0c <osEventFlagsNew>
 80013a6:	4b24      	ldr	r3, [pc, #144]	@ (8001438 <main+0x2e0>)
 80013a8:	6018      	str	r0, [r3, #0]
 80013aa:	f002 fbc5 	bl	8003b38 <osKernelStart>
 80013ae:	e7fe      	b.n	80013ae <main+0x256>
 80013b0:	4822      	ldr	r0, [pc, #136]	@ (800143c <main+0x2e4>)
 80013b2:	f7ff fb85 	bl	8000ac0 <DebugPrint>
 80013b6:	e7c9      	b.n	800134c <main+0x1f4>
 80013b8:	40021000 	.word	0x40021000
 80013bc:	40011000 	.word	0x40011000
 80013c0:	40010800 	.word	0x40010800
 80013c4:	20000790 	.word	0x20000790
 80013c8:	40013800 	.word	0x40013800
 80013cc:	20000748 	.word	0x20000748
 80013d0:	40004400 	.word	0x40004400
 80013d4:	200007d8 	.word	0x200007d8
 80013d8:	200002a0 	.word	0x200002a0
 80013dc:	08008f44 	.word	0x08008f44
 80013e0:	08008f70 	.word	0x08008f70
 80013e4:	08008f86 	.word	0x08008f86
 80013e8:	08008f9b 	.word	0x08008f9b
 80013ec:	08000afd 	.word	0x08000afd
 80013f0:	08000c91 	.word	0x08000c91
 80013f4:	080091f0 	.word	0x080091f0
 80013f8:	20000208 	.word	0x20000208
 80013fc:	080091e0 	.word	0x080091e0
 8001400:	20000204 	.word	0x20000204
 8001404:	0800926c 	.word	0x0800926c
 8001408:	08000db5 	.word	0x08000db5
 800140c:	20000744 	.word	0x20000744
 8001410:	08009248 	.word	0x08009248
 8001414:	08000ea5 	.word	0x08000ea5
 8001418:	20000740 	.word	0x20000740
 800141c:	08009224 	.word	0x08009224
 8001420:	08000ec5 	.word	0x08000ec5
 8001424:	2000073c 	.word	0x2000073c
 8001428:	08009200 	.word	0x08009200
 800142c:	08000d6d 	.word	0x08000d6d
 8001430:	20000738 	.word	0x20000738
 8001434:	080091d0 	.word	0x080091d0
 8001438:	20000200 	.word	0x20000200
 800143c:	08008fb9 	.word	0x08008fb9

08001440 <Modbus_Init>:
 8001440:	b5f8      	push	{r3, r4, r5, r6, r7, lr}
 8001442:	460d      	mov	r5, r1
 8001444:	4617      	mov	r7, r2
 8001446:	461e      	mov	r6, r3
 8001448:	4604      	mov	r4, r0
 800144a:	b310      	cbz	r0, 8001492 <Modbus_Init+0x52>
 800144c:	b309      	cbz	r1, 8001492 <Modbus_Init+0x52>
 800144e:	b302      	cbz	r2, 8001492 <Modbus_Init+0x52>
 8001450:	3b01      	subs	r3, #1
 8001452:	b2db      	uxtb	r3, r3
 8001454:	2bf6      	cmp	r3, #246	@ 0xf6
 8001456:	d81c      	bhi.n	8001492 <Modbus_Init+0x52>
 8001458:	f240 4284 	movw	r2, #1156	@ 0x484
 800145c:	2100      	movs	r1, #0
 800145e:	f005 fb2f 	bl	8006ac0 <memset>
 8001462:	f44f 33e1 	mov.w	r3, #115200	@ 0x1c200
 8001466:	7226      	strb	r6, [r4, #8]
 8001468:	2601      	movs	r6, #1
 800146a:	f44f 7216 	mov.w	r2, #600	@ 0x258
 800146e:	2100      	movs	r1, #0
 8001470:	f8c4 346c 	str.w	r3, [r4, #1132]	@ 0x46c
 8001474:	e9c4 5700 	strd	r5, r7, [r4]
 8001478:	f884 6471 	strb.w	r6, [r4, #1137]	@ 0x471
 800147c:	f104 000a 	add.w	r0, r4, #10
 8001480:	f005 fb1e 	bl	8006ac0 <memset>
 8001484:	4632      	mov	r2, r6
 8001486:	4628      	mov	r0, r5
 8001488:	4903      	ldr	r1, [pc, #12]	@ (8001498 <Modbus_Init+0x58>)
 800148a:	f002 fb32 	bl	8003af2 <HAL_UART_Receive_IT>
 800148e:	2000      	movs	r0, #0
 8001490:	bdf8      	pop	{r3, r4, r5, r6, r7, pc}
 8001492:	2001      	movs	r0, #1
 8001494:	e7fc      	b.n	8001490 <Modbus_Init+0x50>
 8001496:	bf00      	nop
 8001498:	20000878 	.word	0x20000878

0800149c <Modbus_SetConfig>:
 800149c:	b538      	push	{r3, r4, r5, lr}
 800149e:	4604      	mov	r4, r0
 80014a0:	2800      	cmp	r0, #0
 80014a2:	d036      	beq.n	8001512 <Modbus_SetConfig+0x76>
 80014a4:	f8c0 146c 	str.w	r1, [r0, #1132]	@ 0x46c
 80014a8:	f880 2470 	strb.w	r2, [r0, #1136]	@ 0x470
 80014ac:	f880 3471 	strb.w	r3, [r0, #1137]	@ 0x471
 80014b0:	6800      	ldr	r0, [r0, #0]
 80014b2:	f002 f8ec 	bl	800368e <HAL_UART_DeInit>
 80014b6:	2200      	movs	r2, #0
 80014b8:	f8d4 346c 	ldr.w	r3, [r4, #1132]	@ 0x46c
 80014bc:	6820      	ldr	r0, [r4, #0]
 80014be:	6043      	str	r3, [r0, #4]
 80014c0:	6082      	str	r2, [r0, #8]
 80014c2:	f894 3471 	ldrb.w	r3, [r4, #1137]	@ 0x471
 80014c6:	1e99      	subs	r1, r3, #2
 80014c8:	424b      	negs	r3, r1
 80014ca:	414b      	adcs	r3, r1
 80014cc:	035b      	lsls	r3, r3, #13
 80014ce:	60c3      	str	r3, [r0, #12]
 80014d0:	f894 3470 	ldrb.w	r3, [r4, #1136]	@ 0x470
 80014d4:	2b01      	cmp	r3, #1
 80014d6:	d003      	beq.n	80014e0 <Modbus_SetConfig+0x44>
 80014d8:	2b02      	cmp	r3, #2
 80014da:	d017      	beq.n	800150c <Modbus_SetConfig+0x70>
 80014dc:	6102      	str	r2, [r0, #16]
 80014de:	e005      	b.n	80014ec <Modbus_SetConfig+0x50>
 80014e0:	f44f 6380 	mov.w	r3, #1024	@ 0x400
 80014e4:	6103      	str	r3, [r0, #16]
 80014e6:	f44f 5380 	mov.w	r3, #4096	@ 0x1000
 80014ea:	6083      	str	r3, [r0, #8]
 80014ec:	2300      	movs	r3, #0
 80014ee:	220c      	movs	r2, #12
 80014f0:	61c3      	str	r3, [r0, #28]
 80014f2:	e9c0 2305 	strd	r2, r3, [r0, #20]
 80014f6:	f002 f89b 	bl	8003630 <HAL_UART_Init>
 80014fa:	4605      	mov	r5, r0
 80014fc:	b920      	cbnz	r0, 8001508 <Modbus_SetConfig+0x6c>
 80014fe:	2201      	movs	r2, #1
 8001500:	4905      	ldr	r1, [pc, #20]	@ (8001518 <Modbus_SetConfig+0x7c>)
 8001502:	6820      	ldr	r0, [r4, #0]
 8001504:	f002 faf5 	bl	8003af2 <HAL_UART_Receive_IT>
 8001508:	4628      	mov	r0, r5
 800150a:	bd38      	pop	{r3, r4, r5, pc}
 800150c:	f44f 63c0 	mov.w	r3, #1536	@ 0x600
 8001510:	e7e8      	b.n	80014e4 <Modbus_SetConfig+0x48>
 8001512:	2501      	movs	r5, #1
 8001514:	e7f8      	b.n	8001508 <Modbus_SetConfig+0x6c>
 8001516:	bf00      	nop
 8001518:	20000878 	.word	0x20000878

0800151c <Modbus_CRC16>:
 800151c:	4602      	mov	r2, r0
 800151e:	4401      	add	r1, r0
 8001520:	f64f 70ff 	movw	r0, #65535	@ 0xffff
 8001524:	b530      	push	{r4, r5, lr}
 8001526:	4d09      	ldr	r5, [pc, #36]	@ (800154c <Modbus_CRC16+0x30>)
 8001528:	428a      	cmp	r2, r1
 800152a:	d100      	bne.n	800152e <Modbus_CRC16+0x12>
 800152c:	bd30      	pop	{r4, r5, pc}
 800152e:	2408      	movs	r4, #8
 8001530:	f812 3b01 	ldrb.w	r3, [r2], #1
 8001534:	4058      	eors	r0, r3
 8001536:	f340 0300 	sbfx	r3, r0, #0, #1
 800153a:	402b      	ands	r3, r5
 800153c:	ea83 0350 	eor.w	r3, r3, r0, lsr #1
 8001540:	b298      	uxth	r0, r3
 8001542:	1e63      	subs	r3, r4, #1
 8001544:	f013 04ff 	ands.w	r4, r3, #255	@ 0xff
 8001548:	d1f5      	bne.n	8001536 <Modbus_CRC16+0x1a>
 800154a:	e7ed      	b.n	8001528 <Modbus_CRC16+0xc>
 800154c:	ffffa001 	.word	0xffffa001

08001550 <Modbus_SendResponse>:
 8001550:	b570      	push	{r4, r5, r6, lr}
 8001552:	f8b0 5468 	ldrh.w	r5, [r0, #1128]	@ 0x468
 8001556:	f500 765a 	add.w	r6, r0, #872	@ 0x368
 800155a:	4604      	mov	r4, r0
 800155c:	4629      	mov	r1, r5
 800155e:	4630      	mov	r0, r6
 8001560:	f7ff ffdc 	bl	800151c <Modbus_CRC16>
 8001564:	1963      	adds	r3, r4, r5
 8001566:	f883 0368 	strb.w	r0, [r3, #872]	@ 0x368
 800156a:	2303      	movs	r3, #3
 800156c:	1caa      	adds	r2, r5, #2
 800156e:	3501      	adds	r5, #1
 8001570:	b2ad      	uxth	r5, r5
 8001572:	b292      	uxth	r2, r2
 8001574:	4425      	add	r5, r4
 8001576:	0a00      	lsrs	r0, r0, #8
 8001578:	f8a4 2468 	strh.w	r2, [r4, #1128]	@ 0x468
 800157c:	f885 0368 	strb.w	r0, [r5, #872]	@ 0x368
 8001580:	4631      	mov	r1, r6
 8001582:	f884 346a 	strb.w	r3, [r4, #1130]	@ 0x46a
 8001586:	6820      	ldr	r0, [r4, #0]
 8001588:	2364      	movs	r3, #100	@ 0x64
 800158a:	f002 f89a 	bl	80036c2 <HAL_UART_Transmit>
 800158e:	2200      	movs	r2, #0
 8001590:	f884 246a 	strb.w	r2, [r4, #1130]	@ 0x46a
 8001594:	f8a4 2362 	strh.w	r2, [r4, #866]	@ 0x362
 8001598:	f44f 4180 	mov.w	r1, #16384	@ 0x4000
 800159c:	e8bd 4070 	ldmia.w	sp!, {r4, r5, r6, lr}
 80015a0:	4801      	ldr	r0, [pc, #4]	@ (80015a8 <Modbus_SendResponse+0x58>)
 80015a2:	f000 bf9f 	b.w	80024e4 <HAL_GPIO_WritePin>
 80015a6:	bf00      	nop
 80015a8:	40011000 	.word	0x40011000

080015ac <Modbus_UART_RxCallback>:
 80015ac:	f8b0 3362 	ldrh.w	r3, [r0, #866]	@ 0x362
 80015b0:	b510      	push	{r4, lr}
 80015b2:	2bff      	cmp	r3, #255	@ 0xff
 80015b4:	4604      	mov	r4, r0
 80015b6:	d813      	bhi.n	80015e0 <Modbus_UART_RxCallback+0x34>
 80015b8:	18c2      	adds	r2, r0, r3
 80015ba:	3301      	adds	r3, #1
 80015bc:	f882 1262 	strb.w	r1, [r2, #610]	@ 0x262
 80015c0:	f8a0 3362 	strh.w	r3, [r0, #866]	@ 0x362
 80015c4:	f000 fd52 	bl	800206c <HAL_GetTick>
 80015c8:	2301      	movs	r3, #1
 80015ca:	f8c4 0364 	str.w	r0, [r4, #868]	@ 0x364
 80015ce:	f884 346a 	strb.w	r3, [r4, #1130]	@ 0x46a
 80015d2:	6820      	ldr	r0, [r4, #0]
 80015d4:	2201      	movs	r2, #1
 80015d6:	e8bd 4010 	ldmia.w	sp!, {r4, lr}
 80015da:	4906      	ldr	r1, [pc, #24]	@ (80015f4 <Modbus_UART_RxCallback+0x48>)
 80015dc:	f002 ba89 	b.w	8003af2 <HAL_UART_Receive_IT>
 80015e0:	f8d0 3478 	ldr.w	r3, [r0, #1144]	@ 0x478
 80015e4:	3301      	adds	r3, #1
 80015e6:	f8c0 3478 	str.w	r3, [r0, #1144]	@ 0x478
 80015ea:	2300      	movs	r3, #0
 80015ec:	f8a0 3362 	strh.w	r3, [r0, #866]	@ 0x362
 80015f0:	e7ed      	b.n	80015ce <Modbus_UART_RxCallback+0x22>
 80015f2:	bf00      	nop
 80015f4:	20000878 	.word	0x20000878

080015f8 <Modbus_Process>:
 80015f8:	e92d 47f3 	stmdb	sp!, {r0, r1, r4, r5, r6, r7, r8, r9, sl, lr}
 80015fc:	4604      	mov	r4, r0
 80015fe:	f000 fd35 	bl	800206c <HAL_GetTick>
 8001602:	4bb8      	ldr	r3, [pc, #736]	@ (80018e4 <Modbus_Process+0x2ec>)
 8001604:	4605      	mov	r5, r0
 8001606:	681a      	ldr	r2, [r3, #0]
 8001608:	4282      	cmp	r2, r0
 800160a:	d033      	beq.n	8001674 <Modbus_Process+0x7c>
 800160c:	6018      	str	r0, [r3, #0]
 800160e:	f894 346a 	ldrb.w	r3, [r4, #1130]	@ 0x46a
 8001612:	2b01      	cmp	r3, #1
 8001614:	d01a      	beq.n	800164c <Modbus_Process+0x54>
 8001616:	2b03      	cmp	r3, #3
 8001618:	6820      	ldr	r0, [r4, #0]
 800161a:	f000 8191 	beq.w	8001940 <Modbus_Process+0x348>
 800161e:	f890 3042 	ldrb.w	r3, [r0, #66]	@ 0x42
 8001622:	2b22      	cmp	r3, #34	@ 0x22
 8001624:	d006      	beq.n	8001634 <Modbus_Process+0x3c>
 8001626:	2300      	movs	r3, #0
 8001628:	2201      	movs	r2, #1
 800162a:	49af      	ldr	r1, [pc, #700]	@ (80018e8 <Modbus_Process+0x2f0>)
 800162c:	f8a4 3362 	strh.w	r3, [r4, #866]	@ 0x362
 8001630:	f002 fa5f 	bl	8003af2 <HAL_UART_Receive_IT>
 8001634:	f8b4 3362 	ldrh.w	r3, [r4, #866]	@ 0x362
 8001638:	b1e3      	cbz	r3, 8001674 <Modbus_Process+0x7c>
 800163a:	f8d4 3364 	ldr.w	r3, [r4, #868]	@ 0x364
 800163e:	1ae8      	subs	r0, r5, r3
 8001640:	2863      	cmp	r0, #99	@ 0x63
 8001642:	bf84      	itt	hi
 8001644:	2300      	movhi	r3, #0
 8001646:	f8a4 3362 	strhhi.w	r3, [r4, #866]	@ 0x362
 800164a:	e013      	b.n	8001674 <Modbus_Process+0x7c>
 800164c:	f8d4 3364 	ldr.w	r3, [r4, #868]	@ 0x364
 8001650:	1ac3      	subs	r3, r0, r3
 8001652:	2b04      	cmp	r3, #4
 8001654:	d90e      	bls.n	8001674 <Modbus_Process+0x7c>
 8001656:	f8b4 5362 	ldrh.w	r5, [r4, #866]	@ 0x362
 800165a:	b135      	cbz	r5, 800166a <Modbus_Process+0x72>
 800165c:	2d03      	cmp	r5, #3
 800165e:	d80c      	bhi.n	800167a <Modbus_Process+0x82>
 8001660:	f8d4 3478 	ldr.w	r3, [r4, #1144]	@ 0x478
 8001664:	3301      	adds	r3, #1
 8001666:	f8c4 3478 	str.w	r3, [r4, #1144]	@ 0x478
 800166a:	2300      	movs	r3, #0
 800166c:	f8a4 3362 	strh.w	r3, [r4, #866]	@ 0x362
 8001670:	f884 346a 	strb.w	r3, [r4, #1130]	@ 0x46a
 8001674:	b002      	add	sp, #8
 8001676:	e8bd 87f0 	ldmia.w	sp!, {r4, r5, r6, r7, r8, r9, sl, pc}
 800167a:	f204 2662 	addw	r6, r4, #610	@ 0x262
 800167e:	1ea9      	subs	r1, r5, #2
 8001680:	4630      	mov	r0, r6
 8001682:	b289      	uxth	r1, r1
 8001684:	f7ff ff4a 	bl	800151c <Modbus_CRC16>
 8001688:	4435      	add	r5, r6
 800168a:	f815 2c01 	ldrb.w	r2, [r5, #-1]
 800168e:	f815 3c02 	ldrb.w	r3, [r5, #-2]
 8001692:	ea43 2302 	orr.w	r3, r3, r2, lsl #8
 8001696:	4283      	cmp	r3, r0
 8001698:	d1e2      	bne.n	8001660 <Modbus_Process+0x68>
 800169a:	f894 3262 	ldrb.w	r3, [r4, #610]	@ 0x262
 800169e:	7a22      	ldrb	r2, [r4, #8]
 80016a0:	429a      	cmp	r2, r3
 80016a2:	d001      	beq.n	80016a8 <Modbus_Process+0xb0>
 80016a4:	2b00      	cmp	r3, #0
 80016a6:	d1e0      	bne.n	800166a <Modbus_Process+0x72>
 80016a8:	2201      	movs	r2, #1
 80016aa:	f44f 4180 	mov.w	r1, #16384	@ 0x4000
 80016ae:	488f      	ldr	r0, [pc, #572]	@ (80018ec <Modbus_Process+0x2f4>)
 80016b0:	f000 ff18 	bl	80024e4 <HAL_GPIO_WritePin>
 80016b4:	f894 3263 	ldrb.w	r3, [r4, #611]	@ 0x263
 80016b8:	2b06      	cmp	r3, #6
 80016ba:	f000 80ca 	beq.w	8001852 <Modbus_Process+0x25a>
 80016be:	d81a      	bhi.n	80016f6 <Modbus_Process+0xfe>
 80016c0:	2b03      	cmp	r3, #3
 80016c2:	7a21      	ldrb	r1, [r4, #8]
 80016c4:	d023      	beq.n	800170e <Modbus_Process+0x116>
 80016c6:	2b04      	cmp	r3, #4
 80016c8:	d07c      	beq.n	80017c4 <Modbus_Process+0x1cc>
 80016ca:	f063 037f 	orn	r3, r3, #127	@ 0x7f
 80016ce:	f884 3369 	strb.w	r3, [r4, #873]	@ 0x369
 80016d2:	2301      	movs	r3, #1
 80016d4:	f884 336a 	strb.w	r3, [r4, #874]	@ 0x36a
 80016d8:	2303      	movs	r3, #3
 80016da:	7a22      	ldrb	r2, [r4, #8]
 80016dc:	f8a4 3468 	strh.w	r3, [r4, #1128]	@ 0x468
 80016e0:	4620      	mov	r0, r4
 80016e2:	f884 2368 	strb.w	r2, [r4, #872]	@ 0x368
 80016e6:	f7ff ff33 	bl	8001550 <Modbus_SendResponse>
 80016ea:	f8d4 3478 	ldr.w	r3, [r4, #1144]	@ 0x478
 80016ee:	3301      	adds	r3, #1
 80016f0:	f8c4 3478 	str.w	r3, [r4, #1144]	@ 0x478
 80016f4:	e01b      	b.n	800172e <Modbus_Process+0x136>
 80016f6:	2b10      	cmp	r3, #16
 80016f8:	d1e7      	bne.n	80016ca <Modbus_Process+0xd2>
 80016fa:	f8b4 1362 	ldrh.w	r1, [r4, #866]	@ 0x362
 80016fe:	290a      	cmp	r1, #10
 8001700:	f200 80d0 	bhi.w	80018a4 <Modbus_Process+0x2ac>
 8001704:	7a23      	ldrb	r3, [r4, #8]
 8001706:	f884 3368 	strb.w	r3, [r4, #872]	@ 0x368
 800170a:	2390      	movs	r3, #144	@ 0x90
 800170c:	e061      	b.n	80017d2 <Modbus_Process+0x1da>
 800170e:	f8b4 2362 	ldrh.w	r2, [r4, #866]	@ 0x362
 8001712:	2a08      	cmp	r2, #8
 8001714:	d011      	beq.n	800173a <Modbus_Process+0x142>
 8001716:	2283      	movs	r2, #131	@ 0x83
 8001718:	f884 1368 	strb.w	r1, [r4, #872]	@ 0x368
 800171c:	f884 2369 	strb.w	r2, [r4, #873]	@ 0x369
 8001720:	f884 336a 	strb.w	r3, [r4, #874]	@ 0x36a
 8001724:	f8a4 3468 	strh.w	r3, [r4, #1128]	@ 0x468
 8001728:	4620      	mov	r0, r4
 800172a:	f7ff ff11 	bl	8001550 <Modbus_SendResponse>
 800172e:	f8d4 3474 	ldr.w	r3, [r4, #1140]	@ 0x474
 8001732:	3301      	adds	r3, #1
 8001734:	f8c4 3474 	str.w	r3, [r4, #1140]	@ 0x474
 8001738:	e797      	b.n	800166a <Modbus_Process+0x72>
 800173a:	f8b4 2266 	ldrh.w	r2, [r4, #614]	@ 0x266
 800173e:	f8b4 5264 	ldrh.w	r5, [r4, #612]	@ 0x264
 8001742:	ba52      	rev16	r2, r2
 8001744:	b292      	uxth	r2, r2
 8001746:	1e50      	subs	r0, r2, #1
 8001748:	ba6d      	rev16	r5, r5
 800174a:	287c      	cmp	r0, #124	@ 0x7c
 800174c:	b2ad      	uxth	r5, r5
 800174e:	d806      	bhi.n	800175e <Modbus_Process+0x166>
 8001750:	f5b5 7f96 	cmp.w	r5, #300	@ 0x12c
 8001754:	d203      	bcs.n	800175e <Modbus_Process+0x166>
 8001756:	18a8      	adds	r0, r5, r2
 8001758:	f5b0 7f96 	cmp.w	r0, #300	@ 0x12c
 800175c:	dd09      	ble.n	8001772 <Modbus_Process+0x17a>
 800175e:	2383      	movs	r3, #131	@ 0x83
 8001760:	f884 1368 	strb.w	r1, [r4, #872]	@ 0x368
 8001764:	f884 3369 	strb.w	r3, [r4, #873]	@ 0x369
 8001768:	2302      	movs	r3, #2
 800176a:	f884 336a 	strb.w	r3, [r4, #874]	@ 0x36a
 800176e:	2303      	movs	r3, #3
 8001770:	e7d8      	b.n	8001724 <Modbus_Process+0x12c>
 8001772:	46a0      	mov	r8, r4
 8001774:	0056      	lsls	r6, r2, #1
 8001776:	f105 0904 	add.w	r9, r5, #4
 800177a:	f884 1368 	strb.w	r1, [r4, #872]	@ 0x368
 800177e:	f884 3369 	strb.w	r3, [r4, #873]	@ 0x369
 8001782:	f884 636a 	strb.w	r6, [r4, #874]	@ 0x36a
 8001786:	eb04 0949 	add.w	r9, r4, r9, lsl #1
 800178a:	b287      	uxth	r7, r0
 800178c:	f839 3f02 	ldrh.w	r3, [r9, #2]!
 8001790:	f8ad 3006 	strh.w	r3, [sp, #6]
 8001794:	f8d4 347c 	ldr.w	r3, [r4, #1148]	@ 0x47c
 8001798:	b11b      	cbz	r3, 80017a2 <Modbus_Process+0x1aa>
 800179a:	4628      	mov	r0, r5
 800179c:	f10d 0106 	add.w	r1, sp, #6
 80017a0:	4798      	blx	r3
 80017a2:	f8bd 3006 	ldrh.w	r3, [sp, #6]
 80017a6:	3501      	adds	r5, #1
 80017a8:	b2ad      	uxth	r5, r5
 80017aa:	0a1a      	lsrs	r2, r3, #8
 80017ac:	42bd      	cmp	r5, r7
 80017ae:	f888 236b 	strb.w	r2, [r8, #875]	@ 0x36b
 80017b2:	f888 336c 	strb.w	r3, [r8, #876]	@ 0x36c
 80017b6:	f108 0802 	add.w	r8, r8, #2
 80017ba:	d1e7      	bne.n	800178c <Modbus_Process+0x194>
 80017bc:	1cf2      	adds	r2, r6, #3
 80017be:	f8a4 2468 	strh.w	r2, [r4, #1128]	@ 0x468
 80017c2:	e7b1      	b.n	8001728 <Modbus_Process+0x130>
 80017c4:	f8b4 2362 	ldrh.w	r2, [r4, #866]	@ 0x362
 80017c8:	2a08      	cmp	r2, #8
 80017ca:	d006      	beq.n	80017da <Modbus_Process+0x1e2>
 80017cc:	2384      	movs	r3, #132	@ 0x84
 80017ce:	f884 1368 	strb.w	r1, [r4, #872]	@ 0x368
 80017d2:	f884 3369 	strb.w	r3, [r4, #873]	@ 0x369
 80017d6:	2303      	movs	r3, #3
 80017d8:	e7a2      	b.n	8001720 <Modbus_Process+0x128>
 80017da:	f8b4 2266 	ldrh.w	r2, [r4, #614]	@ 0x266
 80017de:	f8b4 5264 	ldrh.w	r5, [r4, #612]	@ 0x264
 80017e2:	ba52      	rev16	r2, r2
 80017e4:	b292      	uxth	r2, r2
 80017e6:	1e50      	subs	r0, r2, #1
 80017e8:	ba6d      	rev16	r5, r5
 80017ea:	287c      	cmp	r0, #124	@ 0x7c
 80017ec:	b2ad      	uxth	r5, r5
 80017ee:	d806      	bhi.n	80017fe <Modbus_Process+0x206>
 80017f0:	f5b5 7f96 	cmp.w	r5, #300	@ 0x12c
 80017f4:	d203      	bcs.n	80017fe <Modbus_Process+0x206>
 80017f6:	18a8      	adds	r0, r5, r2
 80017f8:	f5b0 7f96 	cmp.w	r0, #300	@ 0x12c
 80017fc:	dd03      	ble.n	8001806 <Modbus_Process+0x20e>
 80017fe:	2384      	movs	r3, #132	@ 0x84
 8001800:	f884 1368 	strb.w	r1, [r4, #872]	@ 0x368
 8001804:	e7ae      	b.n	8001764 <Modbus_Process+0x16c>
 8001806:	46a0      	mov	r8, r4
 8001808:	0056      	lsls	r6, r2, #1
 800180a:	f105 0904 	add.w	r9, r5, #4
 800180e:	f884 1368 	strb.w	r1, [r4, #872]	@ 0x368
 8001812:	f884 3369 	strb.w	r3, [r4, #873]	@ 0x369
 8001816:	f884 636a 	strb.w	r6, [r4, #874]	@ 0x36a
 800181a:	eb04 0949 	add.w	r9, r4, r9, lsl #1
 800181e:	b287      	uxth	r7, r0
 8001820:	f839 3f02 	ldrh.w	r3, [r9, #2]!
 8001824:	f8ad 3006 	strh.w	r3, [sp, #6]
 8001828:	f8d4 347c 	ldr.w	r3, [r4, #1148]	@ 0x47c
 800182c:	b11b      	cbz	r3, 8001836 <Modbus_Process+0x23e>
 800182e:	4628      	mov	r0, r5
 8001830:	f10d 0106 	add.w	r1, sp, #6
 8001834:	4798      	blx	r3
 8001836:	f8bd 3006 	ldrh.w	r3, [sp, #6]
 800183a:	3501      	adds	r5, #1
 800183c:	b2ad      	uxth	r5, r5
 800183e:	0a1a      	lsrs	r2, r3, #8
 8001840:	42bd      	cmp	r5, r7
 8001842:	f888 236b 	strb.w	r2, [r8, #875]	@ 0x36b
 8001846:	f888 336c 	strb.w	r3, [r8, #876]	@ 0x36c
 800184a:	f108 0802 	add.w	r8, r8, #2
 800184e:	d1e7      	bne.n	8001820 <Modbus_Process+0x228>
 8001850:	e7b4      	b.n	80017bc <Modbus_Process+0x1c4>
 8001852:	f8b4 3362 	ldrh.w	r3, [r4, #866]	@ 0x362
 8001856:	2b08      	cmp	r3, #8
 8001858:	d004      	beq.n	8001864 <Modbus_Process+0x26c>
 800185a:	7a23      	ldrb	r3, [r4, #8]
 800185c:	f884 3368 	strb.w	r3, [r4, #872]	@ 0x368
 8001860:	2386      	movs	r3, #134	@ 0x86
 8001862:	e7b6      	b.n	80017d2 <Modbus_Process+0x1da>
 8001864:	f8b4 0264 	ldrh.w	r0, [r4, #612]	@ 0x264
 8001868:	f8b4 3266 	ldrh.w	r3, [r4, #614]	@ 0x266
 800186c:	ba40      	rev16	r0, r0
 800186e:	b280      	uxth	r0, r0
 8001870:	ba5b      	rev16	r3, r3
 8001872:	f5b0 7f96 	cmp.w	r0, #300	@ 0x12c
 8001876:	b299      	uxth	r1, r3
 8001878:	d304      	bcc.n	8001884 <Modbus_Process+0x28c>
 800187a:	7a23      	ldrb	r3, [r4, #8]
 800187c:	f884 3368 	strb.w	r3, [r4, #872]	@ 0x368
 8001880:	2386      	movs	r3, #134	@ 0x86
 8001882:	e76f      	b.n	8001764 <Modbus_Process+0x16c>
 8001884:	eb04 0240 	add.w	r2, r4, r0, lsl #1
 8001888:	8153      	strh	r3, [r2, #10]
 800188a:	f8d4 3480 	ldr.w	r3, [r4, #1152]	@ 0x480
 800188e:	b103      	cbz	r3, 8001892 <Modbus_Process+0x29a>
 8001890:	4798      	blx	r3
 8001892:	f8d4 3262 	ldr.w	r3, [r4, #610]	@ 0x262
 8001896:	f8c4 3368 	str.w	r3, [r4, #872]	@ 0x368
 800189a:	88b3      	ldrh	r3, [r6, #4]
 800189c:	f8a4 336c 	strh.w	r3, [r4, #876]	@ 0x36c
 80018a0:	2306      	movs	r3, #6
 80018a2:	e73f      	b.n	8001724 <Modbus_Process+0x12c>
 80018a4:	f8b4 3266 	ldrh.w	r3, [r4, #614]	@ 0x266
 80018a8:	f8b4 7264 	ldrh.w	r7, [r4, #612]	@ 0x264
 80018ac:	ba5b      	rev16	r3, r3
 80018ae:	b29e      	uxth	r6, r3
 80018b0:	1e72      	subs	r2, r6, #1
 80018b2:	2a7a      	cmp	r2, #122	@ 0x7a
 80018b4:	f894 3268 	ldrb.w	r3, [r4, #616]	@ 0x268
 80018b8:	d80e      	bhi.n	80018d8 <Modbus_Process+0x2e0>
 80018ba:	ebb3 0f46 	cmp.w	r3, r6, lsl #1
 80018be:	d10b      	bne.n	80018d8 <Modbus_Process+0x2e0>
 80018c0:	ba7d      	rev16	r5, r7
 80018c2:	b2ad      	uxth	r5, r5
 80018c4:	f5b5 7f96 	cmp.w	r5, #300	@ 0x12c
 80018c8:	d206      	bcs.n	80018d8 <Modbus_Process+0x2e0>
 80018ca:	19aa      	adds	r2, r5, r6
 80018cc:	f5b2 7f96 	cmp.w	r2, #300	@ 0x12c
 80018d0:	dc02      	bgt.n	80018d8 <Modbus_Process+0x2e0>
 80018d2:	3309      	adds	r3, #9
 80018d4:	4299      	cmp	r1, r3
 80018d6:	d00b      	beq.n	80018f0 <Modbus_Process+0x2f8>
 80018d8:	7a23      	ldrb	r3, [r4, #8]
 80018da:	f884 3368 	strb.w	r3, [r4, #872]	@ 0x368
 80018de:	2390      	movs	r3, #144	@ 0x90
 80018e0:	e740      	b.n	8001764 <Modbus_Process+0x16c>
 80018e2:	bf00      	nop
 80018e4:	20000874 	.word	0x20000874
 80018e8:	20000878 	.word	0x20000878
 80018ec:	40011000 	.word	0x40011000
 80018f0:	46a0      	mov	r8, r4
 80018f2:	f105 0904 	add.w	r9, r5, #4
 80018f6:	eb04 0949 	add.w	r9, r4, r9, lsl #1
 80018fa:	fa1f fa82 	uxth.w	sl, r2
 80018fe:	f898 3269 	ldrb.w	r3, [r8, #617]	@ 0x269
 8001902:	f898 126a 	ldrb.w	r1, [r8, #618]	@ 0x26a
 8001906:	ea41 2103 	orr.w	r1, r1, r3, lsl #8
 800190a:	f8d4 3480 	ldr.w	r3, [r4, #1152]	@ 0x480
 800190e:	f829 1f02 	strh.w	r1, [r9, #2]!
 8001912:	b10b      	cbz	r3, 8001918 <Modbus_Process+0x320>
 8001914:	4628      	mov	r0, r5
 8001916:	4798      	blx	r3
 8001918:	3501      	adds	r5, #1
 800191a:	b2ad      	uxth	r5, r5
 800191c:	45aa      	cmp	sl, r5
 800191e:	f108 0802 	add.w	r8, r8, #2
 8001922:	d1ec      	bne.n	80018fe <Modbus_Process+0x306>
 8001924:	7a23      	ldrb	r3, [r4, #8]
 8001926:	f8a4 736a 	strh.w	r7, [r4, #874]	@ 0x36a
 800192a:	f884 3368 	strb.w	r3, [r4, #872]	@ 0x368
 800192e:	2310      	movs	r3, #16
 8001930:	f884 3369 	strb.w	r3, [r4, #873]	@ 0x369
 8001934:	2300      	movs	r3, #0
 8001936:	f884 636d 	strb.w	r6, [r4, #877]	@ 0x36d
 800193a:	f884 336c 	strb.w	r3, [r4, #876]	@ 0x36c
 800193e:	e7af      	b.n	80018a0 <Modbus_Process+0x2a8>
 8001940:	f890 3041 	ldrb.w	r3, [r0, #65]	@ 0x41
 8001944:	2b20      	cmp	r3, #32
 8001946:	f47f ae95 	bne.w	8001674 <Modbus_Process+0x7c>
 800194a:	2300      	movs	r3, #0
 800194c:	e690      	b.n	8001670 <Modbus_Process+0x78>
 800194e:	bf00      	nop

08001950 <Modbus_WriteRegister>:
 8001950:	b140      	cbz	r0, 8001964 <Modbus_WriteRegister+0x14>
 8001952:	f5b1 7f96 	cmp.w	r1, #300	@ 0x12c
 8001956:	d204      	bcs.n	8001962 <Modbus_WriteRegister+0x12>
 8001958:	eb00 0041 	add.w	r0, r0, r1, lsl #1
 800195c:	8142      	strh	r2, [r0, #10]
 800195e:	2001      	movs	r0, #1
 8001960:	4770      	bx	lr
 8001962:	2000      	movs	r0, #0
 8001964:	4770      	bx	lr

08001966 <Modbus_RegisterReadCallback>:
 8001966:	b108      	cbz	r0, 800196c <Modbus_RegisterReadCallback+0x6>
 8001968:	f8c0 147c 	str.w	r1, [r0, #1148]	@ 0x47c
 800196c:	4770      	bx	lr

0800196e <Modbus_RegisterWriteCallback>:
 800196e:	b108      	cbz	r0, 8001974 <Modbus_RegisterWriteCallback+0x6>
 8001970:	f8c0 1480 	str.w	r1, [r0, #1152]	@ 0x480
 8001974:	4770      	bx	lr
	...

08001978 <waitready>:
 8001978:	b5f0      	push	{r4, r5, r6, r7, lr}
 800197a:	1e04      	subs	r4, r0, #0
 800197c:	bf08      	it	eq
 800197e:	f44f 747a 	moveq.w	r4, #1000	@ 0x3e8
 8001982:	2500      	movs	r5, #0
 8001984:	2764      	movs	r7, #100	@ 0x64
 8001986:	4e0d      	ldr	r6, [pc, #52]	@ (80019bc <waitready+0x44>)
 8001988:	b085      	sub	sp, #20
 800198a:	6830      	ldr	r0, [r6, #0]
 800198c:	2301      	movs	r3, #1
 800198e:	7901      	ldrb	r1, [r0, #4]
 8001990:	9700      	str	r7, [sp, #0]
 8001992:	6800      	ldr	r0, [r0, #0]
 8001994:	f10d 020f 	add.w	r2, sp, #15
 8001998:	f001 f856 	bl	8002a48 <HAL_I2C_Master_Receive>
 800199c:	b928      	cbnz	r0, 80019aa <waitready+0x32>
 800199e:	f89d 000f 	ldrb.w	r0, [sp, #15]
 80019a2:	2801      	cmp	r0, #1
 80019a4:	d101      	bne.n	80019aa <waitready+0x32>
 80019a6:	b005      	add	sp, #20
 80019a8:	bdf0      	pop	{r4, r5, r6, r7, pc}
 80019aa:	200a      	movs	r0, #10
 80019ac:	350a      	adds	r5, #10
 80019ae:	f000 fb63 	bl	8002078 <HAL_Delay>
 80019b2:	42ac      	cmp	r4, r5
 80019b4:	d8e9      	bhi.n	800198a <waitready+0x12>
 80019b6:	2000      	movs	r0, #0
 80019b8:	e7f5      	b.n	80019a6 <waitready+0x2e>
 80019ba:	bf00      	nop
 80019bc:	2000087c 	.word	0x2000087c

080019c0 <readdata>:
 80019c0:	b5f0      	push	{r4, r5, r6, r7, lr}
 80019c2:	1c4b      	adds	r3, r1, #1
 80019c4:	b2db      	uxtb	r3, r3
 80019c6:	b083      	sub	sp, #12
 80019c8:	1dda      	adds	r2, r3, #7
 80019ca:	f402 72fc 	and.w	r2, r2, #504	@ 0x1f8
 80019ce:	af02      	add	r7, sp, #8
 80019d0:	ebad 0d02 	sub.w	sp, sp, r2
 80019d4:	466a      	mov	r2, sp
 80019d6:	2664      	movs	r6, #100	@ 0x64
 80019d8:	4605      	mov	r5, r0
 80019da:	460c      	mov	r4, r1
 80019dc:	4908      	ldr	r1, [pc, #32]	@ (8001a00 <readdata+0x40>)
 80019de:	6808      	ldr	r0, [r1, #0]
 80019e0:	7901      	ldrb	r1, [r0, #4]
 80019e2:	f842 6b08 	str.w	r6, [r2], #8
 80019e6:	6800      	ldr	r0, [r0, #0]
 80019e8:	f001 f82e 	bl	8002a48 <HAL_I2C_Master_Receive>
 80019ec:	4622      	mov	r2, r4
 80019ee:	4628      	mov	r0, r5
 80019f0:	f10d 0109 	add.w	r1, sp, #9
 80019f4:	f005 f8f1 	bl	8006bda <memcpy>
 80019f8:	3704      	adds	r7, #4
 80019fa:	46bd      	mov	sp, r7
 80019fc:	bdf0      	pop	{r4, r5, r6, r7, pc}
 80019fe:	bf00      	nop
 8001a00:	2000087c 	.word	0x2000087c

08001a04 <reset>:
 8001a04:	b510      	push	{r4, lr}
 8001a06:	4c0b      	ldr	r4, [pc, #44]	@ (8001a34 <reset+0x30>)
 8001a08:	6823      	ldr	r3, [r4, #0]
 8001a0a:	6898      	ldr	r0, [r3, #8]
 8001a0c:	b188      	cbz	r0, 8001a32 <reset+0x2e>
 8001a0e:	8999      	ldrh	r1, [r3, #12]
 8001a10:	2200      	movs	r2, #0
 8001a12:	f000 fd67 	bl	80024e4 <HAL_GPIO_WritePin>
 8001a16:	200a      	movs	r0, #10
 8001a18:	f000 fb2e 	bl	8002078 <HAL_Delay>
 8001a1c:	6823      	ldr	r3, [r4, #0]
 8001a1e:	2201      	movs	r2, #1
 8001a20:	6898      	ldr	r0, [r3, #8]
 8001a22:	8999      	ldrh	r1, [r3, #12]
 8001a24:	f000 fd5e 	bl	80024e4 <HAL_GPIO_WritePin>
 8001a28:	e8bd 4010 	ldmia.w	sp!, {r4, lr}
 8001a2c:	2032      	movs	r0, #50	@ 0x32
 8001a2e:	f000 bb23 	b.w	8002078 <HAL_Delay>
 8001a32:	bd10      	pop	{r4, pc}
 8001a34:	2000087c 	.word	0x2000087c

08001a38 <sendCommandCheckAck>:
 8001a38:	460b      	mov	r3, r1
 8001a3a:	e92d 41f0 	stmdb	sp!, {r4, r5, r6, r7, r8, lr}
 8001a3e:	2400      	movs	r4, #0
 8001a40:	4615      	mov	r5, r2
 8001a42:	f103 020f 	add.w	r2, r3, #15
 8001a46:	b084      	sub	sp, #16
 8001a48:	f402 72fc 	and.w	r2, r2, #504	@ 0x1f8
 8001a4c:	466e      	mov	r6, sp
 8001a4e:	af02      	add	r7, sp, #8
 8001a50:	ebad 0d02 	sub.w	sp, sp, r2
 8001a54:	aa02      	add	r2, sp, #8
 8001a56:	f88d 4008 	strb.w	r4, [sp, #8]
 8001a5a:	7054      	strb	r4, [r2, #1]
 8001a5c:	24ff      	movs	r4, #255	@ 0xff
 8001a5e:	7094      	strb	r4, [r2, #2]
 8001a60:	1c5c      	adds	r4, r3, #1
 8001a62:	70d4      	strb	r4, [r2, #3]
 8001a64:	43dc      	mvns	r4, r3
 8001a66:	7114      	strb	r4, [r2, #4]
 8001a68:	24d4      	movs	r4, #212	@ 0xd4
 8001a6a:	3107      	adds	r1, #7
 8001a6c:	7154      	strb	r4, [r2, #5]
 8001a6e:	f10d 0c0d 	add.w	ip, sp, #13
 8001a72:	eb00 0803 	add.w	r8, r0, r3
 8001a76:	4540      	cmp	r0, r8
 8001a78:	d11a      	bne.n	8001ab0 <sendCommandCheckAck+0x78>
 8001a7a:	18d0      	adds	r0, r2, r3
 8001a7c:	4264      	negs	r4, r4
 8001a7e:	7184      	strb	r4, [r0, #6]
 8001a80:	2000      	movs	r0, #0
 8001a82:	2464      	movs	r4, #100	@ 0x64
 8001a84:	5450      	strb	r0, [r2, r1]
 8001a86:	4917      	ldr	r1, [pc, #92]	@ (8001ae4 <sendCommandCheckAck+0xac>)
 8001a88:	3308      	adds	r3, #8
 8001a8a:	6808      	ldr	r0, [r1, #0]
 8001a8c:	7901      	ldrb	r1, [r0, #4]
 8001a8e:	9400      	str	r4, [sp, #0]
 8001a90:	6800      	ldr	r0, [r0, #0]
 8001a92:	f000 feff 	bl	8002894 <HAL_I2C_Master_Transmit>
 8001a96:	2002      	movs	r0, #2
 8001a98:	46b5      	mov	sp, r6
 8001a9a:	f000 faed 	bl	8002078 <HAL_Delay>
 8001a9e:	4628      	mov	r0, r5
 8001aa0:	f7ff ff6a 	bl	8001978 <waitready>
 8001aa4:	b958      	cbnz	r0, 8001abe <sendCommandCheckAck+0x86>
 8001aa6:	2000      	movs	r0, #0
 8001aa8:	3708      	adds	r7, #8
 8001aaa:	46bd      	mov	sp, r7
 8001aac:	e8bd 81f0 	ldmia.w	sp!, {r4, r5, r6, r7, r8, pc}
 8001ab0:	f810 eb01 	ldrb.w	lr, [r0], #1
 8001ab4:	4474      	add	r4, lr
 8001ab6:	f80c ef01 	strb.w	lr, [ip, #1]!
 8001aba:	b2e4      	uxtb	r4, r4
 8001abc:	e7db      	b.n	8001a76 <sendCommandCheckAck+0x3e>
 8001abe:	2106      	movs	r1, #6
 8001ac0:	4638      	mov	r0, r7
 8001ac2:	f7ff ff7d 	bl	80019c0 <readdata>
 8001ac6:	2206      	movs	r2, #6
 8001ac8:	4638      	mov	r0, r7
 8001aca:	4907      	ldr	r1, [pc, #28]	@ (8001ae8 <sendCommandCheckAck+0xb0>)
 8001acc:	f004 ffe8 	bl	8006aa0 <memcmp>
 8001ad0:	2800      	cmp	r0, #0
 8001ad2:	d1e8      	bne.n	8001aa6 <sendCommandCheckAck+0x6e>
 8001ad4:	2002      	movs	r0, #2
 8001ad6:	f000 facf 	bl	8002078 <HAL_Delay>
 8001ada:	4628      	mov	r0, r5
 8001adc:	f7ff ff4c 	bl	8001978 <waitready>
 8001ae0:	e7e2      	b.n	8001aa8 <sendCommandCheckAck+0x70>
 8001ae2:	bf00      	nop
 8001ae4:	2000087c 	.word	0x2000087c
 8001ae8:	20000000 	.word	0x20000000

08001aec <SAMConfig>:
 8001aec:	2214      	movs	r2, #20
 8001aee:	2301      	movs	r3, #1
 8001af0:	b510      	push	{r4, lr}
 8001af2:	4c0a      	ldr	r4, [pc, #40]	@ (8001b1c <SAMConfig+0x30>)
 8001af4:	2104      	movs	r1, #4
 8001af6:	7022      	strb	r2, [r4, #0]
 8001af8:	70a2      	strb	r2, [r4, #2]
 8001afa:	4620      	mov	r0, r4
 8001afc:	2264      	movs	r2, #100	@ 0x64
 8001afe:	7063      	strb	r3, [r4, #1]
 8001b00:	70e3      	strb	r3, [r4, #3]
 8001b02:	f7ff ff99 	bl	8001a38 <sendCommandCheckAck>
 8001b06:	b140      	cbz	r0, 8001b1a <SAMConfig+0x2e>
 8001b08:	4620      	mov	r0, r4
 8001b0a:	2109      	movs	r1, #9
 8001b0c:	f7ff ff58 	bl	80019c0 <readdata>
 8001b10:	79a0      	ldrb	r0, [r4, #6]
 8001b12:	f1a0 0315 	sub.w	r3, r0, #21
 8001b16:	4258      	negs	r0, r3
 8001b18:	4158      	adcs	r0, r3
 8001b1a:	bd10      	pop	{r4, pc}
 8001b1c:	20000880 	.word	0x20000880

08001b20 <wakeup>:
 8001b20:	b51f      	push	{r0, r1, r2, r3, r4, lr}
 8001b22:	2355      	movs	r3, #85	@ 0x55
 8001b24:	f88d 300f 	strb.w	r3, [sp, #15]
 8001b28:	4b09      	ldr	r3, [pc, #36]	@ (8001b50 <wakeup+0x30>)
 8001b2a:	f10d 020f 	add.w	r2, sp, #15
 8001b2e:	6818      	ldr	r0, [r3, #0]
 8001b30:	2364      	movs	r3, #100	@ 0x64
 8001b32:	7901      	ldrb	r1, [r0, #4]
 8001b34:	9300      	str	r3, [sp, #0]
 8001b36:	6800      	ldr	r0, [r0, #0]
 8001b38:	2301      	movs	r3, #1
 8001b3a:	f000 feab 	bl	8002894 <HAL_I2C_Master_Transmit>
 8001b3e:	200a      	movs	r0, #10
 8001b40:	f000 fa9a 	bl	8002078 <HAL_Delay>
 8001b44:	f7ff ffd2 	bl	8001aec <SAMConfig>
 8001b48:	b005      	add	sp, #20
 8001b4a:	f85d fb04 	ldr.w	pc, [sp], #4
 8001b4e:	bf00      	nop
 8001b50:	2000087c 	.word	0x2000087c

08001b54 <PN532_Init>:
 8001b54:	b508      	push	{r3, lr}
 8001b56:	4b09      	ldr	r3, [pc, #36]	@ (8001b7c <PN532_Init+0x28>)
 8001b58:	6018      	str	r0, [r3, #0]
 8001b5a:	b160      	cbz	r0, 8001b76 <PN532_Init+0x22>
 8001b5c:	6903      	ldr	r3, [r0, #16]
 8001b5e:	b10b      	cbz	r3, 8001b64 <PN532_Init+0x10>
 8001b60:	4807      	ldr	r0, [pc, #28]	@ (8001b80 <PN532_Init+0x2c>)
 8001b62:	4798      	blx	r3
 8001b64:	f7ff ff4e 	bl	8001a04 <reset>
 8001b68:	2064      	movs	r0, #100	@ 0x64
 8001b6a:	f000 fa85 	bl	8002078 <HAL_Delay>
 8001b6e:	f7ff ffd7 	bl	8001b20 <wakeup>
 8001b72:	2000      	movs	r0, #0
 8001b74:	bd08      	pop	{r3, pc}
 8001b76:	2001      	movs	r0, #1
 8001b78:	e7fc      	b.n	8001b74 <PN532_Init+0x20>
 8001b7a:	bf00      	nop
 8001b7c:	2000087c 	.word	0x2000087c
 8001b80:	08009027 	.word	0x08009027

08001b84 <getFirmwareVersion>:
 8001b84:	2302      	movs	r3, #2
 8001b86:	b510      	push	{r4, lr}
 8001b88:	4c07      	ldr	r4, [pc, #28]	@ (8001ba8 <getFirmwareVersion+0x24>)
 8001b8a:	2264      	movs	r2, #100	@ 0x64
 8001b8c:	2101      	movs	r1, #1
 8001b8e:	4620      	mov	r0, r4
 8001b90:	7023      	strb	r3, [r4, #0]
 8001b92:	f7ff ff51 	bl	8001a38 <sendCommandCheckAck>
 8001b96:	b130      	cbz	r0, 8001ba6 <getFirmwareVersion+0x22>
 8001b98:	4620      	mov	r0, r4
 8001b9a:	210d      	movs	r1, #13
 8001b9c:	f7ff ff10 	bl	80019c0 <readdata>
 8001ba0:	f8d4 0006 	ldr.w	r0, [r4, #6]
 8001ba4:	ba00      	rev	r0, r0
 8001ba6:	bd10      	pop	{r4, pc}
 8001ba8:	20000880 	.word	0x20000880

08001bac <setPassiveActivationRetries>:
 8001bac:	b538      	push	{r3, r4, r5, lr}
 8001bae:	2332      	movs	r3, #50	@ 0x32
 8001bb0:	4c0a      	ldr	r4, [pc, #40]	@ (8001bdc <setPassiveActivationRetries+0x30>)
 8001bb2:	2105      	movs	r1, #5
 8001bb4:	7023      	strb	r3, [r4, #0]
 8001bb6:	23ff      	movs	r3, #255	@ 0xff
 8001bb8:	70a3      	strb	r3, [r4, #2]
 8001bba:	2301      	movs	r3, #1
 8001bbc:	7120      	strb	r0, [r4, #4]
 8001bbe:	2264      	movs	r2, #100	@ 0x64
 8001bc0:	4620      	mov	r0, r4
 8001bc2:	7061      	strb	r1, [r4, #1]
 8001bc4:	70e3      	strb	r3, [r4, #3]
 8001bc6:	f7ff ff37 	bl	8001a38 <sendCommandCheckAck>
 8001bca:	4605      	mov	r5, r0
 8001bcc:	b118      	cbz	r0, 8001bd6 <setPassiveActivationRetries+0x2a>
 8001bce:	2109      	movs	r1, #9
 8001bd0:	4620      	mov	r0, r4
 8001bd2:	f7ff fef5 	bl	80019c0 <readdata>
 8001bd6:	4628      	mov	r0, r5
 8001bd8:	bd38      	pop	{r3, r4, r5, pc}
 8001bda:	bf00      	nop
 8001bdc:	20000880 	.word	0x20000880

08001be0 <readDetectedPassiveTargetID>:
 8001be0:	b570      	push	{r4, r5, r6, lr}
 8001be2:	4c0d      	ldr	r4, [pc, #52]	@ (8001c18 <readDetectedPassiveTargetID+0x38>)
 8001be4:	4605      	mov	r5, r0
 8001be6:	460e      	mov	r6, r1
 8001be8:	4620      	mov	r0, r4
 8001bea:	2114      	movs	r1, #20
 8001bec:	f7ff fee8 	bl	80019c0 <readdata>
 8001bf0:	79e3      	ldrb	r3, [r4, #7]
 8001bf2:	2b01      	cmp	r3, #1
 8001bf4:	d10d      	bne.n	8001c12 <readDetectedPassiveTargetID+0x32>
 8001bf6:	2200      	movs	r2, #0
 8001bf8:	7b23      	ldrb	r3, [r4, #12]
 8001bfa:	7033      	strb	r3, [r6, #0]
 8001bfc:	7b21      	ldrb	r1, [r4, #12]
 8001bfe:	b2d3      	uxtb	r3, r2
 8001c00:	4299      	cmp	r1, r3
 8001c02:	d801      	bhi.n	8001c08 <readDetectedPassiveTargetID+0x28>
 8001c04:	2001      	movs	r0, #1
 8001c06:	bd70      	pop	{r4, r5, r6, pc}
 8001c08:	18e1      	adds	r1, r4, r3
 8001c0a:	7b49      	ldrb	r1, [r1, #13]
 8001c0c:	3201      	adds	r2, #1
 8001c0e:	54e9      	strb	r1, [r5, r3]
 8001c10:	e7f4      	b.n	8001bfc <readDetectedPassiveTargetID+0x1c>
 8001c12:	2000      	movs	r0, #0
 8001c14:	e7f7      	b.n	8001c06 <readDetectedPassiveTargetID+0x26>
 8001c16:	bf00      	nop
 8001c18:	20000880 	.word	0x20000880

08001c1c <readPassiveTargetID>:
 8001c1c:	b570      	push	{r4, r5, r6, lr}
 8001c1e:	4616      	mov	r6, r2
 8001c20:	224a      	movs	r2, #74	@ 0x4a
 8001c22:	461c      	mov	r4, r3
 8001c24:	4b10      	ldr	r3, [pc, #64]	@ (8001c68 <readPassiveTargetID+0x4c>)
 8001c26:	f5b4 7f7a 	cmp.w	r4, #1000	@ 0x3e8
 8001c2a:	701a      	strb	r2, [r3, #0]
 8001c2c:	f04f 0201 	mov.w	r2, #1
 8001c30:	460d      	mov	r5, r1
 8001c32:	705a      	strb	r2, [r3, #1]
 8001c34:	7098      	strb	r0, [r3, #2]
 8001c36:	4622      	mov	r2, r4
 8001c38:	f04f 0103 	mov.w	r1, #3
 8001c3c:	bf28      	it	cs
 8001c3e:	f44f 727a 	movcs.w	r2, #1000	@ 0x3e8
 8001c42:	4618      	mov	r0, r3
 8001c44:	f7ff fef8 	bl	8001a38 <sendCommandCheckAck>
 8001c48:	b160      	cbz	r0, 8001c64 <readPassiveTargetID+0x48>
 8001c4a:	2032      	movs	r0, #50	@ 0x32
 8001c4c:	f000 fa14 	bl	8002078 <HAL_Delay>
 8001c50:	4620      	mov	r0, r4
 8001c52:	f7ff fe91 	bl	8001978 <waitready>
 8001c56:	b128      	cbz	r0, 8001c64 <readPassiveTargetID+0x48>
 8001c58:	4631      	mov	r1, r6
 8001c5a:	4628      	mov	r0, r5
 8001c5c:	e8bd 4070 	ldmia.w	sp!, {r4, r5, r6, lr}
 8001c60:	f7ff bfbe 	b.w	8001be0 <readDetectedPassiveTargetID>
 8001c64:	2000      	movs	r0, #0
 8001c66:	bd70      	pop	{r4, r5, r6, pc}
 8001c68:	20000880 	.word	0x20000880

08001c6c <HAL_MspInit>:
 8001c6c:	4b11      	ldr	r3, [pc, #68]	@ (8001cb4 <HAL_MspInit+0x48>)
 8001c6e:	b507      	push	{r0, r1, r2, lr}
 8001c70:	699a      	ldr	r2, [r3, #24]
 8001c72:	210f      	movs	r1, #15
 8001c74:	f042 0201 	orr.w	r2, r2, #1
 8001c78:	619a      	str	r2, [r3, #24]
 8001c7a:	699a      	ldr	r2, [r3, #24]
 8001c7c:	f06f 0001 	mvn.w	r0, #1
 8001c80:	f002 0201 	and.w	r2, r2, #1
 8001c84:	9200      	str	r2, [sp, #0]
 8001c86:	9a00      	ldr	r2, [sp, #0]
 8001c88:	69da      	ldr	r2, [r3, #28]
 8001c8a:	f042 5280 	orr.w	r2, r2, #268435456	@ 0x10000000
 8001c8e:	61da      	str	r2, [r3, #28]
 8001c90:	69db      	ldr	r3, [r3, #28]
 8001c92:	2200      	movs	r2, #0
 8001c94:	f003 5380 	and.w	r3, r3, #268435456	@ 0x10000000
 8001c98:	9301      	str	r3, [sp, #4]
 8001c9a:	9b01      	ldr	r3, [sp, #4]
 8001c9c:	f000 fa10 	bl	80020c0 <HAL_NVIC_SetPriority>
 8001ca0:	4a05      	ldr	r2, [pc, #20]	@ (8001cb8 <HAL_MspInit+0x4c>)
 8001ca2:	6853      	ldr	r3, [r2, #4]
 8001ca4:	f023 63e0 	bic.w	r3, r3, #117440512	@ 0x7000000
 8001ca8:	f043 7300 	orr.w	r3, r3, #33554432	@ 0x2000000
 8001cac:	6053      	str	r3, [r2, #4]
 8001cae:	b003      	add	sp, #12
 8001cb0:	f85d fb04 	ldr.w	pc, [sp], #4
 8001cb4:	40021000 	.word	0x40021000
 8001cb8:	40010000 	.word	0x40010000

08001cbc <HAL_I2C_MspInit>:
 8001cbc:	b510      	push	{r4, lr}
 8001cbe:	4604      	mov	r4, r0
 8001cc0:	b086      	sub	sp, #24
 8001cc2:	2210      	movs	r2, #16
 8001cc4:	2100      	movs	r1, #0
 8001cc6:	a802      	add	r0, sp, #8
 8001cc8:	f004 fefa 	bl	8006ac0 <memset>
 8001ccc:	6822      	ldr	r2, [r4, #0]
 8001cce:	4b11      	ldr	r3, [pc, #68]	@ (8001d14 <HAL_I2C_MspInit+0x58>)
 8001cd0:	429a      	cmp	r2, r3
 8001cd2:	d11c      	bne.n	8001d0e <HAL_I2C_MspInit+0x52>
 8001cd4:	4c10      	ldr	r4, [pc, #64]	@ (8001d18 <HAL_I2C_MspInit+0x5c>)
 8001cd6:	22c0      	movs	r2, #192	@ 0xc0
 8001cd8:	69a3      	ldr	r3, [r4, #24]
 8001cda:	4810      	ldr	r0, [pc, #64]	@ (8001d1c <HAL_I2C_MspInit+0x60>)
 8001cdc:	f043 0308 	orr.w	r3, r3, #8
 8001ce0:	61a3      	str	r3, [r4, #24]
 8001ce2:	69a3      	ldr	r3, [r4, #24]
 8001ce4:	a902      	add	r1, sp, #8
 8001ce6:	f003 0308 	and.w	r3, r3, #8
 8001cea:	9300      	str	r3, [sp, #0]
 8001cec:	9b00      	ldr	r3, [sp, #0]
 8001cee:	2312      	movs	r3, #18
 8001cf0:	e9cd 2302 	strd	r2, r3, [sp, #8]
 8001cf4:	2303      	movs	r3, #3
 8001cf6:	9305      	str	r3, [sp, #20]
 8001cf8:	f000 faac 	bl	8002254 <HAL_GPIO_Init>
 8001cfc:	69e3      	ldr	r3, [r4, #28]
 8001cfe:	f443 1300 	orr.w	r3, r3, #2097152	@ 0x200000
 8001d02:	61e3      	str	r3, [r4, #28]
 8001d04:	69e3      	ldr	r3, [r4, #28]
 8001d06:	f403 1300 	and.w	r3, r3, #2097152	@ 0x200000
 8001d0a:	9301      	str	r3, [sp, #4]
 8001d0c:	9b01      	ldr	r3, [sp, #4]
 8001d0e:	b006      	add	sp, #24
 8001d10:	bd10      	pop	{r4, pc}
 8001d12:	bf00      	nop
 8001d14:	40005400 	.word	0x40005400
 8001d18:	40021000 	.word	0x40021000
 8001d1c:	40010c00 	.word	0x40010c00

08001d20 <HAL_TIM_Base_MspInit>:
 8001d20:	6803      	ldr	r3, [r0, #0]
 8001d22:	b082      	sub	sp, #8
 8001d24:	f1b3 4f80 	cmp.w	r3, #1073741824	@ 0x40000000
 8001d28:	d10a      	bne.n	8001d40 <HAL_TIM_Base_MspInit+0x20>
 8001d2a:	f503 3304 	add.w	r3, r3, #135168	@ 0x21000
 8001d2e:	69da      	ldr	r2, [r3, #28]
 8001d30:	f042 0201 	orr.w	r2, r2, #1
 8001d34:	61da      	str	r2, [r3, #28]
 8001d36:	69db      	ldr	r3, [r3, #28]
 8001d38:	f003 0301 	and.w	r3, r3, #1
 8001d3c:	9301      	str	r3, [sp, #4]
 8001d3e:	9b01      	ldr	r3, [sp, #4]
 8001d40:	b002      	add	sp, #8
 8001d42:	4770      	bx	lr

08001d44 <HAL_UART_MspInit>:
 8001d44:	2210      	movs	r2, #16
 8001d46:	b510      	push	{r4, lr}
 8001d48:	4604      	mov	r4, r0
 8001d4a:	b088      	sub	sp, #32
 8001d4c:	eb0d 0002 	add.w	r0, sp, r2
 8001d50:	2100      	movs	r1, #0
 8001d52:	f004 feb5 	bl	8006ac0 <memset>
 8001d56:	6823      	ldr	r3, [r4, #0]
 8001d58:	4a32      	ldr	r2, [pc, #200]	@ (8001e24 <HAL_UART_MspInit+0xe0>)
 8001d5a:	4293      	cmp	r3, r2
 8001d5c:	d131      	bne.n	8001dc2 <HAL_UART_MspInit+0x7e>
 8001d5e:	4b32      	ldr	r3, [pc, #200]	@ (8001e28 <HAL_UART_MspInit+0xe4>)
 8001d60:	f44f 7100 	mov.w	r1, #512	@ 0x200
 8001d64:	699a      	ldr	r2, [r3, #24]
 8001d66:	4831      	ldr	r0, [pc, #196]	@ (8001e2c <HAL_UART_MspInit+0xe8>)
 8001d68:	f442 4280 	orr.w	r2, r2, #16384	@ 0x4000
 8001d6c:	619a      	str	r2, [r3, #24]
 8001d6e:	699a      	ldr	r2, [r3, #24]
 8001d70:	2400      	movs	r4, #0
 8001d72:	f402 4280 	and.w	r2, r2, #16384	@ 0x4000
 8001d76:	9200      	str	r2, [sp, #0]
 8001d78:	9a00      	ldr	r2, [sp, #0]
 8001d7a:	699a      	ldr	r2, [r3, #24]
 8001d7c:	f042 0204 	orr.w	r2, r2, #4
 8001d80:	619a      	str	r2, [r3, #24]
 8001d82:	699b      	ldr	r3, [r3, #24]
 8001d84:	f003 0304 	and.w	r3, r3, #4
 8001d88:	9301      	str	r3, [sp, #4]
 8001d8a:	9b01      	ldr	r3, [sp, #4]
 8001d8c:	2302      	movs	r3, #2
 8001d8e:	e9cd 1304 	strd	r1, r3, [sp, #16]
 8001d92:	2303      	movs	r3, #3
 8001d94:	a904      	add	r1, sp, #16
 8001d96:	9307      	str	r3, [sp, #28]
 8001d98:	f000 fa5c 	bl	8002254 <HAL_GPIO_Init>
 8001d9c:	f44f 6380 	mov.w	r3, #1024	@ 0x400
 8001da0:	4822      	ldr	r0, [pc, #136]	@ (8001e2c <HAL_UART_MspInit+0xe8>)
 8001da2:	a904      	add	r1, sp, #16
 8001da4:	e9cd 3404 	strd	r3, r4, [sp, #16]
 8001da8:	9406      	str	r4, [sp, #24]
 8001daa:	f000 fa53 	bl	8002254 <HAL_GPIO_Init>
 8001dae:	2025      	movs	r0, #37	@ 0x25
 8001db0:	4622      	mov	r2, r4
 8001db2:	2105      	movs	r1, #5
 8001db4:	f000 f984 	bl	80020c0 <HAL_NVIC_SetPriority>
 8001db8:	2025      	movs	r0, #37	@ 0x25
 8001dba:	f000 f9b1 	bl	8002120 <HAL_NVIC_EnableIRQ>
 8001dbe:	b008      	add	sp, #32
 8001dc0:	bd10      	pop	{r4, pc}
 8001dc2:	4a1b      	ldr	r2, [pc, #108]	@ (8001e30 <HAL_UART_MspInit+0xec>)
 8001dc4:	4293      	cmp	r3, r2
 8001dc6:	d1fa      	bne.n	8001dbe <HAL_UART_MspInit+0x7a>
 8001dc8:	4b17      	ldr	r3, [pc, #92]	@ (8001e28 <HAL_UART_MspInit+0xe4>)
 8001dca:	4818      	ldr	r0, [pc, #96]	@ (8001e2c <HAL_UART_MspInit+0xe8>)
 8001dcc:	69da      	ldr	r2, [r3, #28]
 8001dce:	a904      	add	r1, sp, #16
 8001dd0:	f442 3200 	orr.w	r2, r2, #131072	@ 0x20000
 8001dd4:	61da      	str	r2, [r3, #28]
 8001dd6:	69da      	ldr	r2, [r3, #28]
 8001dd8:	2400      	movs	r4, #0
 8001dda:	f402 3200 	and.w	r2, r2, #131072	@ 0x20000
 8001dde:	9202      	str	r2, [sp, #8]
 8001de0:	9a02      	ldr	r2, [sp, #8]
 8001de2:	699a      	ldr	r2, [r3, #24]
 8001de4:	f042 0204 	orr.w	r2, r2, #4
 8001de8:	619a      	str	r2, [r3, #24]
 8001dea:	699b      	ldr	r3, [r3, #24]
 8001dec:	2204      	movs	r2, #4
 8001dee:	f003 0304 	and.w	r3, r3, #4
 8001df2:	9303      	str	r3, [sp, #12]
 8001df4:	9b03      	ldr	r3, [sp, #12]
 8001df6:	2302      	movs	r3, #2
 8001df8:	e9cd 2304 	strd	r2, r3, [sp, #16]
 8001dfc:	2303      	movs	r3, #3
 8001dfe:	9307      	str	r3, [sp, #28]
 8001e00:	f000 fa28 	bl	8002254 <HAL_GPIO_Init>
 8001e04:	2308      	movs	r3, #8
 8001e06:	4809      	ldr	r0, [pc, #36]	@ (8001e2c <HAL_UART_MspInit+0xe8>)
 8001e08:	a904      	add	r1, sp, #16
 8001e0a:	e9cd 3404 	strd	r3, r4, [sp, #16]
 8001e0e:	9406      	str	r4, [sp, #24]
 8001e10:	f000 fa20 	bl	8002254 <HAL_GPIO_Init>
 8001e14:	2026      	movs	r0, #38	@ 0x26
 8001e16:	4622      	mov	r2, r4
 8001e18:	2105      	movs	r1, #5
 8001e1a:	f000 f951 	bl	80020c0 <HAL_NVIC_SetPriority>
 8001e1e:	2026      	movs	r0, #38	@ 0x26
 8001e20:	e7cb      	b.n	8001dba <HAL_UART_MspInit+0x76>
 8001e22:	bf00      	nop
 8001e24:	40013800 	.word	0x40013800
 8001e28:	40021000 	.word	0x40021000
 8001e2c:	40010800 	.word	0x40010800
 8001e30:	40004400 	.word	0x40004400

08001e34 <HAL_UART_MspDeInit>:
 8001e34:	b508      	push	{r3, lr}
 8001e36:	4a12      	ldr	r2, [pc, #72]	@ (8001e80 <HAL_UART_MspDeInit+0x4c>)
 8001e38:	6803      	ldr	r3, [r0, #0]
 8001e3a:	4293      	cmp	r3, r2
 8001e3c:	d10f      	bne.n	8001e5e <HAL_UART_MspDeInit+0x2a>
 8001e3e:	f502 4258 	add.w	r2, r2, #55296	@ 0xd800
 8001e42:	6993      	ldr	r3, [r2, #24]
 8001e44:	480f      	ldr	r0, [pc, #60]	@ (8001e84 <HAL_UART_MspDeInit+0x50>)
 8001e46:	f423 4380 	bic.w	r3, r3, #16384	@ 0x4000
 8001e4a:	f44f 61c0 	mov.w	r1, #1536	@ 0x600
 8001e4e:	6193      	str	r3, [r2, #24]
 8001e50:	f000 fad4 	bl	80023fc <HAL_GPIO_DeInit>
 8001e54:	2025      	movs	r0, #37	@ 0x25
 8001e56:	e8bd 4008 	ldmia.w	sp!, {r3, lr}
 8001e5a:	f000 b96f 	b.w	800213c <HAL_NVIC_DisableIRQ>
 8001e5e:	4a0a      	ldr	r2, [pc, #40]	@ (8001e88 <HAL_UART_MspDeInit+0x54>)
 8001e60:	4293      	cmp	r3, r2
 8001e62:	d10b      	bne.n	8001e7c <HAL_UART_MspDeInit+0x48>
 8001e64:	f502 32e6 	add.w	r2, r2, #117760	@ 0x1cc00
 8001e68:	69d3      	ldr	r3, [r2, #28]
 8001e6a:	4806      	ldr	r0, [pc, #24]	@ (8001e84 <HAL_UART_MspDeInit+0x50>)
 8001e6c:	f423 3300 	bic.w	r3, r3, #131072	@ 0x20000
 8001e70:	210c      	movs	r1, #12
 8001e72:	61d3      	str	r3, [r2, #28]
 8001e74:	f000 fac2 	bl	80023fc <HAL_GPIO_DeInit>
 8001e78:	2026      	movs	r0, #38	@ 0x26
 8001e7a:	e7ec      	b.n	8001e56 <HAL_UART_MspDeInit+0x22>
 8001e7c:	bd08      	pop	{r3, pc}
 8001e7e:	bf00      	nop
 8001e80:	40013800 	.word	0x40013800
 8001e84:	40010800 	.word	0x40010800
 8001e88:	40004400 	.word	0x40004400

08001e8c <NMI_Handler>:
 8001e8c:	e7fe      	b.n	8001e8c <NMI_Handler>

08001e8e <HardFault_Handler>:
 8001e8e:	e7fe      	b.n	8001e8e <HardFault_Handler>

08001e90 <MemManage_Handler>:
 8001e90:	e7fe      	b.n	8001e90 <MemManage_Handler>

08001e92 <BusFault_Handler>:
 8001e92:	e7fe      	b.n	8001e92 <BusFault_Handler>

08001e94 <UsageFault_Handler>:
 8001e94:	e7fe      	b.n	8001e94 <UsageFault_Handler>

08001e96 <DebugMon_Handler>:
 8001e96:	4770      	bx	lr

08001e98 <SysTick_Handler>:
 8001e98:	b508      	push	{r3, lr}
 8001e9a:	f000 f8db 	bl	8002054 <HAL_IncTick>
 8001e9e:	f003 fb15 	bl	80054cc <xTaskGetSchedulerState>
 8001ea2:	2801      	cmp	r0, #1
 8001ea4:	d003      	beq.n	8001eae <SysTick_Handler+0x16>
 8001ea6:	e8bd 4008 	ldmia.w	sp!, {r3, lr}
 8001eaa:	f003 beb3 	b.w	8005c14 <xPortSysTickHandler>
 8001eae:	bd08      	pop	{r3, pc}

08001eb0 <USART1_IRQHandler>:
 8001eb0:	4801      	ldr	r0, [pc, #4]	@ (8001eb8 <USART1_IRQHandler+0x8>)
 8001eb2:	f001 bcbb 	b.w	800382c <HAL_UART_IRQHandler>
 8001eb6:	bf00      	nop
 8001eb8:	20000790 	.word	0x20000790

08001ebc <USART2_IRQHandler>:
 8001ebc:	4801      	ldr	r0, [pc, #4]	@ (8001ec4 <USART2_IRQHandler+0x8>)
 8001ebe:	f001 bcb5 	b.w	800382c <HAL_UART_IRQHandler>
 8001ec2:	bf00      	nop
 8001ec4:	20000748 	.word	0x20000748

08001ec8 <HAL_UART_RxCpltCallback>:
 8001ec8:	6802      	ldr	r2, [r0, #0]
 8001eca:	4b04      	ldr	r3, [pc, #16]	@ (8001edc <HAL_UART_RxCpltCallback+0x14>)
 8001ecc:	429a      	cmp	r2, r3
 8001ece:	d104      	bne.n	8001eda <HAL_UART_RxCpltCallback+0x12>
 8001ed0:	4b03      	ldr	r3, [pc, #12]	@ (8001ee0 <HAL_UART_RxCpltCallback+0x18>)
 8001ed2:	4804      	ldr	r0, [pc, #16]	@ (8001ee4 <HAL_UART_RxCpltCallback+0x1c>)
 8001ed4:	7819      	ldrb	r1, [r3, #0]
 8001ed6:	f7ff bb69 	b.w	80015ac <Modbus_UART_RxCallback>
 8001eda:	4770      	bx	lr
 8001edc:	40004400 	.word	0x40004400
 8001ee0:	20000878 	.word	0x20000878
 8001ee4:	200002a0 	.word	0x200002a0

08001ee8 <_getpid>:
 8001ee8:	2001      	movs	r0, #1
 8001eea:	4770      	bx	lr

08001eec <_kill>:
 8001eec:	b508      	push	{r3, lr}
 8001eee:	f004 fe39 	bl	8006b64 <__errno>
 8001ef2:	2316      	movs	r3, #22
 8001ef4:	6003      	str	r3, [r0, #0]
 8001ef6:	f04f 30ff 	mov.w	r0, #4294967295
 8001efa:	bd08      	pop	{r3, pc}

08001efc <_exit>:
 8001efc:	b508      	push	{r3, lr}
 8001efe:	f004 fe31 	bl	8006b64 <__errno>
 8001f02:	2316      	movs	r3, #22
 8001f04:	6003      	str	r3, [r0, #0]
 8001f06:	e7fe      	b.n	8001f06 <_exit+0xa>

08001f08 <_read>:
 8001f08:	b570      	push	{r4, r5, r6, lr}
 8001f0a:	460d      	mov	r5, r1
 8001f0c:	4614      	mov	r4, r2
 8001f0e:	460e      	mov	r6, r1
 8001f10:	1b73      	subs	r3, r6, r5
 8001f12:	429c      	cmp	r4, r3
 8001f14:	dc01      	bgt.n	8001f1a <_read+0x12>
 8001f16:	4620      	mov	r0, r4
 8001f18:	bd70      	pop	{r4, r5, r6, pc}
 8001f1a:	f3af 8000 	nop.w
 8001f1e:	f806 0b01 	strb.w	r0, [r6], #1
 8001f22:	e7f5      	b.n	8001f10 <_read+0x8>

08001f24 <_write>:
 8001f24:	b570      	push	{r4, r5, r6, lr}
 8001f26:	460d      	mov	r5, r1
 8001f28:	4614      	mov	r4, r2
 8001f2a:	460e      	mov	r6, r1
 8001f2c:	1b73      	subs	r3, r6, r5
 8001f2e:	429c      	cmp	r4, r3
 8001f30:	dc01      	bgt.n	8001f36 <_write+0x12>
 8001f32:	4620      	mov	r0, r4
 8001f34:	bd70      	pop	{r4, r5, r6, pc}
 8001f36:	f816 0b01 	ldrb.w	r0, [r6], #1
 8001f3a:	f3af 8000 	nop.w
 8001f3e:	e7f5      	b.n	8001f2c <_write+0x8>

08001f40 <_close>:
 8001f40:	f04f 30ff 	mov.w	r0, #4294967295
 8001f44:	4770      	bx	lr

08001f46 <_fstat>:
 8001f46:	f44f 5300 	mov.w	r3, #8192	@ 0x2000
 8001f4a:	2000      	movs	r0, #0
 8001f4c:	604b      	str	r3, [r1, #4]
 8001f4e:	4770      	bx	lr

08001f50 <_isatty>:
 8001f50:	2001      	movs	r0, #1
 8001f52:	4770      	bx	lr

08001f54 <_lseek>:
 8001f54:	2000      	movs	r0, #0
 8001f56:	4770      	bx	lr

08001f58 <_sbrk>:
 8001f58:	4a0b      	ldr	r2, [pc, #44]	@ (8001f88 <_sbrk+0x30>)
 8001f5a:	4603      	mov	r3, r0
 8001f5c:	6811      	ldr	r1, [r2, #0]
 8001f5e:	b510      	push	{r4, lr}
 8001f60:	b909      	cbnz	r1, 8001f66 <_sbrk+0xe>
 8001f62:	490a      	ldr	r1, [pc, #40]	@ (8001f8c <_sbrk+0x34>)
 8001f64:	6011      	str	r1, [r2, #0]
 8001f66:	6810      	ldr	r0, [r2, #0]
 8001f68:	4909      	ldr	r1, [pc, #36]	@ (8001f90 <_sbrk+0x38>)
 8001f6a:	4c0a      	ldr	r4, [pc, #40]	@ (8001f94 <_sbrk+0x3c>)
 8001f6c:	4403      	add	r3, r0
 8001f6e:	1b09      	subs	r1, r1, r4
 8001f70:	428b      	cmp	r3, r1
 8001f72:	d906      	bls.n	8001f82 <_sbrk+0x2a>
 8001f74:	f004 fdf6 	bl	8006b64 <__errno>
 8001f78:	230c      	movs	r3, #12
 8001f7a:	6003      	str	r3, [r0, #0]
 8001f7c:	f04f 30ff 	mov.w	r0, #4294967295
 8001f80:	bd10      	pop	{r4, pc}
 8001f82:	6013      	str	r3, [r2, #0]
 8001f84:	e7fc      	b.n	8001f80 <_sbrk+0x28>
 8001f86:	bf00      	nop
 8001f88:	200008c0 	.word	0x200008c0
 8001f8c:	20003f60 	.word	0x20003f60
 8001f90:	20005000 	.word	0x20005000
 8001f94:	00000400 	.word	0x00000400

08001f98 <SystemInit>:
 8001f98:	4770      	bx	lr
	...

08001f9c <Reset_Handler>:
 8001f9c:	f7ff fffc 	bl	8001f98 <SystemInit>
 8001fa0:	480b      	ldr	r0, [pc, #44]	@ (8001fd0 <LoopFillZerobss+0xe>)
 8001fa2:	490c      	ldr	r1, [pc, #48]	@ (8001fd4 <LoopFillZerobss+0x12>)
 8001fa4:	4a0c      	ldr	r2, [pc, #48]	@ (8001fd8 <LoopFillZerobss+0x16>)
 8001fa6:	2300      	movs	r3, #0
 8001fa8:	e002      	b.n	8001fb0 <LoopCopyDataInit>

08001faa <CopyDataInit>:
 8001faa:	58d4      	ldr	r4, [r2, r3]
 8001fac:	50c4      	str	r4, [r0, r3]
 8001fae:	3304      	adds	r3, #4

08001fb0 <LoopCopyDataInit>:
 8001fb0:	18c4      	adds	r4, r0, r3
 8001fb2:	428c      	cmp	r4, r1
 8001fb4:	d3f9      	bcc.n	8001faa <CopyDataInit>
 8001fb6:	4a09      	ldr	r2, [pc, #36]	@ (8001fdc <LoopFillZerobss+0x1a>)
 8001fb8:	4c09      	ldr	r4, [pc, #36]	@ (8001fe0 <LoopFillZerobss+0x1e>)
 8001fba:	2300      	movs	r3, #0
 8001fbc:	e001      	b.n	8001fc2 <LoopFillZerobss>

08001fbe <FillZerobss>:
 8001fbe:	6013      	str	r3, [r2, #0]
 8001fc0:	3204      	adds	r2, #4

08001fc2 <LoopFillZerobss>:
 8001fc2:	42a2      	cmp	r2, r4
 8001fc4:	d3fb      	bcc.n	8001fbe <FillZerobss>
 8001fc6:	f004 fdd3 	bl	8006b70 <__libc_init_array>
 8001fca:	f7ff f8c5 	bl	8001158 <main>
 8001fce:	4770      	bx	lr
 8001fd0:	20000000 	.word	0x20000000
 8001fd4:	200001e0 	.word	0x200001e0
 8001fd8:	080094cc 	.word	0x080094cc
 8001fdc:	200001e0 	.word	0x200001e0
 8001fe0:	20003f60 	.word	0x20003f60

08001fe4 <ADC1_2_IRQHandler>:
 8001fe4:	e7fe      	b.n	8001fe4 <ADC1_2_IRQHandler>
	...

08001fe8 <HAL_InitTick>:
 8001fe8:	b538      	push	{r3, r4, r5, lr}
 8001fea:	4b0e      	ldr	r3, [pc, #56]	@ (8002024 <HAL_InitTick+0x3c>)
 8001fec:	4605      	mov	r5, r0
 8001fee:	781a      	ldrb	r2, [r3, #0]
 8001ff0:	f44f 737a 	mov.w	r3, #1000	@ 0x3e8
 8001ff4:	fbb3 f3f2 	udiv	r3, r3, r2
 8001ff8:	4a0b      	ldr	r2, [pc, #44]	@ (8002028 <HAL_InitTick+0x40>)
 8001ffa:	6810      	ldr	r0, [r2, #0]
 8001ffc:	fbb0 f0f3 	udiv	r0, r0, r3
 8002000:	f000 f8ae 	bl	8002160 <HAL_SYSTICK_Config>
 8002004:	4604      	mov	r4, r0
 8002006:	b958      	cbnz	r0, 8002020 <HAL_InitTick+0x38>
 8002008:	2d0f      	cmp	r5, #15
 800200a:	d809      	bhi.n	8002020 <HAL_InitTick+0x38>
 800200c:	4602      	mov	r2, r0
 800200e:	4629      	mov	r1, r5
 8002010:	f04f 30ff 	mov.w	r0, #4294967295
 8002014:	f000 f854 	bl	80020c0 <HAL_NVIC_SetPriority>
 8002018:	4620      	mov	r0, r4
 800201a:	4b04      	ldr	r3, [pc, #16]	@ (800202c <HAL_InitTick+0x44>)
 800201c:	601d      	str	r5, [r3, #0]
 800201e:	bd38      	pop	{r3, r4, r5, pc}
 8002020:	2001      	movs	r0, #1
 8002022:	e7fc      	b.n	800201e <HAL_InitTick+0x36>
 8002024:	2000000c 	.word	0x2000000c
 8002028:	20000008 	.word	0x20000008
 800202c:	20000010 	.word	0x20000010

08002030 <HAL_Init>:
 8002030:	4a07      	ldr	r2, [pc, #28]	@ (8002050 <HAL_Init+0x20>)
 8002032:	b508      	push	{r3, lr}
 8002034:	6813      	ldr	r3, [r2, #0]
 8002036:	2003      	movs	r0, #3
 8002038:	f043 0310 	orr.w	r3, r3, #16
 800203c:	6013      	str	r3, [r2, #0]
 800203e:	f000 f82d 	bl	800209c <HAL_NVIC_SetPriorityGrouping>
 8002042:	200f      	movs	r0, #15
 8002044:	f7ff ffd0 	bl	8001fe8 <HAL_InitTick>
 8002048:	f7ff fe10 	bl	8001c6c <HAL_MspInit>
 800204c:	2000      	movs	r0, #0
 800204e:	bd08      	pop	{r3, pc}
 8002050:	40022000 	.word	0x40022000

08002054 <HAL_IncTick>:
 8002054:	4a03      	ldr	r2, [pc, #12]	@ (8002064 <HAL_IncTick+0x10>)
 8002056:	4b04      	ldr	r3, [pc, #16]	@ (8002068 <HAL_IncTick+0x14>)
 8002058:	6811      	ldr	r1, [r2, #0]
 800205a:	781b      	ldrb	r3, [r3, #0]
 800205c:	440b      	add	r3, r1
 800205e:	6013      	str	r3, [r2, #0]
 8002060:	4770      	bx	lr
 8002062:	bf00      	nop
 8002064:	200008c4 	.word	0x200008c4
 8002068:	2000000c 	.word	0x2000000c

0800206c <HAL_GetTick>:
 800206c:	4b01      	ldr	r3, [pc, #4]	@ (8002074 <HAL_GetTick+0x8>)
 800206e:	6818      	ldr	r0, [r3, #0]
 8002070:	4770      	bx	lr
 8002072:	bf00      	nop
 8002074:	200008c4 	.word	0x200008c4

08002078 <HAL_Delay>:
 8002078:	b538      	push	{r3, r4, r5, lr}
 800207a:	4604      	mov	r4, r0
 800207c:	f7ff fff6 	bl	800206c <HAL_GetTick>
 8002080:	4605      	mov	r5, r0
 8002082:	1c63      	adds	r3, r4, #1
 8002084:	bf1e      	ittt	ne
 8002086:	4b04      	ldrne	r3, [pc, #16]	@ (8002098 <HAL_Delay+0x20>)
 8002088:	781b      	ldrbne	r3, [r3, #0]
 800208a:	18e4      	addne	r4, r4, r3
 800208c:	f7ff ffee 	bl	800206c <HAL_GetTick>
 8002090:	1b43      	subs	r3, r0, r5
 8002092:	42a3      	cmp	r3, r4
 8002094:	d3fa      	bcc.n	800208c <HAL_Delay+0x14>
 8002096:	bd38      	pop	{r3, r4, r5, pc}
 8002098:	2000000c 	.word	0x2000000c

0800209c <HAL_NVIC_SetPriorityGrouping>:
 800209c:	4907      	ldr	r1, [pc, #28]	@ (80020bc <HAL_NVIC_SetPriorityGrouping+0x20>)
 800209e:	0203      	lsls	r3, r0, #8
 80020a0:	68ca      	ldr	r2, [r1, #12]
 80020a2:	f403 63e0 	and.w	r3, r3, #1792	@ 0x700
 80020a6:	f422 62e0 	bic.w	r2, r2, #1792	@ 0x700
 80020aa:	0412      	lsls	r2, r2, #16
 80020ac:	0c12      	lsrs	r2, r2, #16
 80020ae:	4313      	orrs	r3, r2
 80020b0:	f043 63bf 	orr.w	r3, r3, #100139008	@ 0x5f80000
 80020b4:	f443 3300 	orr.w	r3, r3, #131072	@ 0x20000
 80020b8:	60cb      	str	r3, [r1, #12]
 80020ba:	4770      	bx	lr
 80020bc:	e000ed00 	.word	0xe000ed00

080020c0 <HAL_NVIC_SetPriority>:
 80020c0:	4b15      	ldr	r3, [pc, #84]	@ (8002118 <HAL_NVIC_SetPriority+0x58>)
 80020c2:	b530      	push	{r4, r5, lr}
 80020c4:	68dc      	ldr	r4, [r3, #12]
 80020c6:	f3c4 2402 	ubfx	r4, r4, #8, #3
 80020ca:	f1c4 0307 	rsb	r3, r4, #7
 80020ce:	1d25      	adds	r5, r4, #4
 80020d0:	2b04      	cmp	r3, #4
 80020d2:	bf28      	it	cs
 80020d4:	2304      	movcs	r3, #4
 80020d6:	2d06      	cmp	r5, #6
 80020d8:	f04f 35ff 	mov.w	r5, #4294967295
 80020dc:	bf94      	ite	ls
 80020de:	2400      	movls	r4, #0
 80020e0:	3c03      	subhi	r4, #3
 80020e2:	fa05 f303 	lsl.w	r3, r5, r3
 80020e6:	ea21 0303 	bic.w	r3, r1, r3
 80020ea:	40a5      	lsls	r5, r4
 80020ec:	ea22 0205 	bic.w	r2, r2, r5
 80020f0:	40a3      	lsls	r3, r4
 80020f2:	2800      	cmp	r0, #0
 80020f4:	ea43 0302 	orr.w	r3, r3, r2
 80020f8:	bfac      	ite	ge
 80020fa:	f100 4060 	addge.w	r0, r0, #3758096384	@ 0xe0000000
 80020fe:	4a07      	ldrlt	r2, [pc, #28]	@ (800211c <HAL_NVIC_SetPriority+0x5c>)
 8002100:	ea4f 1303 	mov.w	r3, r3, lsl #4
 8002104:	b2db      	uxtb	r3, r3
 8002106:	bfab      	itete	ge
 8002108:	f500 4061 	addge.w	r0, r0, #57600	@ 0xe100
 800210c:	f000 000f 	andlt.w	r0, r0, #15
 8002110:	f880 3300 	strbge.w	r3, [r0, #768]	@ 0x300
 8002114:	5413      	strblt	r3, [r2, r0]
 8002116:	bd30      	pop	{r4, r5, pc}
 8002118:	e000ed00 	.word	0xe000ed00
 800211c:	e000ed14 	.word	0xe000ed14

08002120 <HAL_NVIC_EnableIRQ>:
 8002120:	2800      	cmp	r0, #0
 8002122:	db07      	blt.n	8002134 <HAL_NVIC_EnableIRQ+0x14>
 8002124:	2301      	movs	r3, #1
 8002126:	0941      	lsrs	r1, r0, #5
 8002128:	4a03      	ldr	r2, [pc, #12]	@ (8002138 <HAL_NVIC_EnableIRQ+0x18>)
 800212a:	f000 001f 	and.w	r0, r0, #31
 800212e:	4083      	lsls	r3, r0
 8002130:	f842 3021 	str.w	r3, [r2, r1, lsl #2]
 8002134:	4770      	bx	lr
 8002136:	bf00      	nop
 8002138:	e000e100 	.word	0xe000e100

0800213c <HAL_NVIC_DisableIRQ>:
 800213c:	2800      	cmp	r0, #0
 800213e:	db0c      	blt.n	800215a <HAL_NVIC_DisableIRQ+0x1e>
 8002140:	2201      	movs	r2, #1
 8002142:	4906      	ldr	r1, [pc, #24]	@ (800215c <HAL_NVIC_DisableIRQ+0x20>)
 8002144:	0943      	lsrs	r3, r0, #5
 8002146:	f000 001f 	and.w	r0, r0, #31
 800214a:	4082      	lsls	r2, r0
 800214c:	3320      	adds	r3, #32
 800214e:	f841 2023 	str.w	r2, [r1, r3, lsl #2]
 8002152:	f3bf 8f4f 	dsb	sy
 8002156:	f3bf 8f6f 	isb	sy
 800215a:	4770      	bx	lr
 800215c:	e000e100 	.word	0xe000e100

08002160 <HAL_SYSTICK_Config>:
 8002160:	3801      	subs	r0, #1
 8002162:	f1b0 7f80 	cmp.w	r0, #16777216	@ 0x1000000
 8002166:	d20b      	bcs.n	8002180 <HAL_SYSTICK_Config+0x20>
 8002168:	f04f 23e0 	mov.w	r3, #3758153728	@ 0xe000e000
 800216c:	21f0      	movs	r1, #240	@ 0xf0
 800216e:	4a05      	ldr	r2, [pc, #20]	@ (8002184 <HAL_SYSTICK_Config+0x24>)
 8002170:	6158      	str	r0, [r3, #20]
 8002172:	f882 1023 	strb.w	r1, [r2, #35]	@ 0x23
 8002176:	2000      	movs	r0, #0
 8002178:	2207      	movs	r2, #7
 800217a:	6198      	str	r0, [r3, #24]
 800217c:	611a      	str	r2, [r3, #16]
 800217e:	4770      	bx	lr
 8002180:	2001      	movs	r0, #1
 8002182:	4770      	bx	lr
 8002184:	e000ed00 	.word	0xe000ed00

08002188 <HAL_DMA_Abort>:
 8002188:	f890 2021 	ldrb.w	r2, [r0, #33]	@ 0x21
 800218c:	4603      	mov	r3, r0
 800218e:	2a02      	cmp	r2, #2
 8002190:	d006      	beq.n	80021a0 <HAL_DMA_Abort+0x18>
 8002192:	2204      	movs	r2, #4
 8002194:	6382      	str	r2, [r0, #56]	@ 0x38
 8002196:	2001      	movs	r0, #1
 8002198:	2200      	movs	r2, #0
 800219a:	f883 2020 	strb.w	r2, [r3, #32]
 800219e:	4770      	bx	lr
 80021a0:	6802      	ldr	r2, [r0, #0]
 80021a2:	6bc0      	ldr	r0, [r0, #60]	@ 0x3c
 80021a4:	6811      	ldr	r1, [r2, #0]
 80021a6:	f021 010e 	bic.w	r1, r1, #14
 80021aa:	6011      	str	r1, [r2, #0]
 80021ac:	6811      	ldr	r1, [r2, #0]
 80021ae:	f021 0101 	bic.w	r1, r1, #1
 80021b2:	6011      	str	r1, [r2, #0]
 80021b4:	2101      	movs	r1, #1
 80021b6:	6c1a      	ldr	r2, [r3, #64]	@ 0x40
 80021b8:	fa01 f202 	lsl.w	r2, r1, r2
 80021bc:	6042      	str	r2, [r0, #4]
 80021be:	2000      	movs	r0, #0
 80021c0:	f883 1021 	strb.w	r1, [r3, #33]	@ 0x21
 80021c4:	e7e8      	b.n	8002198 <HAL_DMA_Abort+0x10>
	...

080021c8 <HAL_DMA_Abort_IT>:
 80021c8:	b508      	push	{r3, lr}
 80021ca:	f890 3021 	ldrb.w	r3, [r0, #33]	@ 0x21
 80021ce:	2b02      	cmp	r3, #2
 80021d0:	d003      	beq.n	80021da <HAL_DMA_Abort_IT+0x12>
 80021d2:	2304      	movs	r3, #4
 80021d4:	6383      	str	r3, [r0, #56]	@ 0x38
 80021d6:	2001      	movs	r0, #1
 80021d8:	bd08      	pop	{r3, pc}
 80021da:	6803      	ldr	r3, [r0, #0]
 80021dc:	681a      	ldr	r2, [r3, #0]
 80021de:	f022 020e 	bic.w	r2, r2, #14
 80021e2:	601a      	str	r2, [r3, #0]
 80021e4:	681a      	ldr	r2, [r3, #0]
 80021e6:	f022 0201 	bic.w	r2, r2, #1
 80021ea:	601a      	str	r2, [r3, #0]
 80021ec:	4a17      	ldr	r2, [pc, #92]	@ (800224c <HAL_DMA_Abort_IT+0x84>)
 80021ee:	4293      	cmp	r3, r2
 80021f0:	d01f      	beq.n	8002232 <HAL_DMA_Abort_IT+0x6a>
 80021f2:	3214      	adds	r2, #20
 80021f4:	4293      	cmp	r3, r2
 80021f6:	d01e      	beq.n	8002236 <HAL_DMA_Abort_IT+0x6e>
 80021f8:	3214      	adds	r2, #20
 80021fa:	4293      	cmp	r3, r2
 80021fc:	d01d      	beq.n	800223a <HAL_DMA_Abort_IT+0x72>
 80021fe:	3214      	adds	r2, #20
 8002200:	4293      	cmp	r3, r2
 8002202:	d01d      	beq.n	8002240 <HAL_DMA_Abort_IT+0x78>
 8002204:	3214      	adds	r2, #20
 8002206:	4293      	cmp	r3, r2
 8002208:	d01d      	beq.n	8002246 <HAL_DMA_Abort_IT+0x7e>
 800220a:	3214      	adds	r2, #20
 800220c:	4293      	cmp	r3, r2
 800220e:	bf14      	ite	ne
 8002210:	f04f 7380 	movne.w	r3, #16777216	@ 0x1000000
 8002214:	f44f 1380 	moveq.w	r3, #1048576	@ 0x100000
 8002218:	4a0d      	ldr	r2, [pc, #52]	@ (8002250 <HAL_DMA_Abort_IT+0x88>)
 800221a:	6053      	str	r3, [r2, #4]
 800221c:	2301      	movs	r3, #1
 800221e:	f880 3021 	strb.w	r3, [r0, #33]	@ 0x21
 8002222:	2300      	movs	r3, #0
 8002224:	f880 3020 	strb.w	r3, [r0, #32]
 8002228:	6b43      	ldr	r3, [r0, #52]	@ 0x34
 800222a:	b103      	cbz	r3, 800222e <HAL_DMA_Abort_IT+0x66>
 800222c:	4798      	blx	r3
 800222e:	2000      	movs	r0, #0
 8002230:	e7d2      	b.n	80021d8 <HAL_DMA_Abort_IT+0x10>
 8002232:	2301      	movs	r3, #1
 8002234:	e7f0      	b.n	8002218 <HAL_DMA_Abort_IT+0x50>
 8002236:	2310      	movs	r3, #16
 8002238:	e7ee      	b.n	8002218 <HAL_DMA_Abort_IT+0x50>
 800223a:	f44f 7380 	mov.w	r3, #256	@ 0x100
 800223e:	e7eb      	b.n	8002218 <HAL_DMA_Abort_IT+0x50>
 8002240:	f44f 5380 	mov.w	r3, #4096	@ 0x1000
 8002244:	e7e8      	b.n	8002218 <HAL_DMA_Abort_IT+0x50>
 8002246:	f44f 3380 	mov.w	r3, #65536	@ 0x10000
 800224a:	e7e5      	b.n	8002218 <HAL_DMA_Abort_IT+0x50>
 800224c:	40020008 	.word	0x40020008
 8002250:	40020000 	.word	0x40020000

08002254 <HAL_GPIO_Init>:
 8002254:	e92d 4ff7 	stmdb	sp!, {r0, r1, r2, r4, r5, r6, r7, r8, r9, sl, fp, lr}
 8002258:	2400      	movs	r4, #0
 800225a:	f04f 0e0f 	mov.w	lr, #15
 800225e:	4626      	mov	r6, r4
 8002260:	f8df c184 	ldr.w	ip, [pc, #388]	@ 80023e8 <HAL_GPIO_Init+0x194>
 8002264:	4b61      	ldr	r3, [pc, #388]	@ (80023ec <HAL_GPIO_Init+0x198>)
 8002266:	f100 0804 	add.w	r8, r0, #4
 800226a:	680a      	ldr	r2, [r1, #0]
 800226c:	fa32 f506 	lsrs.w	r5, r2, r6
 8002270:	d102      	bne.n	8002278 <HAL_GPIO_Init+0x24>
 8002272:	b003      	add	sp, #12
 8002274:	e8bd 8ff0 	ldmia.w	sp!, {r4, r5, r6, r7, r8, r9, sl, fp, pc}
 8002278:	2501      	movs	r5, #1
 800227a:	fa05 f706 	lsl.w	r7, r5, r6
 800227e:	ea02 0507 	and.w	r5, r2, r7
 8002282:	ea37 0202 	bics.w	r2, r7, r2
 8002286:	d176      	bne.n	8002376 <HAL_GPIO_Init+0x122>
 8002288:	684a      	ldr	r2, [r1, #4]
 800228a:	2a03      	cmp	r2, #3
 800228c:	d807      	bhi.n	800229e <HAL_GPIO_Init+0x4a>
 800228e:	3a01      	subs	r2, #1
 8002290:	2a02      	cmp	r2, #2
 8002292:	f200 8083 	bhi.w	800239c <HAL_GPIO_Init+0x148>
 8002296:	e8df f002 	tbb	[pc, r2]
 800229a:	9691      	.short	0x9691
 800229c:	9c          	.byte	0x9c
 800229d:	00          	.byte	0x00
 800229e:	2a12      	cmp	r2, #18
 80022a0:	f000 8094 	beq.w	80023cc <HAL_GPIO_Init+0x178>
 80022a4:	d869      	bhi.n	800237a <HAL_GPIO_Init+0x126>
 80022a6:	2a11      	cmp	r2, #17
 80022a8:	f000 808a 	beq.w	80023c0 <HAL_GPIO_Init+0x16c>
 80022ac:	2dff      	cmp	r5, #255	@ 0xff
 80022ae:	bf94      	ite	ls
 80022b0:	4681      	movls	r9, r0
 80022b2:	46c1      	movhi	r9, r8
 80022b4:	ea4f 0286 	mov.w	r2, r6, lsl #2
 80022b8:	f8d9 7000 	ldr.w	r7, [r9]
 80022bc:	bf88      	it	hi
 80022be:	3a20      	subhi	r2, #32
 80022c0:	fa0e fa02 	lsl.w	sl, lr, r2
 80022c4:	ea27 070a 	bic.w	r7, r7, sl
 80022c8:	fa04 f202 	lsl.w	r2, r4, r2
 80022cc:	4317      	orrs	r7, r2
 80022ce:	f8c9 7000 	str.w	r7, [r9]
 80022d2:	f8d1 9004 	ldr.w	r9, [r1, #4]
 80022d6:	f019 5f80 	tst.w	r9, #268435456	@ 0x10000000
 80022da:	d04c      	beq.n	8002376 <HAL_GPIO_Init+0x122>
 80022dc:	f8dc 2018 	ldr.w	r2, [ip, #24]
 80022e0:	f026 0703 	bic.w	r7, r6, #3
 80022e4:	f042 0201 	orr.w	r2, r2, #1
 80022e8:	f8cc 2018 	str.w	r2, [ip, #24]
 80022ec:	f8dc 2018 	ldr.w	r2, [ip, #24]
 80022f0:	f107 4780 	add.w	r7, r7, #1073741824	@ 0x40000000
 80022f4:	f002 0201 	and.w	r2, r2, #1
 80022f8:	9201      	str	r2, [sp, #4]
 80022fa:	f507 3780 	add.w	r7, r7, #65536	@ 0x10000
 80022fe:	f006 0a03 	and.w	sl, r6, #3
 8002302:	9a01      	ldr	r2, [sp, #4]
 8002304:	ea4f 0a8a 	mov.w	sl, sl, lsl #2
 8002308:	68ba      	ldr	r2, [r7, #8]
 800230a:	fa0e fb0a 	lsl.w	fp, lr, sl
 800230e:	ea22 0b0b 	bic.w	fp, r2, fp
 8002312:	4a37      	ldr	r2, [pc, #220]	@ (80023f0 <HAL_GPIO_Init+0x19c>)
 8002314:	4290      	cmp	r0, r2
 8002316:	d060      	beq.n	80023da <HAL_GPIO_Init+0x186>
 8002318:	f502 6280 	add.w	r2, r2, #1024	@ 0x400
 800231c:	4290      	cmp	r0, r2
 800231e:	d05e      	beq.n	80023de <HAL_GPIO_Init+0x18a>
 8002320:	f502 6280 	add.w	r2, r2, #1024	@ 0x400
 8002324:	4290      	cmp	r0, r2
 8002326:	d05c      	beq.n	80023e2 <HAL_GPIO_Init+0x18e>
 8002328:	f502 6280 	add.w	r2, r2, #1024	@ 0x400
 800232c:	4290      	cmp	r0, r2
 800232e:	bf14      	ite	ne
 8002330:	2204      	movne	r2, #4
 8002332:	2203      	moveq	r2, #3
 8002334:	fa02 f20a 	lsl.w	r2, r2, sl
 8002338:	ea42 020b 	orr.w	r2, r2, fp
 800233c:	60ba      	str	r2, [r7, #8]
 800233e:	689a      	ldr	r2, [r3, #8]
 8002340:	f419 1f80 	tst.w	r9, #1048576	@ 0x100000
 8002344:	bf14      	ite	ne
 8002346:	432a      	orrne	r2, r5
 8002348:	43aa      	biceq	r2, r5
 800234a:	609a      	str	r2, [r3, #8]
 800234c:	68da      	ldr	r2, [r3, #12]
 800234e:	f419 1f00 	tst.w	r9, #2097152	@ 0x200000
 8002352:	bf14      	ite	ne
 8002354:	432a      	orrne	r2, r5
 8002356:	43aa      	biceq	r2, r5
 8002358:	60da      	str	r2, [r3, #12]
 800235a:	685a      	ldr	r2, [r3, #4]
 800235c:	f419 3f00 	tst.w	r9, #131072	@ 0x20000
 8002360:	bf14      	ite	ne
 8002362:	432a      	orrne	r2, r5
 8002364:	43aa      	biceq	r2, r5
 8002366:	605a      	str	r2, [r3, #4]
 8002368:	681a      	ldr	r2, [r3, #0]
 800236a:	f419 3f80 	tst.w	r9, #65536	@ 0x10000
 800236e:	bf14      	ite	ne
 8002370:	432a      	orrne	r2, r5
 8002372:	43aa      	biceq	r2, r5
 8002374:	601a      	str	r2, [r3, #0]
 8002376:	3601      	adds	r6, #1
 8002378:	e777      	b.n	800226a <HAL_GPIO_Init+0x16>
 800237a:	f8df 9078 	ldr.w	r9, [pc, #120]	@ 80023f4 <HAL_GPIO_Init+0x1a0>
 800237e:	454a      	cmp	r2, r9
 8002380:	d00c      	beq.n	800239c <HAL_GPIO_Init+0x148>
 8002382:	d814      	bhi.n	80023ae <HAL_GPIO_Init+0x15a>
 8002384:	f5a9 1980 	sub.w	r9, r9, #1048576	@ 0x100000
 8002388:	454a      	cmp	r2, r9
 800238a:	d007      	beq.n	800239c <HAL_GPIO_Init+0x148>
 800238c:	f509 2970 	add.w	r9, r9, #983040	@ 0xf0000
 8002390:	454a      	cmp	r2, r9
 8002392:	d003      	beq.n	800239c <HAL_GPIO_Init+0x148>
 8002394:	f5a9 1980 	sub.w	r9, r9, #1048576	@ 0x100000
 8002398:	454a      	cmp	r2, r9
 800239a:	d187      	bne.n	80022ac <HAL_GPIO_Init+0x58>
 800239c:	688a      	ldr	r2, [r1, #8]
 800239e:	b1d2      	cbz	r2, 80023d6 <HAL_GPIO_Init+0x182>
 80023a0:	2a01      	cmp	r2, #1
 80023a2:	f04f 0408 	mov.w	r4, #8
 80023a6:	bf0c      	ite	eq
 80023a8:	6107      	streq	r7, [r0, #16]
 80023aa:	6147      	strne	r7, [r0, #20]
 80023ac:	e77e      	b.n	80022ac <HAL_GPIO_Init+0x58>
 80023ae:	f8df 9048 	ldr.w	r9, [pc, #72]	@ 80023f8 <HAL_GPIO_Init+0x1a4>
 80023b2:	454a      	cmp	r2, r9
 80023b4:	d0f2      	beq.n	800239c <HAL_GPIO_Init+0x148>
 80023b6:	f509 3980 	add.w	r9, r9, #65536	@ 0x10000
 80023ba:	e7ed      	b.n	8002398 <HAL_GPIO_Init+0x144>
 80023bc:	68cc      	ldr	r4, [r1, #12]
 80023be:	e775      	b.n	80022ac <HAL_GPIO_Init+0x58>
 80023c0:	68cc      	ldr	r4, [r1, #12]
 80023c2:	3404      	adds	r4, #4
 80023c4:	e772      	b.n	80022ac <HAL_GPIO_Init+0x58>
 80023c6:	68cc      	ldr	r4, [r1, #12]
 80023c8:	3408      	adds	r4, #8
 80023ca:	e76f      	b.n	80022ac <HAL_GPIO_Init+0x58>
 80023cc:	68cc      	ldr	r4, [r1, #12]
 80023ce:	340c      	adds	r4, #12
 80023d0:	e76c      	b.n	80022ac <HAL_GPIO_Init+0x58>
 80023d2:	2400      	movs	r4, #0
 80023d4:	e76a      	b.n	80022ac <HAL_GPIO_Init+0x58>
 80023d6:	2404      	movs	r4, #4
 80023d8:	e768      	b.n	80022ac <HAL_GPIO_Init+0x58>
 80023da:	2200      	movs	r2, #0
 80023dc:	e7aa      	b.n	8002334 <HAL_GPIO_Init+0xe0>
 80023de:	2201      	movs	r2, #1
 80023e0:	e7a8      	b.n	8002334 <HAL_GPIO_Init+0xe0>
 80023e2:	2202      	movs	r2, #2
 80023e4:	e7a6      	b.n	8002334 <HAL_GPIO_Init+0xe0>
 80023e6:	bf00      	nop
 80023e8:	40021000 	.word	0x40021000
 80023ec:	40010400 	.word	0x40010400
 80023f0:	40010800 	.word	0x40010800
 80023f4:	10220000 	.word	0x10220000
 80023f8:	10310000 	.word	0x10310000

080023fc <HAL_GPIO_DeInit>:
 80023fc:	e92d 4ff7 	stmdb	sp!, {r0, r1, r2, r4, r5, r6, r7, r8, r9, sl, fp, lr}
 8002400:	f04f 0b04 	mov.w	fp, #4
 8002404:	2200      	movs	r2, #0
 8002406:	f04f 0a01 	mov.w	sl, #1
 800240a:	f04f 080f 	mov.w	r8, #15
 800240e:	eb00 030b 	add.w	r3, r0, fp
 8002412:	9301      	str	r3, [sp, #4]
 8002414:	4b2e      	ldr	r3, [pc, #184]	@ (80024d0 <HAL_GPIO_DeInit+0xd4>)
 8002416:	fa31 f402 	lsrs.w	r4, r1, r2
 800241a:	d102      	bne.n	8002422 <HAL_GPIO_DeInit+0x26>
 800241c:	b003      	add	sp, #12
 800241e:	e8bd 8ff0 	ldmia.w	sp!, {r4, r5, r6, r7, r8, r9, sl, fp, pc}
 8002422:	fa0a f702 	lsl.w	r7, sl, r2
 8002426:	400f      	ands	r7, r1
 8002428:	d049      	beq.n	80024be <HAL_GPIO_DeInit+0xc2>
 800242a:	f022 0403 	bic.w	r4, r2, #3
 800242e:	f104 4480 	add.w	r4, r4, #1073741824	@ 0x40000000
 8002432:	f504 3480 	add.w	r4, r4, #65536	@ 0x10000
 8002436:	f002 0c03 	and.w	ip, r2, #3
 800243a:	68a5      	ldr	r5, [r4, #8]
 800243c:	ea4f 0c8c 	mov.w	ip, ip, lsl #2
 8002440:	fa08 f90c 	lsl.w	r9, r8, ip
 8002444:	ea09 0e05 	and.w	lr, r9, r5
 8002448:	4d22      	ldr	r5, [pc, #136]	@ (80024d4 <HAL_GPIO_DeInit+0xd8>)
 800244a:	42a8      	cmp	r0, r5
 800244c:	d039      	beq.n	80024c2 <HAL_GPIO_DeInit+0xc6>
 800244e:	f505 6580 	add.w	r5, r5, #1024	@ 0x400
 8002452:	42a8      	cmp	r0, r5
 8002454:	d037      	beq.n	80024c6 <HAL_GPIO_DeInit+0xca>
 8002456:	f505 6580 	add.w	r5, r5, #1024	@ 0x400
 800245a:	42a8      	cmp	r0, r5
 800245c:	d035      	beq.n	80024ca <HAL_GPIO_DeInit+0xce>
 800245e:	f505 6580 	add.w	r5, r5, #1024	@ 0x400
 8002462:	42a8      	cmp	r0, r5
 8002464:	bf14      	ite	ne
 8002466:	2504      	movne	r5, #4
 8002468:	2503      	moveq	r5, #3
 800246a:	fa05 f50c 	lsl.w	r5, r5, ip
 800246e:	4575      	cmp	r5, lr
 8002470:	ea6f 0607 	mvn.w	r6, r7
 8002474:	d10f      	bne.n	8002496 <HAL_GPIO_DeInit+0x9a>
 8002476:	681d      	ldr	r5, [r3, #0]
 8002478:	4035      	ands	r5, r6
 800247a:	601d      	str	r5, [r3, #0]
 800247c:	685d      	ldr	r5, [r3, #4]
 800247e:	4035      	ands	r5, r6
 8002480:	605d      	str	r5, [r3, #4]
 8002482:	68dd      	ldr	r5, [r3, #12]
 8002484:	4035      	ands	r5, r6
 8002486:	60dd      	str	r5, [r3, #12]
 8002488:	689d      	ldr	r5, [r3, #8]
 800248a:	4035      	ands	r5, r6
 800248c:	609d      	str	r5, [r3, #8]
 800248e:	68a5      	ldr	r5, [r4, #8]
 8002490:	ea25 0509 	bic.w	r5, r5, r9
 8002494:	60a5      	str	r5, [r4, #8]
 8002496:	2fff      	cmp	r7, #255	@ 0xff
 8002498:	bf94      	ite	ls
 800249a:	4607      	movls	r7, r0
 800249c:	9f01      	ldrhi	r7, [sp, #4]
 800249e:	ea4f 0482 	mov.w	r4, r2, lsl #2
 80024a2:	683d      	ldr	r5, [r7, #0]
 80024a4:	bf88      	it	hi
 80024a6:	3c20      	subhi	r4, #32
 80024a8:	fa08 fc04 	lsl.w	ip, r8, r4
 80024ac:	ea25 050c 	bic.w	r5, r5, ip
 80024b0:	fa0b f404 	lsl.w	r4, fp, r4
 80024b4:	4325      	orrs	r5, r4
 80024b6:	603d      	str	r5, [r7, #0]
 80024b8:	68c4      	ldr	r4, [r0, #12]
 80024ba:	4034      	ands	r4, r6
 80024bc:	60c4      	str	r4, [r0, #12]
 80024be:	3201      	adds	r2, #1
 80024c0:	e7a9      	b.n	8002416 <HAL_GPIO_DeInit+0x1a>
 80024c2:	2500      	movs	r5, #0
 80024c4:	e7d1      	b.n	800246a <HAL_GPIO_DeInit+0x6e>
 80024c6:	2501      	movs	r5, #1
 80024c8:	e7cf      	b.n	800246a <HAL_GPIO_DeInit+0x6e>
 80024ca:	2502      	movs	r5, #2
 80024cc:	e7cd      	b.n	800246a <HAL_GPIO_DeInit+0x6e>
 80024ce:	bf00      	nop
 80024d0:	40010400 	.word	0x40010400
 80024d4:	40010800 	.word	0x40010800

080024d8 <HAL_GPIO_ReadPin>:
 80024d8:	6883      	ldr	r3, [r0, #8]
 80024da:	4219      	tst	r1, r3
 80024dc:	bf14      	ite	ne
 80024de:	2001      	movne	r0, #1
 80024e0:	2000      	moveq	r0, #0
 80024e2:	4770      	bx	lr

080024e4 <HAL_GPIO_WritePin>:
 80024e4:	b10a      	cbz	r2, 80024ea <HAL_GPIO_WritePin+0x6>
 80024e6:	6101      	str	r1, [r0, #16]
 80024e8:	4770      	bx	lr
 80024ea:	0409      	lsls	r1, r1, #16
 80024ec:	e7fb      	b.n	80024e6 <HAL_GPIO_WritePin+0x2>

080024ee <HAL_GPIO_TogglePin>:
 80024ee:	68c3      	ldr	r3, [r0, #12]
 80024f0:	ea01 0203 	and.w	r2, r1, r3
 80024f4:	ea21 0103 	bic.w	r1, r1, r3
 80024f8:	ea41 4102 	orr.w	r1, r1, r2, lsl #16
 80024fc:	6101      	str	r1, [r0, #16]
 80024fe:	4770      	bx	lr

08002500 <I2C_IsAcknowledgeFailed>:
 8002500:	6801      	ldr	r1, [r0, #0]
 8002502:	2200      	movs	r2, #0
 8002504:	694b      	ldr	r3, [r1, #20]
 8002506:	f413 6380 	ands.w	r3, r3, #1024	@ 0x400
 800250a:	d010      	beq.n	800252e <I2C_IsAcknowledgeFailed+0x2e>
 800250c:	f46f 6380 	mvn.w	r3, #1024	@ 0x400
 8002510:	614b      	str	r3, [r1, #20]
 8002512:	2320      	movs	r3, #32
 8002514:	6302      	str	r2, [r0, #48]	@ 0x30
 8002516:	f880 303d 	strb.w	r3, [r0, #61]	@ 0x3d
 800251a:	f880 203e 	strb.w	r2, [r0, #62]	@ 0x3e
 800251e:	6c03      	ldr	r3, [r0, #64]	@ 0x40
 8002520:	f880 203c 	strb.w	r2, [r0, #60]	@ 0x3c
 8002524:	f043 0304 	orr.w	r3, r3, #4
 8002528:	6403      	str	r3, [r0, #64]	@ 0x40
 800252a:	2001      	movs	r0, #1
 800252c:	4770      	bx	lr
 800252e:	4618      	mov	r0, r3
 8002530:	4770      	bx	lr

08002532 <I2C_WaitOnFlagUntilTimeout>:
 8002532:	e92d 46f8 	stmdb	sp!, {r3, r4, r5, r6, r7, r9, sl, lr}
 8002536:	4606      	mov	r6, r0
 8002538:	460f      	mov	r7, r1
 800253a:	4691      	mov	r9, r2
 800253c:	461d      	mov	r5, r3
 800253e:	ea4f 4a11 	mov.w	sl, r1, lsr #16
 8002542:	6833      	ldr	r3, [r6, #0]
 8002544:	f1ba 0f01 	cmp.w	sl, #1
 8002548:	bf0c      	ite	eq
 800254a:	695c      	ldreq	r4, [r3, #20]
 800254c:	699c      	ldrne	r4, [r3, #24]
 800254e:	ea27 0404 	bic.w	r4, r7, r4
 8002552:	b2a4      	uxth	r4, r4
 8002554:	fab4 f484 	clz	r4, r4
 8002558:	0964      	lsrs	r4, r4, #5
 800255a:	45a1      	cmp	r9, r4
 800255c:	d001      	beq.n	8002562 <I2C_WaitOnFlagUntilTimeout+0x30>
 800255e:	2000      	movs	r0, #0
 8002560:	e025      	b.n	80025ae <I2C_WaitOnFlagUntilTimeout+0x7c>
 8002562:	1c6a      	adds	r2, r5, #1
 8002564:	d0ee      	beq.n	8002544 <I2C_WaitOnFlagUntilTimeout+0x12>
 8002566:	f7ff fd81 	bl	800206c <HAL_GetTick>
 800256a:	9b08      	ldr	r3, [sp, #32]
 800256c:	1ac0      	subs	r0, r0, r3
 800256e:	42a8      	cmp	r0, r5
 8002570:	d801      	bhi.n	8002576 <I2C_WaitOnFlagUntilTimeout+0x44>
 8002572:	2d00      	cmp	r5, #0
 8002574:	d1e5      	bne.n	8002542 <I2C_WaitOnFlagUntilTimeout+0x10>
 8002576:	6833      	ldr	r3, [r6, #0]
 8002578:	f1ba 0f01 	cmp.w	sl, #1
 800257c:	bf0c      	ite	eq
 800257e:	695b      	ldreq	r3, [r3, #20]
 8002580:	699b      	ldrne	r3, [r3, #24]
 8002582:	ea27 0303 	bic.w	r3, r7, r3
 8002586:	b29b      	uxth	r3, r3
 8002588:	fab3 f383 	clz	r3, r3
 800258c:	095b      	lsrs	r3, r3, #5
 800258e:	4599      	cmp	r9, r3
 8002590:	d1d7      	bne.n	8002542 <I2C_WaitOnFlagUntilTimeout+0x10>
 8002592:	2300      	movs	r3, #0
 8002594:	2220      	movs	r2, #32
 8002596:	2001      	movs	r0, #1
 8002598:	6333      	str	r3, [r6, #48]	@ 0x30
 800259a:	f886 203d 	strb.w	r2, [r6, #61]	@ 0x3d
 800259e:	f886 303e 	strb.w	r3, [r6, #62]	@ 0x3e
 80025a2:	6c32      	ldr	r2, [r6, #64]	@ 0x40
 80025a4:	f886 303c 	strb.w	r3, [r6, #60]	@ 0x3c
 80025a8:	f042 0220 	orr.w	r2, r2, #32
 80025ac:	6432      	str	r2, [r6, #64]	@ 0x40
 80025ae:	e8bd 86f8 	ldmia.w	sp!, {r3, r4, r5, r6, r7, r9, sl, pc}

080025b2 <I2C_WaitOnMasterAddressFlagUntilTimeout>:
 80025b2:	e92d 41f0 	stmdb	sp!, {r4, r5, r6, r7, r8, lr}
 80025b6:	4604      	mov	r4, r0
 80025b8:	460f      	mov	r7, r1
 80025ba:	4616      	mov	r6, r2
 80025bc:	4698      	mov	r8, r3
 80025be:	6825      	ldr	r5, [r4, #0]
 80025c0:	6968      	ldr	r0, [r5, #20]
 80025c2:	ea27 0000 	bic.w	r0, r7, r0
 80025c6:	b280      	uxth	r0, r0
 80025c8:	b1c0      	cbz	r0, 80025fc <I2C_WaitOnMasterAddressFlagUntilTimeout+0x4a>
 80025ca:	696b      	ldr	r3, [r5, #20]
 80025cc:	055a      	lsls	r2, r3, #21
 80025ce:	d517      	bpl.n	8002600 <I2C_WaitOnMasterAddressFlagUntilTimeout+0x4e>
 80025d0:	682b      	ldr	r3, [r5, #0]
 80025d2:	2220      	movs	r2, #32
 80025d4:	f443 7300 	orr.w	r3, r3, #512	@ 0x200
 80025d8:	602b      	str	r3, [r5, #0]
 80025da:	f46f 6380 	mvn.w	r3, #1024	@ 0x400
 80025de:	616b      	str	r3, [r5, #20]
 80025e0:	2300      	movs	r3, #0
 80025e2:	6323      	str	r3, [r4, #48]	@ 0x30
 80025e4:	f884 203d 	strb.w	r2, [r4, #61]	@ 0x3d
 80025e8:	f884 303e 	strb.w	r3, [r4, #62]	@ 0x3e
 80025ec:	6c23      	ldr	r3, [r4, #64]	@ 0x40
 80025ee:	f043 0304 	orr.w	r3, r3, #4
 80025f2:	6423      	str	r3, [r4, #64]	@ 0x40
 80025f4:	2300      	movs	r3, #0
 80025f6:	2001      	movs	r0, #1
 80025f8:	f884 303c 	strb.w	r3, [r4, #60]	@ 0x3c
 80025fc:	e8bd 81f0 	ldmia.w	sp!, {r4, r5, r6, r7, r8, pc}
 8002600:	1c73      	adds	r3, r6, #1
 8002602:	d0dd      	beq.n	80025c0 <I2C_WaitOnMasterAddressFlagUntilTimeout+0xe>
 8002604:	f7ff fd32 	bl	800206c <HAL_GetTick>
 8002608:	eba0 0008 	sub.w	r0, r0, r8
 800260c:	42b0      	cmp	r0, r6
 800260e:	d801      	bhi.n	8002614 <I2C_WaitOnMasterAddressFlagUntilTimeout+0x62>
 8002610:	2e00      	cmp	r6, #0
 8002612:	d1d4      	bne.n	80025be <I2C_WaitOnMasterAddressFlagUntilTimeout+0xc>
 8002614:	6823      	ldr	r3, [r4, #0]
 8002616:	695a      	ldr	r2, [r3, #20]
 8002618:	ea27 0202 	bic.w	r2, r7, r2
 800261c:	b292      	uxth	r2, r2
 800261e:	2a00      	cmp	r2, #0
 8002620:	d0cd      	beq.n	80025be <I2C_WaitOnMasterAddressFlagUntilTimeout+0xc>
 8002622:	2300      	movs	r3, #0
 8002624:	2220      	movs	r2, #32
 8002626:	6323      	str	r3, [r4, #48]	@ 0x30
 8002628:	f884 203d 	strb.w	r2, [r4, #61]	@ 0x3d
 800262c:	f884 303e 	strb.w	r3, [r4, #62]	@ 0x3e
 8002630:	6c23      	ldr	r3, [r4, #64]	@ 0x40
 8002632:	4313      	orrs	r3, r2
 8002634:	e7dd      	b.n	80025f2 <I2C_WaitOnMasterAddressFlagUntilTimeout+0x40>

08002636 <I2C_WaitOnTXEFlagUntilTimeout>:
 8002636:	b570      	push	{r4, r5, r6, lr}
 8002638:	4604      	mov	r4, r0
 800263a:	460d      	mov	r5, r1
 800263c:	4616      	mov	r6, r2
 800263e:	6823      	ldr	r3, [r4, #0]
 8002640:	695b      	ldr	r3, [r3, #20]
 8002642:	061b      	lsls	r3, r3, #24
 8002644:	d501      	bpl.n	800264a <I2C_WaitOnTXEFlagUntilTimeout+0x14>
 8002646:	2000      	movs	r0, #0
 8002648:	e01e      	b.n	8002688 <I2C_WaitOnTXEFlagUntilTimeout+0x52>
 800264a:	4620      	mov	r0, r4
 800264c:	f7ff ff58 	bl	8002500 <I2C_IsAcknowledgeFailed>
 8002650:	b9c8      	cbnz	r0, 8002686 <I2C_WaitOnTXEFlagUntilTimeout+0x50>
 8002652:	1c6a      	adds	r2, r5, #1
 8002654:	d0f3      	beq.n	800263e <I2C_WaitOnTXEFlagUntilTimeout+0x8>
 8002656:	f7ff fd09 	bl	800206c <HAL_GetTick>
 800265a:	1b80      	subs	r0, r0, r6
 800265c:	42a8      	cmp	r0, r5
 800265e:	d801      	bhi.n	8002664 <I2C_WaitOnTXEFlagUntilTimeout+0x2e>
 8002660:	2d00      	cmp	r5, #0
 8002662:	d1ec      	bne.n	800263e <I2C_WaitOnTXEFlagUntilTimeout+0x8>
 8002664:	6823      	ldr	r3, [r4, #0]
 8002666:	695b      	ldr	r3, [r3, #20]
 8002668:	f013 0380 	ands.w	r3, r3, #128	@ 0x80
 800266c:	d1e7      	bne.n	800263e <I2C_WaitOnTXEFlagUntilTimeout+0x8>
 800266e:	2220      	movs	r2, #32
 8002670:	6323      	str	r3, [r4, #48]	@ 0x30
 8002672:	f884 203d 	strb.w	r2, [r4, #61]	@ 0x3d
 8002676:	f884 303e 	strb.w	r3, [r4, #62]	@ 0x3e
 800267a:	6c22      	ldr	r2, [r4, #64]	@ 0x40
 800267c:	f884 303c 	strb.w	r3, [r4, #60]	@ 0x3c
 8002680:	f042 0220 	orr.w	r2, r2, #32
 8002684:	6422      	str	r2, [r4, #64]	@ 0x40
 8002686:	2001      	movs	r0, #1
 8002688:	bd70      	pop	{r4, r5, r6, pc}

0800268a <I2C_WaitOnBTFFlagUntilTimeout>:
 800268a:	b570      	push	{r4, r5, r6, lr}
 800268c:	4604      	mov	r4, r0
 800268e:	460d      	mov	r5, r1
 8002690:	4616      	mov	r6, r2
 8002692:	6823      	ldr	r3, [r4, #0]
 8002694:	695b      	ldr	r3, [r3, #20]
 8002696:	075b      	lsls	r3, r3, #29
 8002698:	d501      	bpl.n	800269e <I2C_WaitOnBTFFlagUntilTimeout+0x14>
 800269a:	2000      	movs	r0, #0
 800269c:	e01e      	b.n	80026dc <I2C_WaitOnBTFFlagUntilTimeout+0x52>
 800269e:	4620      	mov	r0, r4
 80026a0:	f7ff ff2e 	bl	8002500 <I2C_IsAcknowledgeFailed>
 80026a4:	b9c8      	cbnz	r0, 80026da <I2C_WaitOnBTFFlagUntilTimeout+0x50>
 80026a6:	1c6a      	adds	r2, r5, #1
 80026a8:	d0f3      	beq.n	8002692 <I2C_WaitOnBTFFlagUntilTimeout+0x8>
 80026aa:	f7ff fcdf 	bl	800206c <HAL_GetTick>
 80026ae:	1b80      	subs	r0, r0, r6
 80026b0:	42a8      	cmp	r0, r5
 80026b2:	d801      	bhi.n	80026b8 <I2C_WaitOnBTFFlagUntilTimeout+0x2e>
 80026b4:	2d00      	cmp	r5, #0
 80026b6:	d1ec      	bne.n	8002692 <I2C_WaitOnBTFFlagUntilTimeout+0x8>
 80026b8:	6823      	ldr	r3, [r4, #0]
 80026ba:	695b      	ldr	r3, [r3, #20]
 80026bc:	f013 0304 	ands.w	r3, r3, #4
 80026c0:	d1e7      	bne.n	8002692 <I2C_WaitOnBTFFlagUntilTimeout+0x8>
 80026c2:	2220      	movs	r2, #32
 80026c4:	6323      	str	r3, [r4, #48]	@ 0x30
 80026c6:	f884 203d 	strb.w	r2, [r4, #61]	@ 0x3d
 80026ca:	f884 303e 	strb.w	r3, [r4, #62]	@ 0x3e
 80026ce:	6c22      	ldr	r2, [r4, #64]	@ 0x40
 80026d0:	f884 303c 	strb.w	r3, [r4, #60]	@ 0x3c
 80026d4:	f042 0220 	orr.w	r2, r2, #32
 80026d8:	6422      	str	r2, [r4, #64]	@ 0x40
 80026da:	2001      	movs	r0, #1
 80026dc:	bd70      	pop	{r4, r5, r6, pc}

080026de <I2C_WaitOnRXNEFlagUntilTimeout>:
 80026de:	b570      	push	{r4, r5, r6, lr}
 80026e0:	4604      	mov	r4, r0
 80026e2:	460d      	mov	r5, r1
 80026e4:	4616      	mov	r6, r2
 80026e6:	6821      	ldr	r1, [r4, #0]
 80026e8:	694b      	ldr	r3, [r1, #20]
 80026ea:	f013 0340 	ands.w	r3, r3, #64	@ 0x40
 80026ee:	d001      	beq.n	80026f4 <I2C_WaitOnRXNEFlagUntilTimeout+0x16>
 80026f0:	2000      	movs	r0, #0
 80026f2:	e011      	b.n	8002718 <I2C_WaitOnRXNEFlagUntilTimeout+0x3a>
 80026f4:	694a      	ldr	r2, [r1, #20]
 80026f6:	06d2      	lsls	r2, r2, #27
 80026f8:	d50f      	bpl.n	800271a <I2C_WaitOnRXNEFlagUntilTimeout+0x3c>
 80026fa:	f06f 0210 	mvn.w	r2, #16
 80026fe:	614a      	str	r2, [r1, #20]
 8002700:	2220      	movs	r2, #32
 8002702:	6323      	str	r3, [r4, #48]	@ 0x30
 8002704:	f884 203d 	strb.w	r2, [r4, #61]	@ 0x3d
 8002708:	f884 303e 	strb.w	r3, [r4, #62]	@ 0x3e
 800270c:	6c23      	ldr	r3, [r4, #64]	@ 0x40
 800270e:	6423      	str	r3, [r4, #64]	@ 0x40
 8002710:	2300      	movs	r3, #0
 8002712:	2001      	movs	r0, #1
 8002714:	f884 303c 	strb.w	r3, [r4, #60]	@ 0x3c
 8002718:	bd70      	pop	{r4, r5, r6, pc}
 800271a:	f7ff fca7 	bl	800206c <HAL_GetTick>
 800271e:	1b80      	subs	r0, r0, r6
 8002720:	42a8      	cmp	r0, r5
 8002722:	d801      	bhi.n	8002728 <I2C_WaitOnRXNEFlagUntilTimeout+0x4a>
 8002724:	2d00      	cmp	r5, #0
 8002726:	d1de      	bne.n	80026e6 <I2C_WaitOnRXNEFlagUntilTimeout+0x8>
 8002728:	6823      	ldr	r3, [r4, #0]
 800272a:	695b      	ldr	r3, [r3, #20]
 800272c:	f013 0340 	ands.w	r3, r3, #64	@ 0x40
 8002730:	d1d9      	bne.n	80026e6 <I2C_WaitOnRXNEFlagUntilTimeout+0x8>
 8002732:	2220      	movs	r2, #32
 8002734:	6323      	str	r3, [r4, #48]	@ 0x30
 8002736:	f884 203d 	strb.w	r2, [r4, #61]	@ 0x3d
 800273a:	f884 303e 	strb.w	r3, [r4, #62]	@ 0x3e
 800273e:	6c23      	ldr	r3, [r4, #64]	@ 0x40
 8002740:	4313      	orrs	r3, r2
 8002742:	e7e4      	b.n	800270e <I2C_WaitOnRXNEFlagUntilTimeout+0x30>

08002744 <HAL_I2C_Init>:
 8002744:	b570      	push	{r4, r5, r6, lr}
 8002746:	4604      	mov	r4, r0
 8002748:	b908      	cbnz	r0, 800274e <HAL_I2C_Init+0xa>
 800274a:	2001      	movs	r0, #1
 800274c:	bd70      	pop	{r4, r5, r6, pc}
 800274e:	f890 303d 	ldrb.w	r3, [r0, #61]	@ 0x3d
 8002752:	f003 02ff 	and.w	r2, r3, #255	@ 0xff
 8002756:	b91b      	cbnz	r3, 8002760 <HAL_I2C_Init+0x1c>
 8002758:	f880 203c 	strb.w	r2, [r0, #60]	@ 0x3c
 800275c:	f7ff faae 	bl	8001cbc <HAL_I2C_MspInit>
 8002760:	2324      	movs	r3, #36	@ 0x24
 8002762:	f884 303d 	strb.w	r3, [r4, #61]	@ 0x3d
 8002766:	6823      	ldr	r3, [r4, #0]
 8002768:	681a      	ldr	r2, [r3, #0]
 800276a:	f022 0201 	bic.w	r2, r2, #1
 800276e:	601a      	str	r2, [r3, #0]
 8002770:	681a      	ldr	r2, [r3, #0]
 8002772:	f442 4200 	orr.w	r2, r2, #32768	@ 0x8000
 8002776:	601a      	str	r2, [r3, #0]
 8002778:	681a      	ldr	r2, [r3, #0]
 800277a:	f422 4200 	bic.w	r2, r2, #32768	@ 0x8000
 800277e:	601a      	str	r2, [r3, #0]
 8002780:	f000 fd6c 	bl	800325c <HAL_RCC_GetPCLK1Freq>
 8002784:	4b3f      	ldr	r3, [pc, #252]	@ (8002884 <HAL_I2C_Init+0x140>)
 8002786:	6865      	ldr	r5, [r4, #4]
 8002788:	429d      	cmp	r5, r3
 800278a:	bf94      	ite	ls
 800278c:	4b3e      	ldrls	r3, [pc, #248]	@ (8002888 <HAL_I2C_Init+0x144>)
 800278e:	4b3f      	ldrhi	r3, [pc, #252]	@ (800288c <HAL_I2C_Init+0x148>)
 8002790:	4298      	cmp	r0, r3
 8002792:	bf8c      	ite	hi
 8002794:	2300      	movhi	r3, #0
 8002796:	2301      	movls	r3, #1
 8002798:	2b00      	cmp	r3, #0
 800279a:	d1d6      	bne.n	800274a <HAL_I2C_Init+0x6>
 800279c:	4e39      	ldr	r6, [pc, #228]	@ (8002884 <HAL_I2C_Init+0x140>)
 800279e:	4b3c      	ldr	r3, [pc, #240]	@ (8002890 <HAL_I2C_Init+0x14c>)
 80027a0:	42b5      	cmp	r5, r6
 80027a2:	fbb0 f3f3 	udiv	r3, r0, r3
 80027a6:	bf88      	it	hi
 80027a8:	f44f 7696 	movhi.w	r6, #300	@ 0x12c
 80027ac:	6822      	ldr	r2, [r4, #0]
 80027ae:	6851      	ldr	r1, [r2, #4]
 80027b0:	f021 013f 	bic.w	r1, r1, #63	@ 0x3f
 80027b4:	ea41 0103 	orr.w	r1, r1, r3
 80027b8:	bf82      	ittt	hi
 80027ba:	4373      	mulhi	r3, r6
 80027bc:	f44f 767a 	movhi.w	r6, #1000	@ 0x3e8
 80027c0:	fbb3 f3f6 	udivhi	r3, r3, r6
 80027c4:	6051      	str	r1, [r2, #4]
 80027c6:	6a11      	ldr	r1, [r2, #32]
 80027c8:	3301      	adds	r3, #1
 80027ca:	f021 013f 	bic.w	r1, r1, #63	@ 0x3f
 80027ce:	430b      	orrs	r3, r1
 80027d0:	6213      	str	r3, [r2, #32]
 80027d2:	69d1      	ldr	r1, [r2, #28]
 80027d4:	1e43      	subs	r3, r0, #1
 80027d6:	482b      	ldr	r0, [pc, #172]	@ (8002884 <HAL_I2C_Init+0x140>)
 80027d8:	f421 414f 	bic.w	r1, r1, #52992	@ 0xcf00
 80027dc:	4285      	cmp	r5, r0
 80027de:	f021 01ff 	bic.w	r1, r1, #255	@ 0xff
 80027e2:	d832      	bhi.n	800284a <HAL_I2C_Init+0x106>
 80027e4:	006d      	lsls	r5, r5, #1
 80027e6:	fbb3 f3f5 	udiv	r3, r3, r5
 80027ea:	f640 70fc 	movw	r0, #4092	@ 0xffc
 80027ee:	3301      	adds	r3, #1
 80027f0:	4203      	tst	r3, r0
 80027f2:	d042      	beq.n	800287a <HAL_I2C_Init+0x136>
 80027f4:	f3c3 030b 	ubfx	r3, r3, #0, #12
 80027f8:	4319      	orrs	r1, r3
 80027fa:	61d1      	str	r1, [r2, #28]
 80027fc:	6811      	ldr	r1, [r2, #0]
 80027fe:	e9d4 3007 	ldrd	r3, r0, [r4, #28]
 8002802:	f021 01c0 	bic.w	r1, r1, #192	@ 0xc0
 8002806:	4303      	orrs	r3, r0
 8002808:	430b      	orrs	r3, r1
 800280a:	6013      	str	r3, [r2, #0]
 800280c:	6891      	ldr	r1, [r2, #8]
 800280e:	e9d4 0303 	ldrd	r0, r3, [r4, #12]
 8002812:	f421 4103 	bic.w	r1, r1, #33536	@ 0x8300
 8002816:	4303      	orrs	r3, r0
 8002818:	f021 01ff 	bic.w	r1, r1, #255	@ 0xff
 800281c:	430b      	orrs	r3, r1
 800281e:	6093      	str	r3, [r2, #8]
 8002820:	68d1      	ldr	r1, [r2, #12]
 8002822:	e9d4 3005 	ldrd	r3, r0, [r4, #20]
 8002826:	f021 01ff 	bic.w	r1, r1, #255	@ 0xff
 800282a:	4303      	orrs	r3, r0
 800282c:	430b      	orrs	r3, r1
 800282e:	60d3      	str	r3, [r2, #12]
 8002830:	6813      	ldr	r3, [r2, #0]
 8002832:	2000      	movs	r0, #0
 8002834:	f043 0301 	orr.w	r3, r3, #1
 8002838:	6013      	str	r3, [r2, #0]
 800283a:	2320      	movs	r3, #32
 800283c:	6420      	str	r0, [r4, #64]	@ 0x40
 800283e:	f884 303d 	strb.w	r3, [r4, #61]	@ 0x3d
 8002842:	6320      	str	r0, [r4, #48]	@ 0x30
 8002844:	f884 003e 	strb.w	r0, [r4, #62]	@ 0x3e
 8002848:	e780      	b.n	800274c <HAL_I2C_Init+0x8>
 800284a:	68a0      	ldr	r0, [r4, #8]
 800284c:	b950      	cbnz	r0, 8002864 <HAL_I2C_Init+0x120>
 800284e:	eb05 0545 	add.w	r5, r5, r5, lsl #1
 8002852:	fbb3 f3f5 	udiv	r3, r3, r5
 8002856:	3301      	adds	r3, #1
 8002858:	f3c3 030b 	ubfx	r3, r3, #0, #12
 800285c:	b17b      	cbz	r3, 800287e <HAL_I2C_Init+0x13a>
 800285e:	f443 4300 	orr.w	r3, r3, #32768	@ 0x8000
 8002862:	e7c9      	b.n	80027f8 <HAL_I2C_Init+0xb4>
 8002864:	2019      	movs	r0, #25
 8002866:	4368      	muls	r0, r5
 8002868:	fbb3 f3f0 	udiv	r3, r3, r0
 800286c:	3301      	adds	r3, #1
 800286e:	f3c3 030b 	ubfx	r3, r3, #0, #12
 8002872:	b123      	cbz	r3, 800287e <HAL_I2C_Init+0x13a>
 8002874:	f443 4340 	orr.w	r3, r3, #49152	@ 0xc000
 8002878:	e7be      	b.n	80027f8 <HAL_I2C_Init+0xb4>
 800287a:	2304      	movs	r3, #4
 800287c:	e7bc      	b.n	80027f8 <HAL_I2C_Init+0xb4>
 800287e:	2301      	movs	r3, #1
 8002880:	e7ba      	b.n	80027f8 <HAL_I2C_Init+0xb4>
 8002882:	bf00      	nop
 8002884:	000186a0 	.word	0x000186a0
 8002888:	001e847f 	.word	0x001e847f
 800288c:	003d08ff 	.word	0x003d08ff
 8002890:	000f4240 	.word	0x000f4240

08002894 <HAL_I2C_Master_Transmit>:
 8002894:	e92d 43f0 	stmdb	sp!, {r4, r5, r6, r7, r8, r9, lr}
 8002898:	4604      	mov	r4, r0
 800289a:	b085      	sub	sp, #20
 800289c:	4698      	mov	r8, r3
 800289e:	460d      	mov	r5, r1
 80028a0:	4691      	mov	r9, r2
 80028a2:	9f0c      	ldr	r7, [sp, #48]	@ 0x30
 80028a4:	f7ff fbe2 	bl	800206c <HAL_GetTick>
 80028a8:	f894 303d 	ldrb.w	r3, [r4, #61]	@ 0x3d
 80028ac:	4606      	mov	r6, r0
 80028ae:	2b20      	cmp	r3, #32
 80028b0:	d004      	beq.n	80028bc <HAL_I2C_Master_Transmit+0x28>
 80028b2:	2502      	movs	r5, #2
 80028b4:	4628      	mov	r0, r5
 80028b6:	b005      	add	sp, #20
 80028b8:	e8bd 83f0 	ldmia.w	sp!, {r4, r5, r6, r7, r8, r9, pc}
 80028bc:	9000      	str	r0, [sp, #0]
 80028be:	2319      	movs	r3, #25
 80028c0:	2201      	movs	r2, #1
 80028c2:	4620      	mov	r0, r4
 80028c4:	495c      	ldr	r1, [pc, #368]	@ (8002a38 <HAL_I2C_Master_Transmit+0x1a4>)
 80028c6:	f7ff fe34 	bl	8002532 <I2C_WaitOnFlagUntilTimeout>
 80028ca:	2800      	cmp	r0, #0
 80028cc:	d1f1      	bne.n	80028b2 <HAL_I2C_Master_Transmit+0x1e>
 80028ce:	f894 303c 	ldrb.w	r3, [r4, #60]	@ 0x3c
 80028d2:	2b01      	cmp	r3, #1
 80028d4:	d0ed      	beq.n	80028b2 <HAL_I2C_Master_Transmit+0x1e>
 80028d6:	2301      	movs	r3, #1
 80028d8:	6821      	ldr	r1, [r4, #0]
 80028da:	f884 303c 	strb.w	r3, [r4, #60]	@ 0x3c
 80028de:	680b      	ldr	r3, [r1, #0]
 80028e0:	07da      	lsls	r2, r3, #31
 80028e2:	bf5e      	ittt	pl
 80028e4:	680b      	ldrpl	r3, [r1, #0]
 80028e6:	f043 0301 	orrpl.w	r3, r3, #1
 80028ea:	600b      	strpl	r3, [r1, #0]
 80028ec:	680b      	ldr	r3, [r1, #0]
 80028ee:	f423 6300 	bic.w	r3, r3, #2048	@ 0x800
 80028f2:	600b      	str	r3, [r1, #0]
 80028f4:	2321      	movs	r3, #33	@ 0x21
 80028f6:	f884 303d 	strb.w	r3, [r4, #61]	@ 0x3d
 80028fa:	2310      	movs	r3, #16
 80028fc:	f884 303e 	strb.w	r3, [r4, #62]	@ 0x3e
 8002900:	2300      	movs	r3, #0
 8002902:	6423      	str	r3, [r4, #64]	@ 0x40
 8002904:	f8a4 802a 	strh.w	r8, [r4, #42]	@ 0x2a
 8002908:	8d63      	ldrh	r3, [r4, #42]	@ 0x2a
 800290a:	f8c4 9024 	str.w	r9, [r4, #36]	@ 0x24
 800290e:	8523      	strh	r3, [r4, #40]	@ 0x28
 8002910:	4b4a      	ldr	r3, [pc, #296]	@ (8002a3c <HAL_I2C_Master_Transmit+0x1a8>)
 8002912:	62e3      	str	r3, [r4, #44]	@ 0x2c
 8002914:	6ae3      	ldr	r3, [r4, #44]	@ 0x2c
 8002916:	2b08      	cmp	r3, #8
 8002918:	d004      	beq.n	8002924 <HAL_I2C_Master_Transmit+0x90>
 800291a:	2b01      	cmp	r3, #1
 800291c:	d002      	beq.n	8002924 <HAL_I2C_Master_Transmit+0x90>
 800291e:	f513 3f80 	cmn.w	r3, #65536	@ 0x10000
 8002922:	d104      	bne.n	800292e <HAL_I2C_Master_Transmit+0x9a>
 8002924:	680b      	ldr	r3, [r1, #0]
 8002926:	f443 7380 	orr.w	r3, r3, #256	@ 0x100
 800292a:	600b      	str	r3, [r1, #0]
 800292c:	e002      	b.n	8002934 <HAL_I2C_Master_Transmit+0xa0>
 800292e:	6b23      	ldr	r3, [r4, #48]	@ 0x30
 8002930:	2b12      	cmp	r3, #18
 8002932:	d0f7      	beq.n	8002924 <HAL_I2C_Master_Transmit+0x90>
 8002934:	2200      	movs	r2, #0
 8002936:	463b      	mov	r3, r7
 8002938:	f04f 1101 	mov.w	r1, #65537	@ 0x10001
 800293c:	4620      	mov	r0, r4
 800293e:	9600      	str	r6, [sp, #0]
 8002940:	f7ff fdf7 	bl	8002532 <I2C_WaitOnFlagUntilTimeout>
 8002944:	6822      	ldr	r2, [r4, #0]
 8002946:	b140      	cbz	r0, 800295a <HAL_I2C_Master_Transmit+0xc6>
 8002948:	6813      	ldr	r3, [r2, #0]
 800294a:	05db      	lsls	r3, r3, #23
 800294c:	d401      	bmi.n	8002952 <HAL_I2C_Master_Transmit+0xbe>
 800294e:	2501      	movs	r5, #1
 8002950:	e7b0      	b.n	80028b4 <HAL_I2C_Master_Transmit+0x20>
 8002952:	f44f 7300 	mov.w	r3, #512	@ 0x200
 8002956:	6423      	str	r3, [r4, #64]	@ 0x40
 8002958:	e7f9      	b.n	800294e <HAL_I2C_Master_Transmit+0xba>
 800295a:	6923      	ldr	r3, [r4, #16]
 800295c:	f5b3 4f80 	cmp.w	r3, #16384	@ 0x4000
 8002960:	d121      	bne.n	80029a6 <HAL_I2C_Master_Transmit+0x112>
 8002962:	f005 05fe 	and.w	r5, r5, #254	@ 0xfe
 8002966:	6115      	str	r5, [r2, #16]
 8002968:	4633      	mov	r3, r6
 800296a:	463a      	mov	r2, r7
 800296c:	4620      	mov	r0, r4
 800296e:	4934      	ldr	r1, [pc, #208]	@ (8002a40 <HAL_I2C_Master_Transmit+0x1ac>)
 8002970:	f7ff fe1f 	bl	80025b2 <I2C_WaitOnMasterAddressFlagUntilTimeout>
 8002974:	4605      	mov	r5, r0
 8002976:	2800      	cmp	r0, #0
 8002978:	d1e9      	bne.n	800294e <HAL_I2C_Master_Transmit+0xba>
 800297a:	6823      	ldr	r3, [r4, #0]
 800297c:	9003      	str	r0, [sp, #12]
 800297e:	695a      	ldr	r2, [r3, #20]
 8002980:	9203      	str	r2, [sp, #12]
 8002982:	699b      	ldr	r3, [r3, #24]
 8002984:	9303      	str	r3, [sp, #12]
 8002986:	9b03      	ldr	r3, [sp, #12]
 8002988:	8d23      	ldrh	r3, [r4, #40]	@ 0x28
 800298a:	b9f3      	cbnz	r3, 80029ca <HAL_I2C_Master_Transmit+0x136>
 800298c:	6821      	ldr	r1, [r4, #0]
 800298e:	680a      	ldr	r2, [r1, #0]
 8002990:	f442 7200 	orr.w	r2, r2, #512	@ 0x200
 8002994:	600a      	str	r2, [r1, #0]
 8002996:	2220      	movs	r2, #32
 8002998:	f884 303c 	strb.w	r3, [r4, #60]	@ 0x3c
 800299c:	f884 203d 	strb.w	r2, [r4, #61]	@ 0x3d
 80029a0:	f884 303e 	strb.w	r3, [r4, #62]	@ 0x3e
 80029a4:	e786      	b.n	80028b4 <HAL_I2C_Master_Transmit+0x20>
 80029a6:	11eb      	asrs	r3, r5, #7
 80029a8:	f003 0306 	and.w	r3, r3, #6
 80029ac:	f043 03f0 	orr.w	r3, r3, #240	@ 0xf0
 80029b0:	6113      	str	r3, [r2, #16]
 80029b2:	4620      	mov	r0, r4
 80029b4:	4633      	mov	r3, r6
 80029b6:	463a      	mov	r2, r7
 80029b8:	4922      	ldr	r1, [pc, #136]	@ (8002a44 <HAL_I2C_Master_Transmit+0x1b0>)
 80029ba:	f7ff fdfa 	bl	80025b2 <I2C_WaitOnMasterAddressFlagUntilTimeout>
 80029be:	2800      	cmp	r0, #0
 80029c0:	d1c5      	bne.n	800294e <HAL_I2C_Master_Transmit+0xba>
 80029c2:	6823      	ldr	r3, [r4, #0]
 80029c4:	b2ed      	uxtb	r5, r5
 80029c6:	611d      	str	r5, [r3, #16]
 80029c8:	e7ce      	b.n	8002968 <HAL_I2C_Master_Transmit+0xd4>
 80029ca:	4632      	mov	r2, r6
 80029cc:	4639      	mov	r1, r7
 80029ce:	4620      	mov	r0, r4
 80029d0:	f7ff fe31 	bl	8002636 <I2C_WaitOnTXEFlagUntilTimeout>
 80029d4:	b140      	cbz	r0, 80029e8 <HAL_I2C_Master_Transmit+0x154>
 80029d6:	6c23      	ldr	r3, [r4, #64]	@ 0x40
 80029d8:	2b04      	cmp	r3, #4
 80029da:	d1b8      	bne.n	800294e <HAL_I2C_Master_Transmit+0xba>
 80029dc:	6822      	ldr	r2, [r4, #0]
 80029de:	6813      	ldr	r3, [r2, #0]
 80029e0:	f443 7300 	orr.w	r3, r3, #512	@ 0x200
 80029e4:	6013      	str	r3, [r2, #0]
 80029e6:	e7b2      	b.n	800294e <HAL_I2C_Master_Transmit+0xba>
 80029e8:	6a63      	ldr	r3, [r4, #36]	@ 0x24
 80029ea:	6820      	ldr	r0, [r4, #0]
 80029ec:	461a      	mov	r2, r3
 80029ee:	f812 1b01 	ldrb.w	r1, [r2], #1
 80029f2:	6101      	str	r1, [r0, #16]
 80029f4:	6262      	str	r2, [r4, #36]	@ 0x24
 80029f6:	8d62      	ldrh	r2, [r4, #42]	@ 0x2a
 80029f8:	3a01      	subs	r2, #1
 80029fa:	b292      	uxth	r2, r2
 80029fc:	8562      	strh	r2, [r4, #42]	@ 0x2a
 80029fe:	8d22      	ldrh	r2, [r4, #40]	@ 0x28
 8002a00:	f8d0 c014 	ldr.w	ip, [r0, #20]
 8002a04:	1e51      	subs	r1, r2, #1
 8002a06:	b289      	uxth	r1, r1
 8002a08:	f01c 0f04 	tst.w	ip, #4
 8002a0c:	8521      	strh	r1, [r4, #40]	@ 0x28
 8002a0e:	d00a      	beq.n	8002a26 <HAL_I2C_Master_Transmit+0x192>
 8002a10:	b149      	cbz	r1, 8002a26 <HAL_I2C_Master_Transmit+0x192>
 8002a12:	7859      	ldrb	r1, [r3, #1]
 8002a14:	3302      	adds	r3, #2
 8002a16:	6101      	str	r1, [r0, #16]
 8002a18:	6263      	str	r3, [r4, #36]	@ 0x24
 8002a1a:	8d63      	ldrh	r3, [r4, #42]	@ 0x2a
 8002a1c:	3a02      	subs	r2, #2
 8002a1e:	3b01      	subs	r3, #1
 8002a20:	b29b      	uxth	r3, r3
 8002a22:	8563      	strh	r3, [r4, #42]	@ 0x2a
 8002a24:	8522      	strh	r2, [r4, #40]	@ 0x28
 8002a26:	4632      	mov	r2, r6
 8002a28:	4639      	mov	r1, r7
 8002a2a:	4620      	mov	r0, r4
 8002a2c:	f7ff fe2d 	bl	800268a <I2C_WaitOnBTFFlagUntilTimeout>
 8002a30:	2800      	cmp	r0, #0
 8002a32:	d0a9      	beq.n	8002988 <HAL_I2C_Master_Transmit+0xf4>
 8002a34:	e7cf      	b.n	80029d6 <HAL_I2C_Master_Transmit+0x142>
 8002a36:	bf00      	nop
 8002a38:	00100002 	.word	0x00100002
 8002a3c:	ffff0000 	.word	0xffff0000
 8002a40:	00010002 	.word	0x00010002
 8002a44:	00010008 	.word	0x00010008

08002a48 <HAL_I2C_Master_Receive>:
 8002a48:	e92d 43f0 	stmdb	sp!, {r4, r5, r6, r7, r8, r9, lr}
 8002a4c:	4698      	mov	r8, r3
 8002a4e:	2300      	movs	r3, #0
 8002a50:	4604      	mov	r4, r0
 8002a52:	b089      	sub	sp, #36	@ 0x24
 8002a54:	9302      	str	r3, [sp, #8]
 8002a56:	460e      	mov	r6, r1
 8002a58:	4691      	mov	r9, r2
 8002a5a:	9f10      	ldr	r7, [sp, #64]	@ 0x40
 8002a5c:	f7ff fb06 	bl	800206c <HAL_GetTick>
 8002a60:	f894 303d 	ldrb.w	r3, [r4, #61]	@ 0x3d
 8002a64:	4605      	mov	r5, r0
 8002a66:	2b20      	cmp	r3, #32
 8002a68:	d004      	beq.n	8002a74 <HAL_I2C_Master_Receive+0x2c>
 8002a6a:	2602      	movs	r6, #2
 8002a6c:	4630      	mov	r0, r6
 8002a6e:	b009      	add	sp, #36	@ 0x24
 8002a70:	e8bd 83f0 	ldmia.w	sp!, {r4, r5, r6, r7, r8, r9, pc}
 8002a74:	9000      	str	r0, [sp, #0]
 8002a76:	2319      	movs	r3, #25
 8002a78:	2201      	movs	r2, #1
 8002a7a:	4620      	mov	r0, r4
 8002a7c:	498f      	ldr	r1, [pc, #572]	@ (8002cbc <HAL_I2C_Master_Receive+0x274>)
 8002a7e:	f7ff fd58 	bl	8002532 <I2C_WaitOnFlagUntilTimeout>
 8002a82:	2800      	cmp	r0, #0
 8002a84:	d1f1      	bne.n	8002a6a <HAL_I2C_Master_Receive+0x22>
 8002a86:	f894 303c 	ldrb.w	r3, [r4, #60]	@ 0x3c
 8002a8a:	2b01      	cmp	r3, #1
 8002a8c:	d0ed      	beq.n	8002a6a <HAL_I2C_Master_Receive+0x22>
 8002a8e:	2301      	movs	r3, #1
 8002a90:	6821      	ldr	r1, [r4, #0]
 8002a92:	f884 303c 	strb.w	r3, [r4, #60]	@ 0x3c
 8002a96:	680b      	ldr	r3, [r1, #0]
 8002a98:	07db      	lsls	r3, r3, #31
 8002a9a:	bf5e      	ittt	pl
 8002a9c:	680b      	ldrpl	r3, [r1, #0]
 8002a9e:	f043 0301 	orrpl.w	r3, r3, #1
 8002aa2:	600b      	strpl	r3, [r1, #0]
 8002aa4:	680b      	ldr	r3, [r1, #0]
 8002aa6:	f423 6300 	bic.w	r3, r3, #2048	@ 0x800
 8002aaa:	600b      	str	r3, [r1, #0]
 8002aac:	2322      	movs	r3, #34	@ 0x22
 8002aae:	f884 303d 	strb.w	r3, [r4, #61]	@ 0x3d
 8002ab2:	2310      	movs	r3, #16
 8002ab4:	f884 303e 	strb.w	r3, [r4, #62]	@ 0x3e
 8002ab8:	2300      	movs	r3, #0
 8002aba:	6423      	str	r3, [r4, #64]	@ 0x40
 8002abc:	f8a4 802a 	strh.w	r8, [r4, #42]	@ 0x2a
 8002ac0:	8d63      	ldrh	r3, [r4, #42]	@ 0x2a
 8002ac2:	f8c4 9024 	str.w	r9, [r4, #36]	@ 0x24
 8002ac6:	8523      	strh	r3, [r4, #40]	@ 0x28
 8002ac8:	4b7d      	ldr	r3, [pc, #500]	@ (8002cc0 <HAL_I2C_Master_Receive+0x278>)
 8002aca:	62e3      	str	r3, [r4, #44]	@ 0x2c
 8002acc:	6ae3      	ldr	r3, [r4, #44]	@ 0x2c
 8002ace:	680a      	ldr	r2, [r1, #0]
 8002ad0:	2b08      	cmp	r3, #8
 8002ad2:	f442 6280 	orr.w	r2, r2, #1024	@ 0x400
 8002ad6:	600a      	str	r2, [r1, #0]
 8002ad8:	d004      	beq.n	8002ae4 <HAL_I2C_Master_Receive+0x9c>
 8002ada:	2b01      	cmp	r3, #1
 8002adc:	d002      	beq.n	8002ae4 <HAL_I2C_Master_Receive+0x9c>
 8002ade:	f513 3f80 	cmn.w	r3, #65536	@ 0x10000
 8002ae2:	d104      	bne.n	8002aee <HAL_I2C_Master_Receive+0xa6>
 8002ae4:	680b      	ldr	r3, [r1, #0]
 8002ae6:	f443 7380 	orr.w	r3, r3, #256	@ 0x100
 8002aea:	600b      	str	r3, [r1, #0]
 8002aec:	e002      	b.n	8002af4 <HAL_I2C_Master_Receive+0xac>
 8002aee:	6b23      	ldr	r3, [r4, #48]	@ 0x30
 8002af0:	2b11      	cmp	r3, #17
 8002af2:	d0f7      	beq.n	8002ae4 <HAL_I2C_Master_Receive+0x9c>
 8002af4:	463b      	mov	r3, r7
 8002af6:	2200      	movs	r2, #0
 8002af8:	f04f 1101 	mov.w	r1, #65537	@ 0x10001
 8002afc:	4620      	mov	r0, r4
 8002afe:	9500      	str	r5, [sp, #0]
 8002b00:	f7ff fd17 	bl	8002532 <I2C_WaitOnFlagUntilTimeout>
 8002b04:	6823      	ldr	r3, [r4, #0]
 8002b06:	b138      	cbz	r0, 8002b18 <HAL_I2C_Master_Receive+0xd0>
 8002b08:	681b      	ldr	r3, [r3, #0]
 8002b0a:	05d8      	lsls	r0, r3, #23
 8002b0c:	bf44      	itt	mi
 8002b0e:	f44f 7300 	movmi.w	r3, #512	@ 0x200
 8002b12:	6423      	strmi	r3, [r4, #64]	@ 0x40
 8002b14:	2601      	movs	r6, #1
 8002b16:	e7a9      	b.n	8002a6c <HAL_I2C_Master_Receive+0x24>
 8002b18:	6922      	ldr	r2, [r4, #16]
 8002b1a:	f5b2 4f80 	cmp.w	r2, #16384	@ 0x4000
 8002b1e:	d129      	bne.n	8002b74 <HAL_I2C_Master_Receive+0x12c>
 8002b20:	f046 0601 	orr.w	r6, r6, #1
 8002b24:	b2f6      	uxtb	r6, r6
 8002b26:	611e      	str	r6, [r3, #16]
 8002b28:	462b      	mov	r3, r5
 8002b2a:	463a      	mov	r2, r7
 8002b2c:	4620      	mov	r0, r4
 8002b2e:	4965      	ldr	r1, [pc, #404]	@ (8002cc4 <HAL_I2C_Master_Receive+0x27c>)
 8002b30:	f7ff fd3f 	bl	80025b2 <I2C_WaitOnMasterAddressFlagUntilTimeout>
 8002b34:	4606      	mov	r6, r0
 8002b36:	2800      	cmp	r0, #0
 8002b38:	d1ec      	bne.n	8002b14 <HAL_I2C_Master_Receive+0xcc>
 8002b3a:	8d22      	ldrh	r2, [r4, #40]	@ 0x28
 8002b3c:	6823      	ldr	r3, [r4, #0]
 8002b3e:	2a00      	cmp	r2, #0
 8002b40:	d14d      	bne.n	8002bde <HAL_I2C_Master_Receive+0x196>
 8002b42:	9003      	str	r0, [sp, #12]
 8002b44:	695a      	ldr	r2, [r3, #20]
 8002b46:	9203      	str	r2, [sp, #12]
 8002b48:	699a      	ldr	r2, [r3, #24]
 8002b4a:	9203      	str	r2, [sp, #12]
 8002b4c:	9a03      	ldr	r2, [sp, #12]
 8002b4e:	681a      	ldr	r2, [r3, #0]
 8002b50:	f442 7200 	orr.w	r2, r2, #512	@ 0x200
 8002b54:	601a      	str	r2, [r3, #0]
 8002b56:	f8df 8170 	ldr.w	r8, [pc, #368]	@ 8002cc8 <HAL_I2C_Master_Receive+0x280>
 8002b5a:	f8df 9170 	ldr.w	r9, [pc, #368]	@ 8002ccc <HAL_I2C_Master_Receive+0x284>
 8002b5e:	8d23      	ldrh	r3, [r4, #40]	@ 0x28
 8002b60:	2b00      	cmp	r3, #0
 8002b62:	d16c      	bne.n	8002c3e <HAL_I2C_Master_Receive+0x1f6>
 8002b64:	2220      	movs	r2, #32
 8002b66:	f884 303c 	strb.w	r3, [r4, #60]	@ 0x3c
 8002b6a:	f884 203d 	strb.w	r2, [r4, #61]	@ 0x3d
 8002b6e:	f884 303e 	strb.w	r3, [r4, #62]	@ 0x3e
 8002b72:	e77b      	b.n	8002a6c <HAL_I2C_Master_Receive+0x24>
 8002b74:	ea4f 18e6 	mov.w	r8, r6, asr #7
 8002b78:	f008 0806 	and.w	r8, r8, #6
 8002b7c:	f048 02f0 	orr.w	r2, r8, #240	@ 0xf0
 8002b80:	611a      	str	r2, [r3, #16]
 8002b82:	4620      	mov	r0, r4
 8002b84:	462b      	mov	r3, r5
 8002b86:	463a      	mov	r2, r7
 8002b88:	4951      	ldr	r1, [pc, #324]	@ (8002cd0 <HAL_I2C_Master_Receive+0x288>)
 8002b8a:	f7ff fd12 	bl	80025b2 <I2C_WaitOnMasterAddressFlagUntilTimeout>
 8002b8e:	2800      	cmp	r0, #0
 8002b90:	d1c0      	bne.n	8002b14 <HAL_I2C_Master_Receive+0xcc>
 8002b92:	6823      	ldr	r3, [r4, #0]
 8002b94:	b2f6      	uxtb	r6, r6
 8002b96:	463a      	mov	r2, r7
 8002b98:	611e      	str	r6, [r3, #16]
 8002b9a:	4620      	mov	r0, r4
 8002b9c:	462b      	mov	r3, r5
 8002b9e:	4949      	ldr	r1, [pc, #292]	@ (8002cc4 <HAL_I2C_Master_Receive+0x27c>)
 8002ba0:	f7ff fd07 	bl	80025b2 <I2C_WaitOnMasterAddressFlagUntilTimeout>
 8002ba4:	4602      	mov	r2, r0
 8002ba6:	2800      	cmp	r0, #0
 8002ba8:	d1b4      	bne.n	8002b14 <HAL_I2C_Master_Receive+0xcc>
 8002baa:	6823      	ldr	r3, [r4, #0]
 8002bac:	9007      	str	r0, [sp, #28]
 8002bae:	6959      	ldr	r1, [r3, #20]
 8002bb0:	4620      	mov	r0, r4
 8002bb2:	9107      	str	r1, [sp, #28]
 8002bb4:	6999      	ldr	r1, [r3, #24]
 8002bb6:	9107      	str	r1, [sp, #28]
 8002bb8:	9907      	ldr	r1, [sp, #28]
 8002bba:	6819      	ldr	r1, [r3, #0]
 8002bbc:	f441 7180 	orr.w	r1, r1, #256	@ 0x100
 8002bc0:	6019      	str	r1, [r3, #0]
 8002bc2:	463b      	mov	r3, r7
 8002bc4:	f04f 1101 	mov.w	r1, #65537	@ 0x10001
 8002bc8:	9500      	str	r5, [sp, #0]
 8002bca:	f7ff fcb2 	bl	8002532 <I2C_WaitOnFlagUntilTimeout>
 8002bce:	6822      	ldr	r2, [r4, #0]
 8002bd0:	b108      	cbz	r0, 8002bd6 <HAL_I2C_Master_Receive+0x18e>
 8002bd2:	6813      	ldr	r3, [r2, #0]
 8002bd4:	e799      	b.n	8002b0a <HAL_I2C_Master_Receive+0xc2>
 8002bd6:	f048 03f1 	orr.w	r3, r8, #241	@ 0xf1
 8002bda:	6113      	str	r3, [r2, #16]
 8002bdc:	e7a4      	b.n	8002b28 <HAL_I2C_Master_Receive+0xe0>
 8002bde:	2a01      	cmp	r2, #1
 8002be0:	d111      	bne.n	8002c06 <HAL_I2C_Master_Receive+0x1be>
 8002be2:	681a      	ldr	r2, [r3, #0]
 8002be4:	f422 6280 	bic.w	r2, r2, #1024	@ 0x400
 8002be8:	601a      	str	r2, [r3, #0]
 8002bea:	b672      	cpsid	i
 8002bec:	6823      	ldr	r3, [r4, #0]
 8002bee:	9004      	str	r0, [sp, #16]
 8002bf0:	695a      	ldr	r2, [r3, #20]
 8002bf2:	9204      	str	r2, [sp, #16]
 8002bf4:	699a      	ldr	r2, [r3, #24]
 8002bf6:	9204      	str	r2, [sp, #16]
 8002bf8:	9a04      	ldr	r2, [sp, #16]
 8002bfa:	681a      	ldr	r2, [r3, #0]
 8002bfc:	f442 7200 	orr.w	r2, r2, #512	@ 0x200
 8002c00:	601a      	str	r2, [r3, #0]
 8002c02:	b662      	cpsie	i
 8002c04:	e7a7      	b.n	8002b56 <HAL_I2C_Master_Receive+0x10e>
 8002c06:	2a02      	cmp	r2, #2
 8002c08:	681a      	ldr	r2, [r3, #0]
 8002c0a:	d10e      	bne.n	8002c2a <HAL_I2C_Master_Receive+0x1e2>
 8002c0c:	f442 6200 	orr.w	r2, r2, #2048	@ 0x800
 8002c10:	601a      	str	r2, [r3, #0]
 8002c12:	b672      	cpsid	i
 8002c14:	6823      	ldr	r3, [r4, #0]
 8002c16:	9005      	str	r0, [sp, #20]
 8002c18:	695a      	ldr	r2, [r3, #20]
 8002c1a:	9205      	str	r2, [sp, #20]
 8002c1c:	699a      	ldr	r2, [r3, #24]
 8002c1e:	9205      	str	r2, [sp, #20]
 8002c20:	9a05      	ldr	r2, [sp, #20]
 8002c22:	681a      	ldr	r2, [r3, #0]
 8002c24:	f422 6280 	bic.w	r2, r2, #1024	@ 0x400
 8002c28:	e7ea      	b.n	8002c00 <HAL_I2C_Master_Receive+0x1b8>
 8002c2a:	f442 6280 	orr.w	r2, r2, #1024	@ 0x400
 8002c2e:	601a      	str	r2, [r3, #0]
 8002c30:	9006      	str	r0, [sp, #24]
 8002c32:	695a      	ldr	r2, [r3, #20]
 8002c34:	9206      	str	r2, [sp, #24]
 8002c36:	699b      	ldr	r3, [r3, #24]
 8002c38:	9306      	str	r3, [sp, #24]
 8002c3a:	9b06      	ldr	r3, [sp, #24]
 8002c3c:	e78b      	b.n	8002b56 <HAL_I2C_Master_Receive+0x10e>
 8002c3e:	2b03      	cmp	r3, #3
 8002c40:	f200 8088 	bhi.w	8002d54 <HAL_I2C_Master_Receive+0x30c>
 8002c44:	2b01      	cmp	r3, #1
 8002c46:	d116      	bne.n	8002c76 <HAL_I2C_Master_Receive+0x22e>
 8002c48:	462a      	mov	r2, r5
 8002c4a:	4639      	mov	r1, r7
 8002c4c:	4620      	mov	r0, r4
 8002c4e:	f7ff fd46 	bl	80026de <I2C_WaitOnRXNEFlagUntilTimeout>
 8002c52:	2800      	cmp	r0, #0
 8002c54:	f47f af5e 	bne.w	8002b14 <HAL_I2C_Master_Receive+0xcc>
 8002c58:	6823      	ldr	r3, [r4, #0]
 8002c5a:	691a      	ldr	r2, [r3, #16]
 8002c5c:	6a63      	ldr	r3, [r4, #36]	@ 0x24
 8002c5e:	701a      	strb	r2, [r3, #0]
 8002c60:	6a63      	ldr	r3, [r4, #36]	@ 0x24
 8002c62:	3301      	adds	r3, #1
 8002c64:	6263      	str	r3, [r4, #36]	@ 0x24
 8002c66:	8d23      	ldrh	r3, [r4, #40]	@ 0x28
 8002c68:	3b01      	subs	r3, #1
 8002c6a:	8523      	strh	r3, [r4, #40]	@ 0x28
 8002c6c:	8d63      	ldrh	r3, [r4, #42]	@ 0x2a
 8002c6e:	3b01      	subs	r3, #1
 8002c70:	b29b      	uxth	r3, r3
 8002c72:	8563      	strh	r3, [r4, #42]	@ 0x2a
 8002c74:	e773      	b.n	8002b5e <HAL_I2C_Master_Receive+0x116>
 8002c76:	2b02      	cmp	r3, #2
 8002c78:	f04f 0200 	mov.w	r2, #0
 8002c7c:	463b      	mov	r3, r7
 8002c7e:	4641      	mov	r1, r8
 8002c80:	4620      	mov	r0, r4
 8002c82:	9500      	str	r5, [sp, #0]
 8002c84:	d126      	bne.n	8002cd4 <HAL_I2C_Master_Receive+0x28c>
 8002c86:	f7ff fc54 	bl	8002532 <I2C_WaitOnFlagUntilTimeout>
 8002c8a:	2800      	cmp	r0, #0
 8002c8c:	f47f af42 	bne.w	8002b14 <HAL_I2C_Master_Receive+0xcc>
 8002c90:	b672      	cpsid	i
 8002c92:	6823      	ldr	r3, [r4, #0]
 8002c94:	681a      	ldr	r2, [r3, #0]
 8002c96:	f442 7200 	orr.w	r2, r2, #512	@ 0x200
 8002c9a:	601a      	str	r2, [r3, #0]
 8002c9c:	691a      	ldr	r2, [r3, #16]
 8002c9e:	6a63      	ldr	r3, [r4, #36]	@ 0x24
 8002ca0:	701a      	strb	r2, [r3, #0]
 8002ca2:	6a63      	ldr	r3, [r4, #36]	@ 0x24
 8002ca4:	3301      	adds	r3, #1
 8002ca6:	6263      	str	r3, [r4, #36]	@ 0x24
 8002ca8:	8d23      	ldrh	r3, [r4, #40]	@ 0x28
 8002caa:	3b01      	subs	r3, #1
 8002cac:	8523      	strh	r3, [r4, #40]	@ 0x28
 8002cae:	8d63      	ldrh	r3, [r4, #42]	@ 0x2a
 8002cb0:	3b01      	subs	r3, #1
 8002cb2:	b29b      	uxth	r3, r3
 8002cb4:	8563      	strh	r3, [r4, #42]	@ 0x2a
 8002cb6:	b662      	cpsie	i
 8002cb8:	e7ce      	b.n	8002c58 <HAL_I2C_Master_Receive+0x210>
 8002cba:	bf00      	nop
 8002cbc:	00100002 	.word	0x00100002
 8002cc0:	ffff0000 	.word	0xffff0000
 8002cc4:	00010002 	.word	0x00010002
 8002cc8:	00010004 	.word	0x00010004
 8002ccc:	20000008 	.word	0x20000008
 8002cd0:	00010008 	.word	0x00010008
 8002cd4:	f7ff fc2d 	bl	8002532 <I2C_WaitOnFlagUntilTimeout>
 8002cd8:	2800      	cmp	r0, #0
 8002cda:	f47f af1b 	bne.w	8002b14 <HAL_I2C_Master_Receive+0xcc>
 8002cde:	6822      	ldr	r2, [r4, #0]
 8002ce0:	6813      	ldr	r3, [r2, #0]
 8002ce2:	f423 6380 	bic.w	r3, r3, #1024	@ 0x400
 8002ce6:	6013      	str	r3, [r2, #0]
 8002ce8:	b672      	cpsid	i
 8002cea:	f246 11a8 	movw	r1, #25000	@ 0x61a8
 8002cee:	6823      	ldr	r3, [r4, #0]
 8002cf0:	691a      	ldr	r2, [r3, #16]
 8002cf2:	6a63      	ldr	r3, [r4, #36]	@ 0x24
 8002cf4:	701a      	strb	r2, [r3, #0]
 8002cf6:	6a62      	ldr	r2, [r4, #36]	@ 0x24
 8002cf8:	1c53      	adds	r3, r2, #1
 8002cfa:	6263      	str	r3, [r4, #36]	@ 0x24
 8002cfc:	8d23      	ldrh	r3, [r4, #40]	@ 0x28
 8002cfe:	3b01      	subs	r3, #1
 8002d00:	8523      	strh	r3, [r4, #40]	@ 0x28
 8002d02:	8d63      	ldrh	r3, [r4, #42]	@ 0x2a
 8002d04:	3b01      	subs	r3, #1
 8002d06:	b29b      	uxth	r3, r3
 8002d08:	8563      	strh	r3, [r4, #42]	@ 0x2a
 8002d0a:	f8d9 3000 	ldr.w	r3, [r9]
 8002d0e:	fbb3 f3f1 	udiv	r3, r3, r1
 8002d12:	2123      	movs	r1, #35	@ 0x23
 8002d14:	434b      	muls	r3, r1
 8002d16:	9302      	str	r3, [sp, #8]
 8002d18:	9b02      	ldr	r3, [sp, #8]
 8002d1a:	3b01      	subs	r3, #1
 8002d1c:	9302      	str	r3, [sp, #8]
 8002d1e:	9b02      	ldr	r3, [sp, #8]
 8002d20:	b96b      	cbnz	r3, 8002d3e <HAL_I2C_Master_Receive+0x2f6>
 8002d22:	2220      	movs	r2, #32
 8002d24:	6323      	str	r3, [r4, #48]	@ 0x30
 8002d26:	f884 203d 	strb.w	r2, [r4, #61]	@ 0x3d
 8002d2a:	f884 303e 	strb.w	r3, [r4, #62]	@ 0x3e
 8002d2e:	6c22      	ldr	r2, [r4, #64]	@ 0x40
 8002d30:	f042 0220 	orr.w	r2, r2, #32
 8002d34:	6422      	str	r2, [r4, #64]	@ 0x40
 8002d36:	b662      	cpsie	i
 8002d38:	f884 303c 	strb.w	r3, [r4, #60]	@ 0x3c
 8002d3c:	e6ea      	b.n	8002b14 <HAL_I2C_Master_Receive+0xcc>
 8002d3e:	6823      	ldr	r3, [r4, #0]
 8002d40:	6959      	ldr	r1, [r3, #20]
 8002d42:	0749      	lsls	r1, r1, #29
 8002d44:	d5e8      	bpl.n	8002d18 <HAL_I2C_Master_Receive+0x2d0>
 8002d46:	6819      	ldr	r1, [r3, #0]
 8002d48:	f441 7100 	orr.w	r1, r1, #512	@ 0x200
 8002d4c:	6019      	str	r1, [r3, #0]
 8002d4e:	691b      	ldr	r3, [r3, #16]
 8002d50:	7053      	strb	r3, [r2, #1]
 8002d52:	e7a6      	b.n	8002ca2 <HAL_I2C_Master_Receive+0x25a>
 8002d54:	462a      	mov	r2, r5
 8002d56:	4639      	mov	r1, r7
 8002d58:	4620      	mov	r0, r4
 8002d5a:	f7ff fcc0 	bl	80026de <I2C_WaitOnRXNEFlagUntilTimeout>
 8002d5e:	2800      	cmp	r0, #0
 8002d60:	f47f aed8 	bne.w	8002b14 <HAL_I2C_Master_Receive+0xcc>
 8002d64:	6823      	ldr	r3, [r4, #0]
 8002d66:	691a      	ldr	r2, [r3, #16]
 8002d68:	6a63      	ldr	r3, [r4, #36]	@ 0x24
 8002d6a:	701a      	strb	r2, [r3, #0]
 8002d6c:	8d62      	ldrh	r2, [r4, #42]	@ 0x2a
 8002d6e:	6a61      	ldr	r1, [r4, #36]	@ 0x24
 8002d70:	3a01      	subs	r2, #1
 8002d72:	b292      	uxth	r2, r2
 8002d74:	1c4b      	adds	r3, r1, #1
 8002d76:	8562      	strh	r2, [r4, #42]	@ 0x2a
 8002d78:	6822      	ldr	r2, [r4, #0]
 8002d7a:	6263      	str	r3, [r4, #36]	@ 0x24
 8002d7c:	8d23      	ldrh	r3, [r4, #40]	@ 0x28
 8002d7e:	6950      	ldr	r0, [r2, #20]
 8002d80:	3b01      	subs	r3, #1
 8002d82:	b29b      	uxth	r3, r3
 8002d84:	0740      	lsls	r0, r0, #29
 8002d86:	8523      	strh	r3, [r4, #40]	@ 0x28
 8002d88:	f57f aee9 	bpl.w	8002b5e <HAL_I2C_Master_Receive+0x116>
 8002d8c:	2b03      	cmp	r3, #3
 8002d8e:	bf02      	ittt	eq
 8002d90:	6813      	ldreq	r3, [r2, #0]
 8002d92:	f423 6380 	biceq.w	r3, r3, #1024	@ 0x400
 8002d96:	6013      	streq	r3, [r2, #0]
 8002d98:	6913      	ldr	r3, [r2, #16]
 8002d9a:	704b      	strb	r3, [r1, #1]
 8002d9c:	e760      	b.n	8002c60 <HAL_I2C_Master_Receive+0x218>
 8002d9e:	bf00      	nop

08002da0 <HAL_RCC_OscConfig>:
 8002da0:	e92d 41f3 	stmdb	sp!, {r0, r1, r4, r5, r6, r7, r8, lr}
 8002da4:	4605      	mov	r5, r0
 8002da6:	b338      	cbz	r0, 8002df8 <HAL_RCC_OscConfig+0x58>
 8002da8:	6803      	ldr	r3, [r0, #0]
 8002daa:	07db      	lsls	r3, r3, #31
 8002dac:	d410      	bmi.n	8002dd0 <HAL_RCC_OscConfig+0x30>
 8002dae:	682b      	ldr	r3, [r5, #0]
 8002db0:	079f      	lsls	r7, r3, #30
 8002db2:	d45e      	bmi.n	8002e72 <HAL_RCC_OscConfig+0xd2>
 8002db4:	682b      	ldr	r3, [r5, #0]
 8002db6:	0719      	lsls	r1, r3, #28
 8002db8:	f100 8095 	bmi.w	8002ee6 <HAL_RCC_OscConfig+0x146>
 8002dbc:	682b      	ldr	r3, [r5, #0]
 8002dbe:	075a      	lsls	r2, r3, #29
 8002dc0:	f100 80c1 	bmi.w	8002f46 <HAL_RCC_OscConfig+0x1a6>
 8002dc4:	69eb      	ldr	r3, [r5, #28]
 8002dc6:	2b00      	cmp	r3, #0
 8002dc8:	f040 812c 	bne.w	8003024 <HAL_RCC_OscConfig+0x284>
 8002dcc:	2000      	movs	r0, #0
 8002dce:	e029      	b.n	8002e24 <HAL_RCC_OscConfig+0x84>
 8002dd0:	4c90      	ldr	r4, [pc, #576]	@ (8003014 <HAL_RCC_OscConfig+0x274>)
 8002dd2:	6863      	ldr	r3, [r4, #4]
 8002dd4:	f003 030c 	and.w	r3, r3, #12
 8002dd8:	2b04      	cmp	r3, #4
 8002dda:	d007      	beq.n	8002dec <HAL_RCC_OscConfig+0x4c>
 8002ddc:	6863      	ldr	r3, [r4, #4]
 8002dde:	f003 030c 	and.w	r3, r3, #12
 8002de2:	2b08      	cmp	r3, #8
 8002de4:	d10a      	bne.n	8002dfc <HAL_RCC_OscConfig+0x5c>
 8002de6:	6863      	ldr	r3, [r4, #4]
 8002de8:	03de      	lsls	r6, r3, #15
 8002dea:	d507      	bpl.n	8002dfc <HAL_RCC_OscConfig+0x5c>
 8002dec:	6823      	ldr	r3, [r4, #0]
 8002dee:	039c      	lsls	r4, r3, #14
 8002df0:	d5dd      	bpl.n	8002dae <HAL_RCC_OscConfig+0xe>
 8002df2:	686b      	ldr	r3, [r5, #4]
 8002df4:	2b00      	cmp	r3, #0
 8002df6:	d1da      	bne.n	8002dae <HAL_RCC_OscConfig+0xe>
 8002df8:	2001      	movs	r0, #1
 8002dfa:	e013      	b.n	8002e24 <HAL_RCC_OscConfig+0x84>
 8002dfc:	686b      	ldr	r3, [r5, #4]
 8002dfe:	f5b3 3f80 	cmp.w	r3, #65536	@ 0x10000
 8002e02:	d112      	bne.n	8002e2a <HAL_RCC_OscConfig+0x8a>
 8002e04:	6823      	ldr	r3, [r4, #0]
 8002e06:	f443 3380 	orr.w	r3, r3, #65536	@ 0x10000
 8002e0a:	6023      	str	r3, [r4, #0]
 8002e0c:	f7ff f92e 	bl	800206c <HAL_GetTick>
 8002e10:	4606      	mov	r6, r0
 8002e12:	6823      	ldr	r3, [r4, #0]
 8002e14:	0398      	lsls	r0, r3, #14
 8002e16:	d4ca      	bmi.n	8002dae <HAL_RCC_OscConfig+0xe>
 8002e18:	f7ff f928 	bl	800206c <HAL_GetTick>
 8002e1c:	1b80      	subs	r0, r0, r6
 8002e1e:	2864      	cmp	r0, #100	@ 0x64
 8002e20:	d9f7      	bls.n	8002e12 <HAL_RCC_OscConfig+0x72>
 8002e22:	2003      	movs	r0, #3
 8002e24:	b002      	add	sp, #8
 8002e26:	e8bd 81f0 	ldmia.w	sp!, {r4, r5, r6, r7, r8, pc}
 8002e2a:	b99b      	cbnz	r3, 8002e54 <HAL_RCC_OscConfig+0xb4>
 8002e2c:	6823      	ldr	r3, [r4, #0]
 8002e2e:	f423 3380 	bic.w	r3, r3, #65536	@ 0x10000
 8002e32:	6023      	str	r3, [r4, #0]
 8002e34:	6823      	ldr	r3, [r4, #0]
 8002e36:	f423 2380 	bic.w	r3, r3, #262144	@ 0x40000
 8002e3a:	6023      	str	r3, [r4, #0]
 8002e3c:	f7ff f916 	bl	800206c <HAL_GetTick>
 8002e40:	4606      	mov	r6, r0
 8002e42:	6823      	ldr	r3, [r4, #0]
 8002e44:	0399      	lsls	r1, r3, #14
 8002e46:	d5b2      	bpl.n	8002dae <HAL_RCC_OscConfig+0xe>
 8002e48:	f7ff f910 	bl	800206c <HAL_GetTick>
 8002e4c:	1b80      	subs	r0, r0, r6
 8002e4e:	2864      	cmp	r0, #100	@ 0x64
 8002e50:	d9f7      	bls.n	8002e42 <HAL_RCC_OscConfig+0xa2>
 8002e52:	e7e6      	b.n	8002e22 <HAL_RCC_OscConfig+0x82>
 8002e54:	f5b3 2fa0 	cmp.w	r3, #327680	@ 0x50000
 8002e58:	6823      	ldr	r3, [r4, #0]
 8002e5a:	d103      	bne.n	8002e64 <HAL_RCC_OscConfig+0xc4>
 8002e5c:	f443 2380 	orr.w	r3, r3, #262144	@ 0x40000
 8002e60:	6023      	str	r3, [r4, #0]
 8002e62:	e7cf      	b.n	8002e04 <HAL_RCC_OscConfig+0x64>
 8002e64:	f423 3380 	bic.w	r3, r3, #65536	@ 0x10000
 8002e68:	6023      	str	r3, [r4, #0]
 8002e6a:	6823      	ldr	r3, [r4, #0]
 8002e6c:	f423 2380 	bic.w	r3, r3, #262144	@ 0x40000
 8002e70:	e7cb      	b.n	8002e0a <HAL_RCC_OscConfig+0x6a>
 8002e72:	4c68      	ldr	r4, [pc, #416]	@ (8003014 <HAL_RCC_OscConfig+0x274>)
 8002e74:	6863      	ldr	r3, [r4, #4]
 8002e76:	f013 0f0c 	tst.w	r3, #12
 8002e7a:	d007      	beq.n	8002e8c <HAL_RCC_OscConfig+0xec>
 8002e7c:	6863      	ldr	r3, [r4, #4]
 8002e7e:	f003 030c 	and.w	r3, r3, #12
 8002e82:	2b08      	cmp	r3, #8
 8002e84:	d110      	bne.n	8002ea8 <HAL_RCC_OscConfig+0x108>
 8002e86:	6863      	ldr	r3, [r4, #4]
 8002e88:	03da      	lsls	r2, r3, #15
 8002e8a:	d40d      	bmi.n	8002ea8 <HAL_RCC_OscConfig+0x108>
 8002e8c:	6823      	ldr	r3, [r4, #0]
 8002e8e:	079b      	lsls	r3, r3, #30
 8002e90:	d502      	bpl.n	8002e98 <HAL_RCC_OscConfig+0xf8>
 8002e92:	692b      	ldr	r3, [r5, #16]
 8002e94:	2b01      	cmp	r3, #1
 8002e96:	d1af      	bne.n	8002df8 <HAL_RCC_OscConfig+0x58>
 8002e98:	6823      	ldr	r3, [r4, #0]
 8002e9a:	696a      	ldr	r2, [r5, #20]
 8002e9c:	f023 03f8 	bic.w	r3, r3, #248	@ 0xf8
 8002ea0:	ea43 03c2 	orr.w	r3, r3, r2, lsl #3
 8002ea4:	6023      	str	r3, [r4, #0]
 8002ea6:	e785      	b.n	8002db4 <HAL_RCC_OscConfig+0x14>
 8002ea8:	692a      	ldr	r2, [r5, #16]
 8002eaa:	4b5b      	ldr	r3, [pc, #364]	@ (8003018 <HAL_RCC_OscConfig+0x278>)
 8002eac:	b16a      	cbz	r2, 8002eca <HAL_RCC_OscConfig+0x12a>
 8002eae:	2201      	movs	r2, #1
 8002eb0:	601a      	str	r2, [r3, #0]
 8002eb2:	f7ff f8db 	bl	800206c <HAL_GetTick>
 8002eb6:	4606      	mov	r6, r0
 8002eb8:	6823      	ldr	r3, [r4, #0]
 8002eba:	079f      	lsls	r7, r3, #30
 8002ebc:	d4ec      	bmi.n	8002e98 <HAL_RCC_OscConfig+0xf8>
 8002ebe:	f7ff f8d5 	bl	800206c <HAL_GetTick>
 8002ec2:	1b80      	subs	r0, r0, r6
 8002ec4:	2802      	cmp	r0, #2
 8002ec6:	d9f7      	bls.n	8002eb8 <HAL_RCC_OscConfig+0x118>
 8002ec8:	e7ab      	b.n	8002e22 <HAL_RCC_OscConfig+0x82>
 8002eca:	601a      	str	r2, [r3, #0]
 8002ecc:	f7ff f8ce 	bl	800206c <HAL_GetTick>
 8002ed0:	4606      	mov	r6, r0
 8002ed2:	6823      	ldr	r3, [r4, #0]
 8002ed4:	0798      	lsls	r0, r3, #30
 8002ed6:	f57f af6d 	bpl.w	8002db4 <HAL_RCC_OscConfig+0x14>
 8002eda:	f7ff f8c7 	bl	800206c <HAL_GetTick>
 8002ede:	1b80      	subs	r0, r0, r6
 8002ee0:	2802      	cmp	r0, #2
 8002ee2:	d9f6      	bls.n	8002ed2 <HAL_RCC_OscConfig+0x132>
 8002ee4:	e79d      	b.n	8002e22 <HAL_RCC_OscConfig+0x82>
 8002ee6:	69aa      	ldr	r2, [r5, #24]
 8002ee8:	4e4a      	ldr	r6, [pc, #296]	@ (8003014 <HAL_RCC_OscConfig+0x274>)
 8002eea:	4b4b      	ldr	r3, [pc, #300]	@ (8003018 <HAL_RCC_OscConfig+0x278>)
 8002eec:	b1e2      	cbz	r2, 8002f28 <HAL_RCC_OscConfig+0x188>
 8002eee:	2201      	movs	r2, #1
 8002ef0:	f8c3 2480 	str.w	r2, [r3, #1152]	@ 0x480
 8002ef4:	f7ff f8ba 	bl	800206c <HAL_GetTick>
 8002ef8:	4604      	mov	r4, r0
 8002efa:	6a73      	ldr	r3, [r6, #36]	@ 0x24
 8002efc:	079b      	lsls	r3, r3, #30
 8002efe:	d50d      	bpl.n	8002f1c <HAL_RCC_OscConfig+0x17c>
 8002f00:	f44f 52fa 	mov.w	r2, #8000	@ 0x1f40
 8002f04:	4b45      	ldr	r3, [pc, #276]	@ (800301c <HAL_RCC_OscConfig+0x27c>)
 8002f06:	681b      	ldr	r3, [r3, #0]
 8002f08:	fbb3 f3f2 	udiv	r3, r3, r2
 8002f0c:	9301      	str	r3, [sp, #4]
 8002f0e:	bf00      	nop
 8002f10:	9b01      	ldr	r3, [sp, #4]
 8002f12:	1e5a      	subs	r2, r3, #1
 8002f14:	9201      	str	r2, [sp, #4]
 8002f16:	2b00      	cmp	r3, #0
 8002f18:	d1f9      	bne.n	8002f0e <HAL_RCC_OscConfig+0x16e>
 8002f1a:	e74f      	b.n	8002dbc <HAL_RCC_OscConfig+0x1c>
 8002f1c:	f7ff f8a6 	bl	800206c <HAL_GetTick>
 8002f20:	1b00      	subs	r0, r0, r4
 8002f22:	2802      	cmp	r0, #2
 8002f24:	d9e9      	bls.n	8002efa <HAL_RCC_OscConfig+0x15a>
 8002f26:	e77c      	b.n	8002e22 <HAL_RCC_OscConfig+0x82>
 8002f28:	f8c3 2480 	str.w	r2, [r3, #1152]	@ 0x480
 8002f2c:	f7ff f89e 	bl	800206c <HAL_GetTick>
 8002f30:	4604      	mov	r4, r0
 8002f32:	6a73      	ldr	r3, [r6, #36]	@ 0x24
 8002f34:	079f      	lsls	r7, r3, #30
 8002f36:	f57f af41 	bpl.w	8002dbc <HAL_RCC_OscConfig+0x1c>
 8002f3a:	f7ff f897 	bl	800206c <HAL_GetTick>
 8002f3e:	1b00      	subs	r0, r0, r4
 8002f40:	2802      	cmp	r0, #2
 8002f42:	d9f6      	bls.n	8002f32 <HAL_RCC_OscConfig+0x192>
 8002f44:	e76d      	b.n	8002e22 <HAL_RCC_OscConfig+0x82>
 8002f46:	4c33      	ldr	r4, [pc, #204]	@ (8003014 <HAL_RCC_OscConfig+0x274>)
 8002f48:	69e3      	ldr	r3, [r4, #28]
 8002f4a:	00d8      	lsls	r0, r3, #3
 8002f4c:	d424      	bmi.n	8002f98 <HAL_RCC_OscConfig+0x1f8>
 8002f4e:	2701      	movs	r7, #1
 8002f50:	69e3      	ldr	r3, [r4, #28]
 8002f52:	f043 5380 	orr.w	r3, r3, #268435456	@ 0x10000000
 8002f56:	61e3      	str	r3, [r4, #28]
 8002f58:	69e3      	ldr	r3, [r4, #28]
 8002f5a:	f003 5380 	and.w	r3, r3, #268435456	@ 0x10000000
 8002f5e:	9300      	str	r3, [sp, #0]
 8002f60:	9b00      	ldr	r3, [sp, #0]
 8002f62:	4e2f      	ldr	r6, [pc, #188]	@ (8003020 <HAL_RCC_OscConfig+0x280>)
 8002f64:	6833      	ldr	r3, [r6, #0]
 8002f66:	05d9      	lsls	r1, r3, #23
 8002f68:	d518      	bpl.n	8002f9c <HAL_RCC_OscConfig+0x1fc>
 8002f6a:	68eb      	ldr	r3, [r5, #12]
 8002f6c:	2b01      	cmp	r3, #1
 8002f6e:	d126      	bne.n	8002fbe <HAL_RCC_OscConfig+0x21e>
 8002f70:	6a23      	ldr	r3, [r4, #32]
 8002f72:	f043 0301 	orr.w	r3, r3, #1
 8002f76:	6223      	str	r3, [r4, #32]
 8002f78:	f7ff f878 	bl	800206c <HAL_GetTick>
 8002f7c:	f241 3888 	movw	r8, #5000	@ 0x1388
 8002f80:	4606      	mov	r6, r0
 8002f82:	6a23      	ldr	r3, [r4, #32]
 8002f84:	079b      	lsls	r3, r3, #30
 8002f86:	d53f      	bpl.n	8003008 <HAL_RCC_OscConfig+0x268>
 8002f88:	2f00      	cmp	r7, #0
 8002f8a:	f43f af1b 	beq.w	8002dc4 <HAL_RCC_OscConfig+0x24>
 8002f8e:	69e3      	ldr	r3, [r4, #28]
 8002f90:	f023 5380 	bic.w	r3, r3, #268435456	@ 0x10000000
 8002f94:	61e3      	str	r3, [r4, #28]
 8002f96:	e715      	b.n	8002dc4 <HAL_RCC_OscConfig+0x24>
 8002f98:	2700      	movs	r7, #0
 8002f9a:	e7e2      	b.n	8002f62 <HAL_RCC_OscConfig+0x1c2>
 8002f9c:	6833      	ldr	r3, [r6, #0]
 8002f9e:	f443 7380 	orr.w	r3, r3, #256	@ 0x100
 8002fa2:	6033      	str	r3, [r6, #0]
 8002fa4:	f7ff f862 	bl	800206c <HAL_GetTick>
 8002fa8:	4680      	mov	r8, r0
 8002faa:	6833      	ldr	r3, [r6, #0]
 8002fac:	05da      	lsls	r2, r3, #23
 8002fae:	d4dc      	bmi.n	8002f6a <HAL_RCC_OscConfig+0x1ca>
 8002fb0:	f7ff f85c 	bl	800206c <HAL_GetTick>
 8002fb4:	eba0 0008 	sub.w	r0, r0, r8
 8002fb8:	2864      	cmp	r0, #100	@ 0x64
 8002fba:	d9f6      	bls.n	8002faa <HAL_RCC_OscConfig+0x20a>
 8002fbc:	e731      	b.n	8002e22 <HAL_RCC_OscConfig+0x82>
 8002fbe:	b9ab      	cbnz	r3, 8002fec <HAL_RCC_OscConfig+0x24c>
 8002fc0:	6a23      	ldr	r3, [r4, #32]
 8002fc2:	f241 3888 	movw	r8, #5000	@ 0x1388
 8002fc6:	f023 0301 	bic.w	r3, r3, #1
 8002fca:	6223      	str	r3, [r4, #32]
 8002fcc:	6a23      	ldr	r3, [r4, #32]
 8002fce:	f023 0304 	bic.w	r3, r3, #4
 8002fd2:	6223      	str	r3, [r4, #32]
 8002fd4:	f7ff f84a 	bl	800206c <HAL_GetTick>
 8002fd8:	4606      	mov	r6, r0
 8002fda:	6a23      	ldr	r3, [r4, #32]
 8002fdc:	0798      	lsls	r0, r3, #30
 8002fde:	d5d3      	bpl.n	8002f88 <HAL_RCC_OscConfig+0x1e8>
 8002fe0:	f7ff f844 	bl	800206c <HAL_GetTick>
 8002fe4:	1b80      	subs	r0, r0, r6
 8002fe6:	4540      	cmp	r0, r8
 8002fe8:	d9f7      	bls.n	8002fda <HAL_RCC_OscConfig+0x23a>
 8002fea:	e71a      	b.n	8002e22 <HAL_RCC_OscConfig+0x82>
 8002fec:	2b05      	cmp	r3, #5
 8002fee:	6a23      	ldr	r3, [r4, #32]
 8002ff0:	d103      	bne.n	8002ffa <HAL_RCC_OscConfig+0x25a>
 8002ff2:	f043 0304 	orr.w	r3, r3, #4
 8002ff6:	6223      	str	r3, [r4, #32]
 8002ff8:	e7ba      	b.n	8002f70 <HAL_RCC_OscConfig+0x1d0>
 8002ffa:	f023 0301 	bic.w	r3, r3, #1
 8002ffe:	6223      	str	r3, [r4, #32]
 8003000:	6a23      	ldr	r3, [r4, #32]
 8003002:	f023 0304 	bic.w	r3, r3, #4
 8003006:	e7b6      	b.n	8002f76 <HAL_RCC_OscConfig+0x1d6>
 8003008:	f7ff f830 	bl	800206c <HAL_GetTick>
 800300c:	1b80      	subs	r0, r0, r6
 800300e:	4540      	cmp	r0, r8
 8003010:	d9b7      	bls.n	8002f82 <HAL_RCC_OscConfig+0x1e2>
 8003012:	e706      	b.n	8002e22 <HAL_RCC_OscConfig+0x82>
 8003014:	40021000 	.word	0x40021000
 8003018:	42420000 	.word	0x42420000
 800301c:	20000008 	.word	0x20000008
 8003020:	40007000 	.word	0x40007000
 8003024:	4c2a      	ldr	r4, [pc, #168]	@ (80030d0 <HAL_RCC_OscConfig+0x330>)
 8003026:	6862      	ldr	r2, [r4, #4]
 8003028:	f002 020c 	and.w	r2, r2, #12
 800302c:	2a08      	cmp	r2, #8
 800302e:	d03e      	beq.n	80030ae <HAL_RCC_OscConfig+0x30e>
 8003030:	2200      	movs	r2, #0
 8003032:	2b02      	cmp	r3, #2
 8003034:	4b27      	ldr	r3, [pc, #156]	@ (80030d4 <HAL_RCC_OscConfig+0x334>)
 8003036:	661a      	str	r2, [r3, #96]	@ 0x60
 8003038:	d12c      	bne.n	8003094 <HAL_RCC_OscConfig+0x2f4>
 800303a:	f7ff f817 	bl	800206c <HAL_GetTick>
 800303e:	4606      	mov	r6, r0
 8003040:	6823      	ldr	r3, [r4, #0]
 8003042:	0199      	lsls	r1, r3, #6
 8003044:	d420      	bmi.n	8003088 <HAL_RCC_OscConfig+0x2e8>
 8003046:	6a2b      	ldr	r3, [r5, #32]
 8003048:	f5b3 3f80 	cmp.w	r3, #65536	@ 0x10000
 800304c:	d105      	bne.n	800305a <HAL_RCC_OscConfig+0x2ba>
 800304e:	6862      	ldr	r2, [r4, #4]
 8003050:	68a9      	ldr	r1, [r5, #8]
 8003052:	f422 3200 	bic.w	r2, r2, #131072	@ 0x20000
 8003056:	430a      	orrs	r2, r1
 8003058:	6062      	str	r2, [r4, #4]
 800305a:	6a69      	ldr	r1, [r5, #36]	@ 0x24
 800305c:	6862      	ldr	r2, [r4, #4]
 800305e:	430b      	orrs	r3, r1
 8003060:	f422 1274 	bic.w	r2, r2, #3997696	@ 0x3d0000
 8003064:	4313      	orrs	r3, r2
 8003066:	2201      	movs	r2, #1
 8003068:	6063      	str	r3, [r4, #4]
 800306a:	4b1a      	ldr	r3, [pc, #104]	@ (80030d4 <HAL_RCC_OscConfig+0x334>)
 800306c:	661a      	str	r2, [r3, #96]	@ 0x60
 800306e:	f7fe fffd 	bl	800206c <HAL_GetTick>
 8003072:	4605      	mov	r5, r0
 8003074:	6823      	ldr	r3, [r4, #0]
 8003076:	019a      	lsls	r2, r3, #6
 8003078:	f53f aea8 	bmi.w	8002dcc <HAL_RCC_OscConfig+0x2c>
 800307c:	f7fe fff6 	bl	800206c <HAL_GetTick>
 8003080:	1b40      	subs	r0, r0, r5
 8003082:	2802      	cmp	r0, #2
 8003084:	d9f6      	bls.n	8003074 <HAL_RCC_OscConfig+0x2d4>
 8003086:	e6cc      	b.n	8002e22 <HAL_RCC_OscConfig+0x82>
 8003088:	f7fe fff0 	bl	800206c <HAL_GetTick>
 800308c:	1b80      	subs	r0, r0, r6
 800308e:	2802      	cmp	r0, #2
 8003090:	d9d6      	bls.n	8003040 <HAL_RCC_OscConfig+0x2a0>
 8003092:	e6c6      	b.n	8002e22 <HAL_RCC_OscConfig+0x82>
 8003094:	f7fe ffea 	bl	800206c <HAL_GetTick>
 8003098:	4605      	mov	r5, r0
 800309a:	6823      	ldr	r3, [r4, #0]
 800309c:	019b      	lsls	r3, r3, #6
 800309e:	f57f ae95 	bpl.w	8002dcc <HAL_RCC_OscConfig+0x2c>
 80030a2:	f7fe ffe3 	bl	800206c <HAL_GetTick>
 80030a6:	1b40      	subs	r0, r0, r5
 80030a8:	2802      	cmp	r0, #2
 80030aa:	d9f6      	bls.n	800309a <HAL_RCC_OscConfig+0x2fa>
 80030ac:	e6b9      	b.n	8002e22 <HAL_RCC_OscConfig+0x82>
 80030ae:	2b01      	cmp	r3, #1
 80030b0:	f43f aea2 	beq.w	8002df8 <HAL_RCC_OscConfig+0x58>
 80030b4:	6860      	ldr	r0, [r4, #4]
 80030b6:	6a2b      	ldr	r3, [r5, #32]
 80030b8:	f400 3280 	and.w	r2, r0, #65536	@ 0x10000
 80030bc:	429a      	cmp	r2, r3
 80030be:	f47f ae9b 	bne.w	8002df8 <HAL_RCC_OscConfig+0x58>
 80030c2:	6a6b      	ldr	r3, [r5, #36]	@ 0x24
 80030c4:	f400 1070 	and.w	r0, r0, #3932160	@ 0x3c0000
 80030c8:	1ac0      	subs	r0, r0, r3
 80030ca:	bf18      	it	ne
 80030cc:	2001      	movne	r0, #1
 80030ce:	e6a9      	b.n	8002e24 <HAL_RCC_OscConfig+0x84>
 80030d0:	40021000 	.word	0x40021000
 80030d4:	42420000 	.word	0x42420000

080030d8 <HAL_RCC_GetSysClockFreq>:
 80030d8:	4a0d      	ldr	r2, [pc, #52]	@ (8003110 <HAL_RCC_GetSysClockFreq+0x38>)
 80030da:	6853      	ldr	r3, [r2, #4]
 80030dc:	f003 010c 	and.w	r1, r3, #12
 80030e0:	2908      	cmp	r1, #8
 80030e2:	d112      	bne.n	800310a <HAL_RCC_GetSysClockFreq+0x32>
 80030e4:	480b      	ldr	r0, [pc, #44]	@ (8003114 <HAL_RCC_GetSysClockFreq+0x3c>)
 80030e6:	f3c3 4183 	ubfx	r1, r3, #18, #4
 80030ea:	03db      	lsls	r3, r3, #15
 80030ec:	5c40      	ldrb	r0, [r0, r1]
 80030ee:	d509      	bpl.n	8003104 <HAL_RCC_GetSysClockFreq+0x2c>
 80030f0:	6853      	ldr	r3, [r2, #4]
 80030f2:	4a09      	ldr	r2, [pc, #36]	@ (8003118 <HAL_RCC_GetSysClockFreq+0x40>)
 80030f4:	f3c3 4340 	ubfx	r3, r3, #17, #1
 80030f8:	4350      	muls	r0, r2
 80030fa:	4a08      	ldr	r2, [pc, #32]	@ (800311c <HAL_RCC_GetSysClockFreq+0x44>)
 80030fc:	5cd3      	ldrb	r3, [r2, r3]
 80030fe:	fbb0 f0f3 	udiv	r0, r0, r3
 8003102:	4770      	bx	lr
 8003104:	4b06      	ldr	r3, [pc, #24]	@ (8003120 <HAL_RCC_GetSysClockFreq+0x48>)
 8003106:	4358      	muls	r0, r3
 8003108:	4770      	bx	lr
 800310a:	4803      	ldr	r0, [pc, #12]	@ (8003118 <HAL_RCC_GetSysClockFreq+0x40>)
 800310c:	4770      	bx	lr
 800310e:	bf00      	nop
 8003110:	40021000 	.word	0x40021000
 8003114:	080092aa 	.word	0x080092aa
 8003118:	007a1200 	.word	0x007a1200
 800311c:	080092a8 	.word	0x080092a8
 8003120:	003d0900 	.word	0x003d0900

08003124 <HAL_RCC_ClockConfig>:
 8003124:	e92d 41f0 	stmdb	sp!, {r4, r5, r6, r7, r8, lr}
 8003128:	460d      	mov	r5, r1
 800312a:	4604      	mov	r4, r0
 800312c:	b910      	cbnz	r0, 8003134 <HAL_RCC_ClockConfig+0x10>
 800312e:	2001      	movs	r0, #1
 8003130:	e8bd 81f0 	ldmia.w	sp!, {r4, r5, r6, r7, r8, pc}
 8003134:	4a44      	ldr	r2, [pc, #272]	@ (8003248 <HAL_RCC_ClockConfig+0x124>)
 8003136:	6813      	ldr	r3, [r2, #0]
 8003138:	f003 0307 	and.w	r3, r3, #7
 800313c:	428b      	cmp	r3, r1
 800313e:	d328      	bcc.n	8003192 <HAL_RCC_ClockConfig+0x6e>
 8003140:	6821      	ldr	r1, [r4, #0]
 8003142:	078e      	lsls	r6, r1, #30
 8003144:	d430      	bmi.n	80031a8 <HAL_RCC_ClockConfig+0x84>
 8003146:	07ca      	lsls	r2, r1, #31
 8003148:	d443      	bmi.n	80031d2 <HAL_RCC_ClockConfig+0xae>
 800314a:	4a3f      	ldr	r2, [pc, #252]	@ (8003248 <HAL_RCC_ClockConfig+0x124>)
 800314c:	6813      	ldr	r3, [r2, #0]
 800314e:	f003 0307 	and.w	r3, r3, #7
 8003152:	42ab      	cmp	r3, r5
 8003154:	d865      	bhi.n	8003222 <HAL_RCC_ClockConfig+0xfe>
 8003156:	6822      	ldr	r2, [r4, #0]
 8003158:	4d3c      	ldr	r5, [pc, #240]	@ (800324c <HAL_RCC_ClockConfig+0x128>)
 800315a:	f012 0f04 	tst.w	r2, #4
 800315e:	d16c      	bne.n	800323a <HAL_RCC_ClockConfig+0x116>
 8003160:	0713      	lsls	r3, r2, #28
 8003162:	d506      	bpl.n	8003172 <HAL_RCC_ClockConfig+0x4e>
 8003164:	686b      	ldr	r3, [r5, #4]
 8003166:	6922      	ldr	r2, [r4, #16]
 8003168:	f423 5360 	bic.w	r3, r3, #14336	@ 0x3800
 800316c:	ea43 03c2 	orr.w	r3, r3, r2, lsl #3
 8003170:	606b      	str	r3, [r5, #4]
 8003172:	f7ff ffb1 	bl	80030d8 <HAL_RCC_GetSysClockFreq>
 8003176:	686b      	ldr	r3, [r5, #4]
 8003178:	4a35      	ldr	r2, [pc, #212]	@ (8003250 <HAL_RCC_ClockConfig+0x12c>)
 800317a:	f3c3 1303 	ubfx	r3, r3, #4, #4
 800317e:	5cd3      	ldrb	r3, [r2, r3]
 8003180:	40d8      	lsrs	r0, r3
 8003182:	4b34      	ldr	r3, [pc, #208]	@ (8003254 <HAL_RCC_ClockConfig+0x130>)
 8003184:	6018      	str	r0, [r3, #0]
 8003186:	4b34      	ldr	r3, [pc, #208]	@ (8003258 <HAL_RCC_ClockConfig+0x134>)
 8003188:	6818      	ldr	r0, [r3, #0]
 800318a:	f7fe ff2d 	bl	8001fe8 <HAL_InitTick>
 800318e:	2000      	movs	r0, #0
 8003190:	e7ce      	b.n	8003130 <HAL_RCC_ClockConfig+0xc>
 8003192:	6813      	ldr	r3, [r2, #0]
 8003194:	f023 0307 	bic.w	r3, r3, #7
 8003198:	430b      	orrs	r3, r1
 800319a:	6013      	str	r3, [r2, #0]
 800319c:	6813      	ldr	r3, [r2, #0]
 800319e:	f003 0307 	and.w	r3, r3, #7
 80031a2:	428b      	cmp	r3, r1
 80031a4:	d1c3      	bne.n	800312e <HAL_RCC_ClockConfig+0xa>
 80031a6:	e7cb      	b.n	8003140 <HAL_RCC_ClockConfig+0x1c>
 80031a8:	4b28      	ldr	r3, [pc, #160]	@ (800324c <HAL_RCC_ClockConfig+0x128>)
 80031aa:	f011 0f04 	tst.w	r1, #4
 80031ae:	bf1e      	ittt	ne
 80031b0:	685a      	ldrne	r2, [r3, #4]
 80031b2:	f442 62e0 	orrne.w	r2, r2, #1792	@ 0x700
 80031b6:	605a      	strne	r2, [r3, #4]
 80031b8:	0708      	lsls	r0, r1, #28
 80031ba:	bf42      	ittt	mi
 80031bc:	685a      	ldrmi	r2, [r3, #4]
 80031be:	f442 5260 	orrmi.w	r2, r2, #14336	@ 0x3800
 80031c2:	605a      	strmi	r2, [r3, #4]
 80031c4:	685a      	ldr	r2, [r3, #4]
 80031c6:	68a0      	ldr	r0, [r4, #8]
 80031c8:	f022 02f0 	bic.w	r2, r2, #240	@ 0xf0
 80031cc:	4302      	orrs	r2, r0
 80031ce:	605a      	str	r2, [r3, #4]
 80031d0:	e7b9      	b.n	8003146 <HAL_RCC_ClockConfig+0x22>
 80031d2:	6862      	ldr	r2, [r4, #4]
 80031d4:	4e1d      	ldr	r6, [pc, #116]	@ (800324c <HAL_RCC_ClockConfig+0x128>)
 80031d6:	2a01      	cmp	r2, #1
 80031d8:	6833      	ldr	r3, [r6, #0]
 80031da:	d11a      	bne.n	8003212 <HAL_RCC_ClockConfig+0xee>
 80031dc:	f413 3f00 	tst.w	r3, #131072	@ 0x20000
 80031e0:	d0a5      	beq.n	800312e <HAL_RCC_ClockConfig+0xa>
 80031e2:	6873      	ldr	r3, [r6, #4]
 80031e4:	f241 3888 	movw	r8, #5000	@ 0x1388
 80031e8:	f023 0303 	bic.w	r3, r3, #3
 80031ec:	4313      	orrs	r3, r2
 80031ee:	6073      	str	r3, [r6, #4]
 80031f0:	f7fe ff3c 	bl	800206c <HAL_GetTick>
 80031f4:	4607      	mov	r7, r0
 80031f6:	6873      	ldr	r3, [r6, #4]
 80031f8:	6862      	ldr	r2, [r4, #4]
 80031fa:	f003 030c 	and.w	r3, r3, #12
 80031fe:	ebb3 0f82 	cmp.w	r3, r2, lsl #2
 8003202:	d0a2      	beq.n	800314a <HAL_RCC_ClockConfig+0x26>
 8003204:	f7fe ff32 	bl	800206c <HAL_GetTick>
 8003208:	1bc0      	subs	r0, r0, r7
 800320a:	4540      	cmp	r0, r8
 800320c:	d9f3      	bls.n	80031f6 <HAL_RCC_ClockConfig+0xd2>
 800320e:	2003      	movs	r0, #3
 8003210:	e78e      	b.n	8003130 <HAL_RCC_ClockConfig+0xc>
 8003212:	2a02      	cmp	r2, #2
 8003214:	d102      	bne.n	800321c <HAL_RCC_ClockConfig+0xf8>
 8003216:	f013 7f00 	tst.w	r3, #33554432	@ 0x2000000
 800321a:	e7e1      	b.n	80031e0 <HAL_RCC_ClockConfig+0xbc>
 800321c:	f013 0f02 	tst.w	r3, #2
 8003220:	e7de      	b.n	80031e0 <HAL_RCC_ClockConfig+0xbc>
 8003222:	6813      	ldr	r3, [r2, #0]
 8003224:	f023 0307 	bic.w	r3, r3, #7
 8003228:	432b      	orrs	r3, r5
 800322a:	6013      	str	r3, [r2, #0]
 800322c:	6813      	ldr	r3, [r2, #0]
 800322e:	f003 0307 	and.w	r3, r3, #7
 8003232:	42ab      	cmp	r3, r5
 8003234:	f47f af7b 	bne.w	800312e <HAL_RCC_ClockConfig+0xa>
 8003238:	e78d      	b.n	8003156 <HAL_RCC_ClockConfig+0x32>
 800323a:	686b      	ldr	r3, [r5, #4]
 800323c:	68e1      	ldr	r1, [r4, #12]
 800323e:	f423 63e0 	bic.w	r3, r3, #1792	@ 0x700
 8003242:	430b      	orrs	r3, r1
 8003244:	606b      	str	r3, [r5, #4]
 8003246:	e78b      	b.n	8003160 <HAL_RCC_ClockConfig+0x3c>
 8003248:	40022000 	.word	0x40022000
 800324c:	40021000 	.word	0x40021000
 8003250:	08009298 	.word	0x08009298
 8003254:	20000008 	.word	0x20000008
 8003258:	20000010 	.word	0x20000010

0800325c <HAL_RCC_GetPCLK1Freq>:
 800325c:	4b04      	ldr	r3, [pc, #16]	@ (8003270 <HAL_RCC_GetPCLK1Freq+0x14>)
 800325e:	4a05      	ldr	r2, [pc, #20]	@ (8003274 <HAL_RCC_GetPCLK1Freq+0x18>)
 8003260:	685b      	ldr	r3, [r3, #4]
 8003262:	f3c3 2302 	ubfx	r3, r3, #8, #3
 8003266:	5cd3      	ldrb	r3, [r2, r3]
 8003268:	4a03      	ldr	r2, [pc, #12]	@ (8003278 <HAL_RCC_GetPCLK1Freq+0x1c>)
 800326a:	6810      	ldr	r0, [r2, #0]
 800326c:	40d8      	lsrs	r0, r3
 800326e:	4770      	bx	lr
 8003270:	40021000 	.word	0x40021000
 8003274:	08009290 	.word	0x08009290
 8003278:	20000008 	.word	0x20000008

0800327c <HAL_RCC_GetPCLK2Freq>:
 800327c:	4b04      	ldr	r3, [pc, #16]	@ (8003290 <HAL_RCC_GetPCLK2Freq+0x14>)
 800327e:	4a05      	ldr	r2, [pc, #20]	@ (8003294 <HAL_RCC_GetPCLK2Freq+0x18>)
 8003280:	685b      	ldr	r3, [r3, #4]
 8003282:	f3c3 23c2 	ubfx	r3, r3, #11, #3
 8003286:	5cd3      	ldrb	r3, [r2, r3]
 8003288:	4a03      	ldr	r2, [pc, #12]	@ (8003298 <HAL_RCC_GetPCLK2Freq+0x1c>)
 800328a:	6810      	ldr	r0, [r2, #0]
 800328c:	40d8      	lsrs	r0, r3
 800328e:	4770      	bx	lr
 8003290:	40021000 	.word	0x40021000
 8003294:	08009290 	.word	0x08009290
 8003298:	20000008 	.word	0x20000008

0800329c <TIM_Base_SetConfig>:
 800329c:	4a17      	ldr	r2, [pc, #92]	@ (80032fc <TIM_Base_SetConfig+0x60>)
 800329e:	6803      	ldr	r3, [r0, #0]
 80032a0:	4290      	cmp	r0, r2
 80032a2:	d00a      	beq.n	80032ba <TIM_Base_SetConfig+0x1e>
 80032a4:	f1b0 4f80 	cmp.w	r0, #1073741824	@ 0x40000000
 80032a8:	d007      	beq.n	80032ba <TIM_Base_SetConfig+0x1e>
 80032aa:	f5a2 3294 	sub.w	r2, r2, #75776	@ 0x12800
 80032ae:	4290      	cmp	r0, r2
 80032b0:	d003      	beq.n	80032ba <TIM_Base_SetConfig+0x1e>
 80032b2:	f502 6280 	add.w	r2, r2, #1024	@ 0x400
 80032b6:	4290      	cmp	r0, r2
 80032b8:	d107      	bne.n	80032ca <TIM_Base_SetConfig+0x2e>
 80032ba:	684a      	ldr	r2, [r1, #4]
 80032bc:	f023 0370 	bic.w	r3, r3, #112	@ 0x70
 80032c0:	4313      	orrs	r3, r2
 80032c2:	68ca      	ldr	r2, [r1, #12]
 80032c4:	f423 7340 	bic.w	r3, r3, #768	@ 0x300
 80032c8:	4313      	orrs	r3, r2
 80032ca:	694a      	ldr	r2, [r1, #20]
 80032cc:	f023 0380 	bic.w	r3, r3, #128	@ 0x80
 80032d0:	4313      	orrs	r3, r2
 80032d2:	6003      	str	r3, [r0, #0]
 80032d4:	688b      	ldr	r3, [r1, #8]
 80032d6:	62c3      	str	r3, [r0, #44]	@ 0x2c
 80032d8:	680b      	ldr	r3, [r1, #0]
 80032da:	6283      	str	r3, [r0, #40]	@ 0x28
 80032dc:	4b07      	ldr	r3, [pc, #28]	@ (80032fc <TIM_Base_SetConfig+0x60>)
 80032de:	4298      	cmp	r0, r3
 80032e0:	bf04      	itt	eq
 80032e2:	690b      	ldreq	r3, [r1, #16]
 80032e4:	6303      	streq	r3, [r0, #48]	@ 0x30
 80032e6:	2301      	movs	r3, #1
 80032e8:	6143      	str	r3, [r0, #20]
 80032ea:	6903      	ldr	r3, [r0, #16]
 80032ec:	07db      	lsls	r3, r3, #31
 80032ee:	bf42      	ittt	mi
 80032f0:	6903      	ldrmi	r3, [r0, #16]
 80032f2:	f023 0301 	bicmi.w	r3, r3, #1
 80032f6:	6103      	strmi	r3, [r0, #16]
 80032f8:	4770      	bx	lr
 80032fa:	bf00      	nop
 80032fc:	40012c00 	.word	0x40012c00

08003300 <HAL_TIM_Base_Init>:
 8003300:	b510      	push	{r4, lr}
 8003302:	4604      	mov	r4, r0
 8003304:	b330      	cbz	r0, 8003354 <HAL_TIM_Base_Init+0x54>
 8003306:	f890 303d 	ldrb.w	r3, [r0, #61]	@ 0x3d
 800330a:	f003 02ff 	and.w	r2, r3, #255	@ 0xff
 800330e:	b91b      	cbnz	r3, 8003318 <HAL_TIM_Base_Init+0x18>
 8003310:	f880 203c 	strb.w	r2, [r0, #60]	@ 0x3c
 8003314:	f7fe fd04 	bl	8001d20 <HAL_TIM_Base_MspInit>
 8003318:	2302      	movs	r3, #2
 800331a:	6820      	ldr	r0, [r4, #0]
 800331c:	f884 303d 	strb.w	r3, [r4, #61]	@ 0x3d
 8003320:	1d21      	adds	r1, r4, #4
 8003322:	f7ff ffbb 	bl	800329c <TIM_Base_SetConfig>
 8003326:	2301      	movs	r3, #1
 8003328:	2000      	movs	r0, #0
 800332a:	f884 3046 	strb.w	r3, [r4, #70]	@ 0x46
 800332e:	f884 303e 	strb.w	r3, [r4, #62]	@ 0x3e
 8003332:	f884 303f 	strb.w	r3, [r4, #63]	@ 0x3f
 8003336:	f884 3040 	strb.w	r3, [r4, #64]	@ 0x40
 800333a:	f884 3041 	strb.w	r3, [r4, #65]	@ 0x41
 800333e:	f884 3042 	strb.w	r3, [r4, #66]	@ 0x42
 8003342:	f884 3043 	strb.w	r3, [r4, #67]	@ 0x43
 8003346:	f884 3044 	strb.w	r3, [r4, #68]	@ 0x44
 800334a:	f884 3045 	strb.w	r3, [r4, #69]	@ 0x45
 800334e:	f884 303d 	strb.w	r3, [r4, #61]	@ 0x3d
 8003352:	bd10      	pop	{r4, pc}
 8003354:	2001      	movs	r0, #1
 8003356:	e7fc      	b.n	8003352 <HAL_TIM_Base_Init+0x52>

08003358 <TIM_ETR_SetConfig>:
 8003358:	b510      	push	{r4, lr}
 800335a:	6884      	ldr	r4, [r0, #8]
 800335c:	430a      	orrs	r2, r1
 800335e:	f424 447f 	bic.w	r4, r4, #65280	@ 0xff00
 8003362:	ea42 2203 	orr.w	r2, r2, r3, lsl #8
 8003366:	4322      	orrs	r2, r4
 8003368:	6082      	str	r2, [r0, #8]
 800336a:	bd10      	pop	{r4, pc}

0800336c <HAL_TIM_ConfigClockSource>:
 800336c:	b538      	push	{r3, r4, r5, lr}
 800336e:	f890 303c 	ldrb.w	r3, [r0, #60]	@ 0x3c
 8003372:	4604      	mov	r4, r0
 8003374:	2b01      	cmp	r3, #1
 8003376:	f04f 0002 	mov.w	r0, #2
 800337a:	f000 808e 	beq.w	800349a <HAL_TIM_ConfigClockSource+0x12e>
 800337e:	2201      	movs	r2, #1
 8003380:	f884 003d 	strb.w	r0, [r4, #61]	@ 0x3d
 8003384:	6820      	ldr	r0, [r4, #0]
 8003386:	f884 203c 	strb.w	r2, [r4, #60]	@ 0x3c
 800338a:	6883      	ldr	r3, [r0, #8]
 800338c:	f423 437f 	bic.w	r3, r3, #65280	@ 0xff00
 8003390:	f023 0377 	bic.w	r3, r3, #119	@ 0x77
 8003394:	6083      	str	r3, [r0, #8]
 8003396:	680b      	ldr	r3, [r1, #0]
 8003398:	2b60      	cmp	r3, #96	@ 0x60
 800339a:	d04f      	beq.n	800343c <HAL_TIM_ConfigClockSource+0xd0>
 800339c:	d832      	bhi.n	8003404 <HAL_TIM_ConfigClockSource+0x98>
 800339e:	2b40      	cmp	r3, #64	@ 0x40
 80033a0:	d064      	beq.n	800346c <HAL_TIM_ConfigClockSource+0x100>
 80033a2:	d816      	bhi.n	80033d2 <HAL_TIM_ConfigClockSource+0x66>
 80033a4:	2b20      	cmp	r3, #32
 80033a6:	d00d      	beq.n	80033c4 <HAL_TIM_ConfigClockSource+0x58>
 80033a8:	d80a      	bhi.n	80033c0 <HAL_TIM_ConfigClockSource+0x54>
 80033aa:	f033 0110 	bics.w	r1, r3, #16
 80033ae:	d009      	beq.n	80033c4 <HAL_TIM_ConfigClockSource+0x58>
 80033b0:	2301      	movs	r3, #1
 80033b2:	f884 303d 	strb.w	r3, [r4, #61]	@ 0x3d
 80033b6:	2300      	movs	r3, #0
 80033b8:	f884 303c 	strb.w	r3, [r4, #60]	@ 0x3c
 80033bc:	4610      	mov	r0, r2
 80033be:	bd38      	pop	{r3, r4, r5, pc}
 80033c0:	2b30      	cmp	r3, #48	@ 0x30
 80033c2:	d1f5      	bne.n	80033b0 <HAL_TIM_ConfigClockSource+0x44>
 80033c4:	6882      	ldr	r2, [r0, #8]
 80033c6:	f022 0270 	bic.w	r2, r2, #112	@ 0x70
 80033ca:	4313      	orrs	r3, r2
 80033cc:	f043 0307 	orr.w	r3, r3, #7
 80033d0:	e028      	b.n	8003424 <HAL_TIM_ConfigClockSource+0xb8>
 80033d2:	2b50      	cmp	r3, #80	@ 0x50
 80033d4:	d1ec      	bne.n	80033b0 <HAL_TIM_ConfigClockSource+0x44>
 80033d6:	684a      	ldr	r2, [r1, #4]
 80033d8:	68cd      	ldr	r5, [r1, #12]
 80033da:	6a01      	ldr	r1, [r0, #32]
 80033dc:	6a03      	ldr	r3, [r0, #32]
 80033de:	f021 010a 	bic.w	r1, r1, #10
 80033e2:	f023 0301 	bic.w	r3, r3, #1
 80033e6:	6203      	str	r3, [r0, #32]
 80033e8:	6983      	ldr	r3, [r0, #24]
 80033ea:	430a      	orrs	r2, r1
 80033ec:	f023 03f0 	bic.w	r3, r3, #240	@ 0xf0
 80033f0:	ea43 1305 	orr.w	r3, r3, r5, lsl #4
 80033f4:	6183      	str	r3, [r0, #24]
 80033f6:	6202      	str	r2, [r0, #32]
 80033f8:	6883      	ldr	r3, [r0, #8]
 80033fa:	f023 0370 	bic.w	r3, r3, #112	@ 0x70
 80033fe:	f043 0357 	orr.w	r3, r3, #87	@ 0x57
 8003402:	e00f      	b.n	8003424 <HAL_TIM_ConfigClockSource+0xb8>
 8003404:	f5b3 5f80 	cmp.w	r3, #4096	@ 0x1000
 8003408:	d00d      	beq.n	8003426 <HAL_TIM_ConfigClockSource+0xba>
 800340a:	f5b3 5f00 	cmp.w	r3, #8192	@ 0x2000
 800340e:	d00c      	beq.n	800342a <HAL_TIM_ConfigClockSource+0xbe>
 8003410:	2b70      	cmp	r3, #112	@ 0x70
 8003412:	d1cd      	bne.n	80033b0 <HAL_TIM_ConfigClockSource+0x44>
 8003414:	68cb      	ldr	r3, [r1, #12]
 8003416:	e9d1 2101 	ldrd	r2, r1, [r1, #4]
 800341a:	f7ff ff9d 	bl	8003358 <TIM_ETR_SetConfig>
 800341e:	6883      	ldr	r3, [r0, #8]
 8003420:	f043 0377 	orr.w	r3, r3, #119	@ 0x77
 8003424:	6083      	str	r3, [r0, #8]
 8003426:	2200      	movs	r2, #0
 8003428:	e7c2      	b.n	80033b0 <HAL_TIM_ConfigClockSource+0x44>
 800342a:	68cb      	ldr	r3, [r1, #12]
 800342c:	e9d1 2101 	ldrd	r2, r1, [r1, #4]
 8003430:	f7ff ff92 	bl	8003358 <TIM_ETR_SetConfig>
 8003434:	6883      	ldr	r3, [r0, #8]
 8003436:	f443 4380 	orr.w	r3, r3, #16384	@ 0x4000
 800343a:	e7f3      	b.n	8003424 <HAL_TIM_ConfigClockSource+0xb8>
 800343c:	6a03      	ldr	r3, [r0, #32]
 800343e:	6a02      	ldr	r2, [r0, #32]
 8003440:	684d      	ldr	r5, [r1, #4]
 8003442:	f022 0210 	bic.w	r2, r2, #16
 8003446:	68c9      	ldr	r1, [r1, #12]
 8003448:	6202      	str	r2, [r0, #32]
 800344a:	6982      	ldr	r2, [r0, #24]
 800344c:	f023 03a0 	bic.w	r3, r3, #160	@ 0xa0
 8003450:	f422 4270 	bic.w	r2, r2, #61440	@ 0xf000
 8003454:	ea43 1305 	orr.w	r3, r3, r5, lsl #4
 8003458:	ea42 3201 	orr.w	r2, r2, r1, lsl #12
 800345c:	6182      	str	r2, [r0, #24]
 800345e:	6203      	str	r3, [r0, #32]
 8003460:	6883      	ldr	r3, [r0, #8]
 8003462:	f023 0370 	bic.w	r3, r3, #112	@ 0x70
 8003466:	f043 0367 	orr.w	r3, r3, #103	@ 0x67
 800346a:	e7db      	b.n	8003424 <HAL_TIM_ConfigClockSource+0xb8>
 800346c:	684a      	ldr	r2, [r1, #4]
 800346e:	68cd      	ldr	r5, [r1, #12]
 8003470:	6a01      	ldr	r1, [r0, #32]
 8003472:	6a03      	ldr	r3, [r0, #32]
 8003474:	f021 010a 	bic.w	r1, r1, #10
 8003478:	f023 0301 	bic.w	r3, r3, #1
 800347c:	6203      	str	r3, [r0, #32]
 800347e:	6983      	ldr	r3, [r0, #24]
 8003480:	430a      	orrs	r2, r1
 8003482:	f023 03f0 	bic.w	r3, r3, #240	@ 0xf0
 8003486:	ea43 1305 	orr.w	r3, r3, r5, lsl #4
 800348a:	6183      	str	r3, [r0, #24]
 800348c:	6202      	str	r2, [r0, #32]
 800348e:	6883      	ldr	r3, [r0, #8]
 8003490:	f023 0370 	bic.w	r3, r3, #112	@ 0x70
 8003494:	f043 0347 	orr.w	r3, r3, #71	@ 0x47
 8003498:	e7c4      	b.n	8003424 <HAL_TIM_ConfigClockSource+0xb8>
 800349a:	4602      	mov	r2, r0
 800349c:	e78e      	b.n	80033bc <HAL_TIM_ConfigClockSource+0x50>
	...

080034a0 <HAL_TIMEx_MasterConfigSynchronization>:
 80034a0:	b530      	push	{r4, r5, lr}
 80034a2:	f890 303c 	ldrb.w	r3, [r0, #60]	@ 0x3c
 80034a6:	4602      	mov	r2, r0
 80034a8:	2b01      	cmp	r3, #1
 80034aa:	f04f 0002 	mov.w	r0, #2
 80034ae:	d022      	beq.n	80034f6 <HAL_TIMEx_MasterConfigSynchronization+0x56>
 80034b0:	6813      	ldr	r3, [r2, #0]
 80034b2:	f882 003d 	strb.w	r0, [r2, #61]	@ 0x3d
 80034b6:	685c      	ldr	r4, [r3, #4]
 80034b8:	680d      	ldr	r5, [r1, #0]
 80034ba:	f024 0470 	bic.w	r4, r4, #112	@ 0x70
 80034be:	432c      	orrs	r4, r5
 80034c0:	6898      	ldr	r0, [r3, #8]
 80034c2:	605c      	str	r4, [r3, #4]
 80034c4:	4c0c      	ldr	r4, [pc, #48]	@ (80034f8 <HAL_TIMEx_MasterConfigSynchronization+0x58>)
 80034c6:	42a3      	cmp	r3, r4
 80034c8:	d00a      	beq.n	80034e0 <HAL_TIMEx_MasterConfigSynchronization+0x40>
 80034ca:	f1b3 4f80 	cmp.w	r3, #1073741824	@ 0x40000000
 80034ce:	d007      	beq.n	80034e0 <HAL_TIMEx_MasterConfigSynchronization+0x40>
 80034d0:	f5a4 3494 	sub.w	r4, r4, #75776	@ 0x12800
 80034d4:	42a3      	cmp	r3, r4
 80034d6:	d003      	beq.n	80034e0 <HAL_TIMEx_MasterConfigSynchronization+0x40>
 80034d8:	f504 6480 	add.w	r4, r4, #1024	@ 0x400
 80034dc:	42a3      	cmp	r3, r4
 80034de:	d104      	bne.n	80034ea <HAL_TIMEx_MasterConfigSynchronization+0x4a>
 80034e0:	6849      	ldr	r1, [r1, #4]
 80034e2:	f020 0080 	bic.w	r0, r0, #128	@ 0x80
 80034e6:	4301      	orrs	r1, r0
 80034e8:	6099      	str	r1, [r3, #8]
 80034ea:	2301      	movs	r3, #1
 80034ec:	2000      	movs	r0, #0
 80034ee:	f882 303d 	strb.w	r3, [r2, #61]	@ 0x3d
 80034f2:	f882 003c 	strb.w	r0, [r2, #60]	@ 0x3c
 80034f6:	bd30      	pop	{r4, r5, pc}
 80034f8:	40012c00 	.word	0x40012c00

080034fc <UART_EndRxTransfer>:
 80034fc:	6802      	ldr	r2, [r0, #0]
 80034fe:	f102 030c 	add.w	r3, r2, #12
 8003502:	e853 3f00 	ldrex	r3, [r3]
 8003506:	f423 7390 	bic.w	r3, r3, #288	@ 0x120
 800350a:	320c      	adds	r2, #12
 800350c:	e842 3100 	strex	r1, r3, [r2]
 8003510:	6802      	ldr	r2, [r0, #0]
 8003512:	2900      	cmp	r1, #0
 8003514:	d1f2      	bne.n	80034fc <UART_EndRxTransfer>
 8003516:	f102 0314 	add.w	r3, r2, #20
 800351a:	e853 3f00 	ldrex	r3, [r3]
 800351e:	f023 0301 	bic.w	r3, r3, #1
 8003522:	f102 0c14 	add.w	ip, r2, #20
 8003526:	e84c 3100 	strex	r1, r3, [ip]
 800352a:	2900      	cmp	r1, #0
 800352c:	d1f3      	bne.n	8003516 <UART_EndRxTransfer+0x1a>
 800352e:	6b03      	ldr	r3, [r0, #48]	@ 0x30
 8003530:	2b01      	cmp	r3, #1
 8003532:	d10b      	bne.n	800354c <UART_EndRxTransfer+0x50>
 8003534:	f102 030c 	add.w	r3, r2, #12
 8003538:	e853 3f00 	ldrex	r3, [r3]
 800353c:	f023 0310 	bic.w	r3, r3, #16
 8003540:	f102 0c0c 	add.w	ip, r2, #12
 8003544:	e84c 3100 	strex	r1, r3, [ip]
 8003548:	2900      	cmp	r1, #0
 800354a:	d1f3      	bne.n	8003534 <UART_EndRxTransfer+0x38>
 800354c:	2320      	movs	r3, #32
 800354e:	f880 3042 	strb.w	r3, [r0, #66]	@ 0x42
 8003552:	2300      	movs	r3, #0
 8003554:	6303      	str	r3, [r0, #48]	@ 0x30
 8003556:	4770      	bx	lr

08003558 <UART_SetConfig>:
 8003558:	b510      	push	{r4, lr}
 800355a:	4604      	mov	r4, r0
 800355c:	6803      	ldr	r3, [r0, #0]
 800355e:	68c1      	ldr	r1, [r0, #12]
 8003560:	691a      	ldr	r2, [r3, #16]
 8003562:	f422 5240 	bic.w	r2, r2, #12288	@ 0x3000
 8003566:	430a      	orrs	r2, r1
 8003568:	611a      	str	r2, [r3, #16]
 800356a:	6882      	ldr	r2, [r0, #8]
 800356c:	6900      	ldr	r0, [r0, #16]
 800356e:	68d9      	ldr	r1, [r3, #12]
 8003570:	4302      	orrs	r2, r0
 8003572:	6960      	ldr	r0, [r4, #20]
 8003574:	f421 51b0 	bic.w	r1, r1, #5632	@ 0x1600
 8003578:	f021 010c 	bic.w	r1, r1, #12
 800357c:	4302      	orrs	r2, r0
 800357e:	430a      	orrs	r2, r1
 8003580:	60da      	str	r2, [r3, #12]
 8003582:	695a      	ldr	r2, [r3, #20]
 8003584:	69a1      	ldr	r1, [r4, #24]
 8003586:	f422 7240 	bic.w	r2, r2, #768	@ 0x300
 800358a:	430a      	orrs	r2, r1
 800358c:	615a      	str	r2, [r3, #20]
 800358e:	4a0e      	ldr	r2, [pc, #56]	@ (80035c8 <UART_SetConfig+0x70>)
 8003590:	4293      	cmp	r3, r2
 8003592:	d115      	bne.n	80035c0 <UART_SetConfig+0x68>
 8003594:	f7ff fe72 	bl	800327c <HAL_RCC_GetPCLK2Freq>
 8003598:	2319      	movs	r3, #25
 800359a:	4343      	muls	r3, r0
 800359c:	6862      	ldr	r2, [r4, #4]
 800359e:	6820      	ldr	r0, [r4, #0]
 80035a0:	0092      	lsls	r2, r2, #2
 80035a2:	fbb3 f3f2 	udiv	r3, r3, r2
 80035a6:	2264      	movs	r2, #100	@ 0x64
 80035a8:	fbb3 f1f2 	udiv	r1, r3, r2
 80035ac:	fb02 3311 	mls	r3, r2, r1, r3
 80035b0:	011b      	lsls	r3, r3, #4
 80035b2:	3332      	adds	r3, #50	@ 0x32
 80035b4:	fbb3 f3f2 	udiv	r3, r3, r2
 80035b8:	eb03 1301 	add.w	r3, r3, r1, lsl #4
 80035bc:	6083      	str	r3, [r0, #8]
 80035be:	bd10      	pop	{r4, pc}
 80035c0:	f7ff fe4c 	bl	800325c <HAL_RCC_GetPCLK1Freq>
 80035c4:	e7e8      	b.n	8003598 <UART_SetConfig+0x40>
 80035c6:	bf00      	nop
 80035c8:	40013800 	.word	0x40013800

080035cc <UART_WaitOnFlagUntilTimeout.constprop.0>:
 80035cc:	b5f7      	push	{r0, r1, r2, r4, r5, r6, r7, lr}
 80035ce:	4605      	mov	r5, r0
 80035d0:	460c      	mov	r4, r1
 80035d2:	4617      	mov	r7, r2
 80035d4:	461e      	mov	r6, r3
 80035d6:	682a      	ldr	r2, [r5, #0]
 80035d8:	6813      	ldr	r3, [r2, #0]
 80035da:	ea34 0303 	bics.w	r3, r4, r3
 80035de:	d101      	bne.n	80035e4 <UART_WaitOnFlagUntilTimeout.constprop.0+0x18>
 80035e0:	2000      	movs	r0, #0
 80035e2:	e021      	b.n	8003628 <UART_WaitOnFlagUntilTimeout.constprop.0+0x5c>
 80035e4:	1c70      	adds	r0, r6, #1
 80035e6:	d0f7      	beq.n	80035d8 <UART_WaitOnFlagUntilTimeout.constprop.0+0xc>
 80035e8:	f7fe fd40 	bl	800206c <HAL_GetTick>
 80035ec:	1bc0      	subs	r0, r0, r7
 80035ee:	4286      	cmp	r6, r0
 80035f0:	d31c      	bcc.n	800362c <UART_WaitOnFlagUntilTimeout.constprop.0+0x60>
 80035f2:	b1de      	cbz	r6, 800362c <UART_WaitOnFlagUntilTimeout.constprop.0+0x60>
 80035f4:	682b      	ldr	r3, [r5, #0]
 80035f6:	68da      	ldr	r2, [r3, #12]
 80035f8:	0751      	lsls	r1, r2, #29
 80035fa:	d5ec      	bpl.n	80035d6 <UART_WaitOnFlagUntilTimeout.constprop.0+0xa>
 80035fc:	2c80      	cmp	r4, #128	@ 0x80
 80035fe:	d0ea      	beq.n	80035d6 <UART_WaitOnFlagUntilTimeout.constprop.0+0xa>
 8003600:	2c40      	cmp	r4, #64	@ 0x40
 8003602:	d0e8      	beq.n	80035d6 <UART_WaitOnFlagUntilTimeout.constprop.0+0xa>
 8003604:	681a      	ldr	r2, [r3, #0]
 8003606:	0712      	lsls	r2, r2, #28
 8003608:	d5e5      	bpl.n	80035d6 <UART_WaitOnFlagUntilTimeout.constprop.0+0xa>
 800360a:	2400      	movs	r4, #0
 800360c:	9401      	str	r4, [sp, #4]
 800360e:	681a      	ldr	r2, [r3, #0]
 8003610:	4628      	mov	r0, r5
 8003612:	9201      	str	r2, [sp, #4]
 8003614:	685b      	ldr	r3, [r3, #4]
 8003616:	9301      	str	r3, [sp, #4]
 8003618:	9b01      	ldr	r3, [sp, #4]
 800361a:	f7ff ff6f 	bl	80034fc <UART_EndRxTransfer>
 800361e:	2308      	movs	r3, #8
 8003620:	2001      	movs	r0, #1
 8003622:	646b      	str	r3, [r5, #68]	@ 0x44
 8003624:	f885 4040 	strb.w	r4, [r5, #64]	@ 0x40
 8003628:	b003      	add	sp, #12
 800362a:	bdf0      	pop	{r4, r5, r6, r7, pc}
 800362c:	2003      	movs	r0, #3
 800362e:	e7fb      	b.n	8003628 <UART_WaitOnFlagUntilTimeout.constprop.0+0x5c>

08003630 <HAL_UART_Init>:
 8003630:	b510      	push	{r4, lr}
 8003632:	4604      	mov	r4, r0
 8003634:	b348      	cbz	r0, 800368a <HAL_UART_Init+0x5a>
 8003636:	f890 3041 	ldrb.w	r3, [r0, #65]	@ 0x41
 800363a:	f003 02ff 	and.w	r2, r3, #255	@ 0xff
 800363e:	b91b      	cbnz	r3, 8003648 <HAL_UART_Init+0x18>
 8003640:	f880 2040 	strb.w	r2, [r0, #64]	@ 0x40
 8003644:	f7fe fb7e 	bl	8001d44 <HAL_UART_MspInit>
 8003648:	2324      	movs	r3, #36	@ 0x24
 800364a:	6822      	ldr	r2, [r4, #0]
 800364c:	f884 3041 	strb.w	r3, [r4, #65]	@ 0x41
 8003650:	68d3      	ldr	r3, [r2, #12]
 8003652:	4620      	mov	r0, r4
 8003654:	f423 5300 	bic.w	r3, r3, #8192	@ 0x2000
 8003658:	60d3      	str	r3, [r2, #12]
 800365a:	f7ff ff7d 	bl	8003558 <UART_SetConfig>
 800365e:	6823      	ldr	r3, [r4, #0]
 8003660:	2000      	movs	r0, #0
 8003662:	691a      	ldr	r2, [r3, #16]
 8003664:	f422 4290 	bic.w	r2, r2, #18432	@ 0x4800
 8003668:	611a      	str	r2, [r3, #16]
 800366a:	695a      	ldr	r2, [r3, #20]
 800366c:	f022 022a 	bic.w	r2, r2, #42	@ 0x2a
 8003670:	615a      	str	r2, [r3, #20]
 8003672:	68da      	ldr	r2, [r3, #12]
 8003674:	f442 5200 	orr.w	r2, r2, #8192	@ 0x2000
 8003678:	60da      	str	r2, [r3, #12]
 800367a:	2320      	movs	r3, #32
 800367c:	6460      	str	r0, [r4, #68]	@ 0x44
 800367e:	f884 3041 	strb.w	r3, [r4, #65]	@ 0x41
 8003682:	f884 3042 	strb.w	r3, [r4, #66]	@ 0x42
 8003686:	6360      	str	r0, [r4, #52]	@ 0x34
 8003688:	bd10      	pop	{r4, pc}
 800368a:	2001      	movs	r0, #1
 800368c:	e7fc      	b.n	8003688 <HAL_UART_Init+0x58>

0800368e <HAL_UART_DeInit>:
 800368e:	b510      	push	{r4, lr}
 8003690:	4604      	mov	r4, r0
 8003692:	b1a0      	cbz	r0, 80036be <HAL_UART_DeInit+0x30>
 8003694:	2324      	movs	r3, #36	@ 0x24
 8003696:	6802      	ldr	r2, [r0, #0]
 8003698:	f880 3041 	strb.w	r3, [r0, #65]	@ 0x41
 800369c:	68d3      	ldr	r3, [r2, #12]
 800369e:	f423 5300 	bic.w	r3, r3, #8192	@ 0x2000
 80036a2:	60d3      	str	r3, [r2, #12]
 80036a4:	f7fe fbc6 	bl	8001e34 <HAL_UART_MspDeInit>
 80036a8:	2000      	movs	r0, #0
 80036aa:	6460      	str	r0, [r4, #68]	@ 0x44
 80036ac:	f884 0040 	strb.w	r0, [r4, #64]	@ 0x40
 80036b0:	f884 0041 	strb.w	r0, [r4, #65]	@ 0x41
 80036b4:	f884 0042 	strb.w	r0, [r4, #66]	@ 0x42
 80036b8:	6320      	str	r0, [r4, #48]	@ 0x30
 80036ba:	6360      	str	r0, [r4, #52]	@ 0x34
 80036bc:	bd10      	pop	{r4, pc}
 80036be:	2001      	movs	r0, #1
 80036c0:	e7fc      	b.n	80036bc <HAL_UART_DeInit+0x2e>

080036c2 <HAL_UART_Transmit>:
 80036c2:	e92d 43f8 	stmdb	sp!, {r3, r4, r5, r6, r7, r8, r9, lr}
 80036c6:	4698      	mov	r8, r3
 80036c8:	f890 3041 	ldrb.w	r3, [r0, #65]	@ 0x41
 80036cc:	4604      	mov	r4, r0
 80036ce:	2b20      	cmp	r3, #32
 80036d0:	460e      	mov	r6, r1
 80036d2:	4617      	mov	r7, r2
 80036d4:	d13f      	bne.n	8003756 <HAL_UART_Transmit+0x94>
 80036d6:	2900      	cmp	r1, #0
 80036d8:	d03f      	beq.n	800375a <HAL_UART_Transmit+0x98>
 80036da:	2a00      	cmp	r2, #0
 80036dc:	d03d      	beq.n	800375a <HAL_UART_Transmit+0x98>
 80036de:	2321      	movs	r3, #33	@ 0x21
 80036e0:	2500      	movs	r5, #0
 80036e2:	6445      	str	r5, [r0, #68]	@ 0x44
 80036e4:	f880 3041 	strb.w	r3, [r0, #65]	@ 0x41
 80036e8:	f7fe fcc0 	bl	800206c <HAL_GetTick>
 80036ec:	68a3      	ldr	r3, [r4, #8]
 80036ee:	4681      	mov	r9, r0
 80036f0:	f5b3 5f80 	cmp.w	r3, #4096	@ 0x1000
 80036f4:	84a7      	strh	r7, [r4, #36]	@ 0x24
 80036f6:	84e7      	strh	r7, [r4, #38]	@ 0x26
 80036f8:	d103      	bne.n	8003702 <HAL_UART_Transmit+0x40>
 80036fa:	6923      	ldr	r3, [r4, #16]
 80036fc:	b90b      	cbnz	r3, 8003702 <HAL_UART_Transmit+0x40>
 80036fe:	4635      	mov	r5, r6
 8003700:	461e      	mov	r6, r3
 8003702:	8ce3      	ldrh	r3, [r4, #38]	@ 0x26
 8003704:	b29b      	uxth	r3, r3
 8003706:	b953      	cbnz	r3, 800371e <HAL_UART_Transmit+0x5c>
 8003708:	4643      	mov	r3, r8
 800370a:	464a      	mov	r2, r9
 800370c:	2140      	movs	r1, #64	@ 0x40
 800370e:	4620      	mov	r0, r4
 8003710:	f7ff ff5c 	bl	80035cc <UART_WaitOnFlagUntilTimeout.constprop.0>
 8003714:	2320      	movs	r3, #32
 8003716:	b950      	cbnz	r0, 800372e <HAL_UART_Transmit+0x6c>
 8003718:	f884 3041 	strb.w	r3, [r4, #65]	@ 0x41
 800371c:	e00a      	b.n	8003734 <HAL_UART_Transmit+0x72>
 800371e:	4643      	mov	r3, r8
 8003720:	464a      	mov	r2, r9
 8003722:	2180      	movs	r1, #128	@ 0x80
 8003724:	4620      	mov	r0, r4
 8003726:	f7ff ff51 	bl	80035cc <UART_WaitOnFlagUntilTimeout.constprop.0>
 800372a:	b128      	cbz	r0, 8003738 <HAL_UART_Transmit+0x76>
 800372c:	2320      	movs	r3, #32
 800372e:	2003      	movs	r0, #3
 8003730:	f884 3041 	strb.w	r3, [r4, #65]	@ 0x41
 8003734:	e8bd 83f8 	ldmia.w	sp!, {r3, r4, r5, r6, r7, r8, r9, pc}
 8003738:	6822      	ldr	r2, [r4, #0]
 800373a:	b94e      	cbnz	r6, 8003750 <HAL_UART_Transmit+0x8e>
 800373c:	f835 3b02 	ldrh.w	r3, [r5], #2
 8003740:	f3c3 0308 	ubfx	r3, r3, #0, #9
 8003744:	6053      	str	r3, [r2, #4]
 8003746:	8ce1      	ldrh	r1, [r4, #38]	@ 0x26
 8003748:	3901      	subs	r1, #1
 800374a:	b289      	uxth	r1, r1
 800374c:	84e1      	strh	r1, [r4, #38]	@ 0x26
 800374e:	e7d8      	b.n	8003702 <HAL_UART_Transmit+0x40>
 8003750:	f816 3b01 	ldrb.w	r3, [r6], #1
 8003754:	e7f6      	b.n	8003744 <HAL_UART_Transmit+0x82>
 8003756:	2002      	movs	r0, #2
 8003758:	e7ec      	b.n	8003734 <HAL_UART_Transmit+0x72>
 800375a:	2001      	movs	r0, #1
 800375c:	e7ea      	b.n	8003734 <HAL_UART_Transmit+0x72>

0800375e <HAL_UART_TxCpltCallback>:
 800375e:	4770      	bx	lr

08003760 <HAL_UART_ErrorCallback>:
 8003760:	4770      	bx	lr

08003762 <UART_DMAAbortOnError>:
 8003762:	b508      	push	{r3, lr}
 8003764:	2300      	movs	r3, #0
 8003766:	6a40      	ldr	r0, [r0, #36]	@ 0x24
 8003768:	85c3      	strh	r3, [r0, #46]	@ 0x2e
 800376a:	84c3      	strh	r3, [r0, #38]	@ 0x26
 800376c:	f7ff fff8 	bl	8003760 <HAL_UART_ErrorCallback>
 8003770:	bd08      	pop	{r3, pc}

08003772 <HAL_UARTEx_RxEventCallback>:
 8003772:	4770      	bx	lr

08003774 <UART_Receive_IT.isra.0>:
 8003774:	f890 3042 	ldrb.w	r3, [r0, #66]	@ 0x42
 8003778:	b507      	push	{r0, r1, r2, lr}
 800377a:	2b22      	cmp	r3, #34	@ 0x22
 800377c:	d142      	bne.n	8003804 <UART_Receive_IT.isra.0+0x90>
 800377e:	6881      	ldr	r1, [r0, #8]
 8003780:	6802      	ldr	r2, [r0, #0]
 8003782:	f5b1 5f80 	cmp.w	r1, #4096	@ 0x1000
 8003786:	6a83      	ldr	r3, [r0, #40]	@ 0x28
 8003788:	d13f      	bne.n	800380a <UART_Receive_IT.isra.0+0x96>
 800378a:	6901      	ldr	r1, [r0, #16]
 800378c:	2900      	cmp	r1, #0
 800378e:	d13f      	bne.n	8003810 <UART_Receive_IT.isra.0+0x9c>
 8003790:	6852      	ldr	r2, [r2, #4]
 8003792:	f3c2 0208 	ubfx	r2, r2, #0, #9
 8003796:	f823 2b02 	strh.w	r2, [r3], #2
 800379a:	6283      	str	r3, [r0, #40]	@ 0x28
 800379c:	8dc3      	ldrh	r3, [r0, #46]	@ 0x2e
 800379e:	3b01      	subs	r3, #1
 80037a0:	b29b      	uxth	r3, r3
 80037a2:	85c3      	strh	r3, [r0, #46]	@ 0x2e
 80037a4:	2b00      	cmp	r3, #0
 80037a6:	d12d      	bne.n	8003804 <UART_Receive_IT.isra.0+0x90>
 80037a8:	6802      	ldr	r2, [r0, #0]
 80037aa:	68d1      	ldr	r1, [r2, #12]
 80037ac:	f021 0120 	bic.w	r1, r1, #32
 80037b0:	60d1      	str	r1, [r2, #12]
 80037b2:	68d1      	ldr	r1, [r2, #12]
 80037b4:	f421 7180 	bic.w	r1, r1, #256	@ 0x100
 80037b8:	60d1      	str	r1, [r2, #12]
 80037ba:	6951      	ldr	r1, [r2, #20]
 80037bc:	f021 0101 	bic.w	r1, r1, #1
 80037c0:	6151      	str	r1, [r2, #20]
 80037c2:	2220      	movs	r2, #32
 80037c4:	f880 2042 	strb.w	r2, [r0, #66]	@ 0x42
 80037c8:	6343      	str	r3, [r0, #52]	@ 0x34
 80037ca:	6b02      	ldr	r2, [r0, #48]	@ 0x30
 80037cc:	2a01      	cmp	r2, #1
 80037ce:	6802      	ldr	r2, [r0, #0]
 80037d0:	d128      	bne.n	8003824 <UART_Receive_IT.isra.0+0xb0>
 80037d2:	6303      	str	r3, [r0, #48]	@ 0x30
 80037d4:	f102 030c 	add.w	r3, r2, #12
 80037d8:	e853 3f00 	ldrex	r3, [r3]
 80037dc:	f023 0310 	bic.w	r3, r3, #16
 80037e0:	f102 0c0c 	add.w	ip, r2, #12
 80037e4:	e84c 3100 	strex	r1, r3, [ip]
 80037e8:	2900      	cmp	r1, #0
 80037ea:	d1f3      	bne.n	80037d4 <UART_Receive_IT.isra.0+0x60>
 80037ec:	6813      	ldr	r3, [r2, #0]
 80037ee:	06db      	lsls	r3, r3, #27
 80037f0:	d505      	bpl.n	80037fe <UART_Receive_IT.isra.0+0x8a>
 80037f2:	9101      	str	r1, [sp, #4]
 80037f4:	6813      	ldr	r3, [r2, #0]
 80037f6:	9301      	str	r3, [sp, #4]
 80037f8:	6853      	ldr	r3, [r2, #4]
 80037fa:	9301      	str	r3, [sp, #4]
 80037fc:	9b01      	ldr	r3, [sp, #4]
 80037fe:	8d81      	ldrh	r1, [r0, #44]	@ 0x2c
 8003800:	f7ff ffb7 	bl	8003772 <HAL_UARTEx_RxEventCallback>
 8003804:	b003      	add	sp, #12
 8003806:	f85d fb04 	ldr.w	pc, [sp], #4
 800380a:	b939      	cbnz	r1, 800381c <UART_Receive_IT.isra.0+0xa8>
 800380c:	6901      	ldr	r1, [r0, #16]
 800380e:	b929      	cbnz	r1, 800381c <UART_Receive_IT.isra.0+0xa8>
 8003810:	6852      	ldr	r2, [r2, #4]
 8003812:	b2d2      	uxtb	r2, r2
 8003814:	701a      	strb	r2, [r3, #0]
 8003816:	6a83      	ldr	r3, [r0, #40]	@ 0x28
 8003818:	3301      	adds	r3, #1
 800381a:	e7be      	b.n	800379a <UART_Receive_IT.isra.0+0x26>
 800381c:	6852      	ldr	r2, [r2, #4]
 800381e:	f002 027f 	and.w	r2, r2, #127	@ 0x7f
 8003822:	e7f7      	b.n	8003814 <UART_Receive_IT.isra.0+0xa0>
 8003824:	f7fe fb50 	bl	8001ec8 <HAL_UART_RxCpltCallback>
 8003828:	e7ec      	b.n	8003804 <UART_Receive_IT.isra.0+0x90>
	...

0800382c <HAL_UART_IRQHandler>:
 800382c:	6803      	ldr	r3, [r0, #0]
 800382e:	b573      	push	{r0, r1, r4, r5, r6, lr}
 8003830:	681a      	ldr	r2, [r3, #0]
 8003832:	4604      	mov	r4, r0
 8003834:	0716      	lsls	r6, r2, #28
 8003836:	68d9      	ldr	r1, [r3, #12]
 8003838:	695d      	ldr	r5, [r3, #20]
 800383a:	d108      	bne.n	800384e <HAL_UART_IRQHandler+0x22>
 800383c:	0696      	lsls	r6, r2, #26
 800383e:	d568      	bpl.n	8003912 <HAL_UART_IRQHandler+0xe6>
 8003840:	068d      	lsls	r5, r1, #26
 8003842:	d566      	bpl.n	8003912 <HAL_UART_IRQHandler+0xe6>
 8003844:	b002      	add	sp, #8
 8003846:	e8bd 4070 	ldmia.w	sp!, {r4, r5, r6, lr}
 800384a:	f7ff bf93 	b.w	8003774 <UART_Receive_IT.isra.0>
 800384e:	f005 0001 	and.w	r0, r5, #1
 8003852:	f401 7590 	and.w	r5, r1, #288	@ 0x120
 8003856:	4305      	orrs	r5, r0
 8003858:	d05b      	beq.n	8003912 <HAL_UART_IRQHandler+0xe6>
 800385a:	07d6      	lsls	r6, r2, #31
 800385c:	d505      	bpl.n	800386a <HAL_UART_IRQHandler+0x3e>
 800385e:	05cd      	lsls	r5, r1, #23
 8003860:	bf42      	ittt	mi
 8003862:	6c63      	ldrmi	r3, [r4, #68]	@ 0x44
 8003864:	f043 0301 	orrmi.w	r3, r3, #1
 8003868:	6463      	strmi	r3, [r4, #68]	@ 0x44
 800386a:	0753      	lsls	r3, r2, #29
 800386c:	d504      	bpl.n	8003878 <HAL_UART_IRQHandler+0x4c>
 800386e:	b118      	cbz	r0, 8003878 <HAL_UART_IRQHandler+0x4c>
 8003870:	6c63      	ldr	r3, [r4, #68]	@ 0x44
 8003872:	f043 0302 	orr.w	r3, r3, #2
 8003876:	6463      	str	r3, [r4, #68]	@ 0x44
 8003878:	0796      	lsls	r6, r2, #30
 800387a:	d504      	bpl.n	8003886 <HAL_UART_IRQHandler+0x5a>
 800387c:	b118      	cbz	r0, 8003886 <HAL_UART_IRQHandler+0x5a>
 800387e:	6c63      	ldr	r3, [r4, #68]	@ 0x44
 8003880:	f043 0304 	orr.w	r3, r3, #4
 8003884:	6463      	str	r3, [r4, #68]	@ 0x44
 8003886:	0715      	lsls	r5, r2, #28
 8003888:	d507      	bpl.n	800389a <HAL_UART_IRQHandler+0x6e>
 800388a:	f001 0320 	and.w	r3, r1, #32
 800388e:	4303      	orrs	r3, r0
 8003890:	bf1e      	ittt	ne
 8003892:	6c63      	ldrne	r3, [r4, #68]	@ 0x44
 8003894:	f043 0308 	orrne.w	r3, r3, #8
 8003898:	6463      	strne	r3, [r4, #68]	@ 0x44
 800389a:	6c63      	ldr	r3, [r4, #68]	@ 0x44
 800389c:	2b00      	cmp	r3, #0
 800389e:	d032      	beq.n	8003906 <HAL_UART_IRQHandler+0xda>
 80038a0:	0692      	lsls	r2, r2, #26
 80038a2:	d504      	bpl.n	80038ae <HAL_UART_IRQHandler+0x82>
 80038a4:	068b      	lsls	r3, r1, #26
 80038a6:	d502      	bpl.n	80038ae <HAL_UART_IRQHandler+0x82>
 80038a8:	4620      	mov	r0, r4
 80038aa:	f7ff ff63 	bl	8003774 <UART_Receive_IT.isra.0>
 80038ae:	6826      	ldr	r6, [r4, #0]
 80038b0:	4620      	mov	r0, r4
 80038b2:	6973      	ldr	r3, [r6, #20]
 80038b4:	6c62      	ldr	r2, [r4, #68]	@ 0x44
 80038b6:	f003 0340 	and.w	r3, r3, #64	@ 0x40
 80038ba:	f002 0208 	and.w	r2, r2, #8
 80038be:	ea53 0502 	orrs.w	r5, r3, r2
 80038c2:	d022      	beq.n	800390a <HAL_UART_IRQHandler+0xde>
 80038c4:	f7ff fe1a 	bl	80034fc <UART_EndRxTransfer>
 80038c8:	6973      	ldr	r3, [r6, #20]
 80038ca:	065e      	lsls	r6, r3, #25
 80038cc:	d518      	bpl.n	8003900 <HAL_UART_IRQHandler+0xd4>
 80038ce:	6822      	ldr	r2, [r4, #0]
 80038d0:	f102 0314 	add.w	r3, r2, #20
 80038d4:	e853 3f00 	ldrex	r3, [r3]
 80038d8:	f023 0340 	bic.w	r3, r3, #64	@ 0x40
 80038dc:	3214      	adds	r2, #20
 80038de:	e842 3100 	strex	r1, r3, [r2]
 80038e2:	2900      	cmp	r1, #0
 80038e4:	d1f3      	bne.n	80038ce <HAL_UART_IRQHandler+0xa2>
 80038e6:	6be0      	ldr	r0, [r4, #60]	@ 0x3c
 80038e8:	b150      	cbz	r0, 8003900 <HAL_UART_IRQHandler+0xd4>
 80038ea:	4b74      	ldr	r3, [pc, #464]	@ (8003abc <HAL_UART_IRQHandler+0x290>)
 80038ec:	6343      	str	r3, [r0, #52]	@ 0x34
 80038ee:	f7fe fc6b 	bl	80021c8 <HAL_DMA_Abort_IT>
 80038f2:	b140      	cbz	r0, 8003906 <HAL_UART_IRQHandler+0xda>
 80038f4:	6be0      	ldr	r0, [r4, #60]	@ 0x3c
 80038f6:	6b43      	ldr	r3, [r0, #52]	@ 0x34
 80038f8:	b002      	add	sp, #8
 80038fa:	e8bd 4070 	ldmia.w	sp!, {r4, r5, r6, lr}
 80038fe:	4718      	bx	r3
 8003900:	4620      	mov	r0, r4
 8003902:	f7ff ff2d 	bl	8003760 <HAL_UART_ErrorCallback>
 8003906:	b002      	add	sp, #8
 8003908:	bd70      	pop	{r4, r5, r6, pc}
 800390a:	f7ff ff29 	bl	8003760 <HAL_UART_ErrorCallback>
 800390e:	6465      	str	r5, [r4, #68]	@ 0x44
 8003910:	e7f9      	b.n	8003906 <HAL_UART_IRQHandler+0xda>
 8003912:	6b20      	ldr	r0, [r4, #48]	@ 0x30
 8003914:	2801      	cmp	r0, #1
 8003916:	f040 8094 	bne.w	8003a42 <HAL_UART_IRQHandler+0x216>
 800391a:	06d5      	lsls	r5, r2, #27
 800391c:	f140 8091 	bpl.w	8003a42 <HAL_UART_IRQHandler+0x216>
 8003920:	06c8      	lsls	r0, r1, #27
 8003922:	f140 808e 	bpl.w	8003a42 <HAL_UART_IRQHandler+0x216>
 8003926:	2200      	movs	r2, #0
 8003928:	9201      	str	r2, [sp, #4]
 800392a:	681a      	ldr	r2, [r3, #0]
 800392c:	9201      	str	r2, [sp, #4]
 800392e:	685a      	ldr	r2, [r3, #4]
 8003930:	9201      	str	r2, [sp, #4]
 8003932:	9a01      	ldr	r2, [sp, #4]
 8003934:	695a      	ldr	r2, [r3, #20]
 8003936:	0652      	lsls	r2, r2, #25
 8003938:	d54d      	bpl.n	80039d6 <HAL_UART_IRQHandler+0x1aa>
 800393a:	6be1      	ldr	r1, [r4, #60]	@ 0x3c
 800393c:	680a      	ldr	r2, [r1, #0]
 800393e:	6852      	ldr	r2, [r2, #4]
 8003940:	b292      	uxth	r2, r2
 8003942:	2a00      	cmp	r2, #0
 8003944:	d0df      	beq.n	8003906 <HAL_UART_IRQHandler+0xda>
 8003946:	8da0      	ldrh	r0, [r4, #44]	@ 0x2c
 8003948:	4290      	cmp	r0, r2
 800394a:	d9dc      	bls.n	8003906 <HAL_UART_IRQHandler+0xda>
 800394c:	85e2      	strh	r2, [r4, #46]	@ 0x2e
 800394e:	698a      	ldr	r2, [r1, #24]
 8003950:	2a20      	cmp	r2, #32
 8003952:	d036      	beq.n	80039c2 <HAL_UART_IRQHandler+0x196>
 8003954:	f103 020c 	add.w	r2, r3, #12
 8003958:	e852 2f00 	ldrex	r2, [r2]
 800395c:	f422 7280 	bic.w	r2, r2, #256	@ 0x100
 8003960:	f103 000c 	add.w	r0, r3, #12
 8003964:	e840 2100 	strex	r1, r2, [r0]
 8003968:	2900      	cmp	r1, #0
 800396a:	d1f3      	bne.n	8003954 <HAL_UART_IRQHandler+0x128>
 800396c:	f103 0214 	add.w	r2, r3, #20
 8003970:	e852 2f00 	ldrex	r2, [r2]
 8003974:	f022 0201 	bic.w	r2, r2, #1
 8003978:	f103 0014 	add.w	r0, r3, #20
 800397c:	e840 2100 	strex	r1, r2, [r0]
 8003980:	2900      	cmp	r1, #0
 8003982:	d1f3      	bne.n	800396c <HAL_UART_IRQHandler+0x140>
 8003984:	f103 0214 	add.w	r2, r3, #20
 8003988:	e852 2f00 	ldrex	r2, [r2]
 800398c:	f022 0240 	bic.w	r2, r2, #64	@ 0x40
 8003990:	f103 0014 	add.w	r0, r3, #20
 8003994:	e840 2100 	strex	r1, r2, [r0]
 8003998:	2900      	cmp	r1, #0
 800399a:	d1f3      	bne.n	8003984 <HAL_UART_IRQHandler+0x158>
 800399c:	2220      	movs	r2, #32
 800399e:	f884 2042 	strb.w	r2, [r4, #66]	@ 0x42
 80039a2:	6321      	str	r1, [r4, #48]	@ 0x30
 80039a4:	f103 020c 	add.w	r2, r3, #12
 80039a8:	e852 2f00 	ldrex	r2, [r2]
 80039ac:	f022 0210 	bic.w	r2, r2, #16
 80039b0:	f103 000c 	add.w	r0, r3, #12
 80039b4:	e840 2100 	strex	r1, r2, [r0]
 80039b8:	2900      	cmp	r1, #0
 80039ba:	d1f3      	bne.n	80039a4 <HAL_UART_IRQHandler+0x178>
 80039bc:	6be0      	ldr	r0, [r4, #60]	@ 0x3c
 80039be:	f7fe fbe3 	bl	8002188 <HAL_DMA_Abort>
 80039c2:	2302      	movs	r3, #2
 80039c4:	6363      	str	r3, [r4, #52]	@ 0x34
 80039c6:	8de3      	ldrh	r3, [r4, #46]	@ 0x2e
 80039c8:	8da1      	ldrh	r1, [r4, #44]	@ 0x2c
 80039ca:	1ac9      	subs	r1, r1, r3
 80039cc:	b289      	uxth	r1, r1
 80039ce:	4620      	mov	r0, r4
 80039d0:	f7ff fecf 	bl	8003772 <HAL_UARTEx_RxEventCallback>
 80039d4:	e797      	b.n	8003906 <HAL_UART_IRQHandler+0xda>
 80039d6:	8de2      	ldrh	r2, [r4, #46]	@ 0x2e
 80039d8:	8de0      	ldrh	r0, [r4, #46]	@ 0x2e
 80039da:	8da1      	ldrh	r1, [r4, #44]	@ 0x2c
 80039dc:	b280      	uxth	r0, r0
 80039de:	b292      	uxth	r2, r2
 80039e0:	2800      	cmp	r0, #0
 80039e2:	d090      	beq.n	8003906 <HAL_UART_IRQHandler+0xda>
 80039e4:	1a89      	subs	r1, r1, r2
 80039e6:	b289      	uxth	r1, r1
 80039e8:	2900      	cmp	r1, #0
 80039ea:	d08c      	beq.n	8003906 <HAL_UART_IRQHandler+0xda>
 80039ec:	f103 020c 	add.w	r2, r3, #12
 80039f0:	e852 2f00 	ldrex	r2, [r2]
 80039f4:	f422 7290 	bic.w	r2, r2, #288	@ 0x120
 80039f8:	f103 050c 	add.w	r5, r3, #12
 80039fc:	e845 2000 	strex	r0, r2, [r5]
 8003a00:	2800      	cmp	r0, #0
 8003a02:	d1f3      	bne.n	80039ec <HAL_UART_IRQHandler+0x1c0>
 8003a04:	f103 0214 	add.w	r2, r3, #20
 8003a08:	e852 2f00 	ldrex	r2, [r2]
 8003a0c:	f022 0201 	bic.w	r2, r2, #1
 8003a10:	f103 0514 	add.w	r5, r3, #20
 8003a14:	e845 2000 	strex	r0, r2, [r5]
 8003a18:	2800      	cmp	r0, #0
 8003a1a:	d1f3      	bne.n	8003a04 <HAL_UART_IRQHandler+0x1d8>
 8003a1c:	2220      	movs	r2, #32
 8003a1e:	f884 2042 	strb.w	r2, [r4, #66]	@ 0x42
 8003a22:	6320      	str	r0, [r4, #48]	@ 0x30
 8003a24:	f103 020c 	add.w	r2, r3, #12
 8003a28:	e852 2f00 	ldrex	r2, [r2]
 8003a2c:	f022 0210 	bic.w	r2, r2, #16
 8003a30:	f103 050c 	add.w	r5, r3, #12
 8003a34:	e845 2000 	strex	r0, r2, [r5]
 8003a38:	2800      	cmp	r0, #0
 8003a3a:	d1f3      	bne.n	8003a24 <HAL_UART_IRQHandler+0x1f8>
 8003a3c:	2302      	movs	r3, #2
 8003a3e:	6363      	str	r3, [r4, #52]	@ 0x34
 8003a40:	e7c5      	b.n	80039ce <HAL_UART_IRQHandler+0x1a2>
 8003a42:	0616      	lsls	r6, r2, #24
 8003a44:	d528      	bpl.n	8003a98 <HAL_UART_IRQHandler+0x26c>
 8003a46:	060d      	lsls	r5, r1, #24
 8003a48:	d526      	bpl.n	8003a98 <HAL_UART_IRQHandler+0x26c>
 8003a4a:	f894 2041 	ldrb.w	r2, [r4, #65]	@ 0x41
 8003a4e:	2a21      	cmp	r2, #33	@ 0x21
 8003a50:	f47f af59 	bne.w	8003906 <HAL_UART_IRQHandler+0xda>
 8003a54:	68a1      	ldr	r1, [r4, #8]
 8003a56:	6a22      	ldr	r2, [r4, #32]
 8003a58:	f5b1 5f80 	cmp.w	r1, #4096	@ 0x1000
 8003a5c:	d117      	bne.n	8003a8e <HAL_UART_IRQHandler+0x262>
 8003a5e:	6921      	ldr	r1, [r4, #16]
 8003a60:	b9a9      	cbnz	r1, 8003a8e <HAL_UART_IRQHandler+0x262>
 8003a62:	f832 1b02 	ldrh.w	r1, [r2], #2
 8003a66:	f3c1 0108 	ubfx	r1, r1, #0, #9
 8003a6a:	6059      	str	r1, [r3, #4]
 8003a6c:	6222      	str	r2, [r4, #32]
 8003a6e:	8ce2      	ldrh	r2, [r4, #38]	@ 0x26
 8003a70:	3a01      	subs	r2, #1
 8003a72:	b292      	uxth	r2, r2
 8003a74:	84e2      	strh	r2, [r4, #38]	@ 0x26
 8003a76:	2a00      	cmp	r2, #0
 8003a78:	f47f af45 	bne.w	8003906 <HAL_UART_IRQHandler+0xda>
 8003a7c:	68da      	ldr	r2, [r3, #12]
 8003a7e:	f022 0280 	bic.w	r2, r2, #128	@ 0x80
 8003a82:	60da      	str	r2, [r3, #12]
 8003a84:	68da      	ldr	r2, [r3, #12]
 8003a86:	f042 0240 	orr.w	r2, r2, #64	@ 0x40
 8003a8a:	60da      	str	r2, [r3, #12]
 8003a8c:	e73b      	b.n	8003906 <HAL_UART_IRQHandler+0xda>
 8003a8e:	1c51      	adds	r1, r2, #1
 8003a90:	6221      	str	r1, [r4, #32]
 8003a92:	7812      	ldrb	r2, [r2, #0]
 8003a94:	605a      	str	r2, [r3, #4]
 8003a96:	e7ea      	b.n	8003a6e <HAL_UART_IRQHandler+0x242>
 8003a98:	0650      	lsls	r0, r2, #25
 8003a9a:	f57f af34 	bpl.w	8003906 <HAL_UART_IRQHandler+0xda>
 8003a9e:	064a      	lsls	r2, r1, #25
 8003aa0:	f57f af31 	bpl.w	8003906 <HAL_UART_IRQHandler+0xda>
 8003aa4:	68da      	ldr	r2, [r3, #12]
 8003aa6:	4620      	mov	r0, r4
 8003aa8:	f022 0240 	bic.w	r2, r2, #64	@ 0x40
 8003aac:	60da      	str	r2, [r3, #12]
 8003aae:	2320      	movs	r3, #32
 8003ab0:	f884 3041 	strb.w	r3, [r4, #65]	@ 0x41
 8003ab4:	f7ff fe53 	bl	800375e <HAL_UART_TxCpltCallback>
 8003ab8:	e725      	b.n	8003906 <HAL_UART_IRQHandler+0xda>
 8003aba:	bf00      	nop
 8003abc:	08003763 	.word	0x08003763

08003ac0 <UART_Start_Receive_IT>:
 8003ac0:	2300      	movs	r3, #0
 8003ac2:	85c2      	strh	r2, [r0, #46]	@ 0x2e
 8003ac4:	6443      	str	r3, [r0, #68]	@ 0x44
 8003ac6:	2322      	movs	r3, #34	@ 0x22
 8003ac8:	8582      	strh	r2, [r0, #44]	@ 0x2c
 8003aca:	6902      	ldr	r2, [r0, #16]
 8003acc:	f880 3042 	strb.w	r3, [r0, #66]	@ 0x42
 8003ad0:	6281      	str	r1, [r0, #40]	@ 0x28
 8003ad2:	6803      	ldr	r3, [r0, #0]
 8003ad4:	b11a      	cbz	r2, 8003ade <UART_Start_Receive_IT+0x1e>
 8003ad6:	68da      	ldr	r2, [r3, #12]
 8003ad8:	f442 7280 	orr.w	r2, r2, #256	@ 0x100
 8003adc:	60da      	str	r2, [r3, #12]
 8003ade:	695a      	ldr	r2, [r3, #20]
 8003ae0:	2000      	movs	r0, #0
 8003ae2:	f042 0201 	orr.w	r2, r2, #1
 8003ae6:	615a      	str	r2, [r3, #20]
 8003ae8:	68da      	ldr	r2, [r3, #12]
 8003aea:	f042 0220 	orr.w	r2, r2, #32
 8003aee:	60da      	str	r2, [r3, #12]
 8003af0:	4770      	bx	lr

08003af2 <HAL_UART_Receive_IT>:
 8003af2:	b470      	push	{r4, r5, r6}
 8003af4:	f890 6042 	ldrb.w	r6, [r0, #66]	@ 0x42
 8003af8:	2e20      	cmp	r6, #32
 8003afa:	d106      	bne.n	8003b0a <HAL_UART_Receive_IT+0x18>
 8003afc:	b141      	cbz	r1, 8003b10 <HAL_UART_Receive_IT+0x1e>
 8003afe:	b13a      	cbz	r2, 8003b10 <HAL_UART_Receive_IT+0x1e>
 8003b00:	2400      	movs	r4, #0
 8003b02:	6304      	str	r4, [r0, #48]	@ 0x30
 8003b04:	bc70      	pop	{r4, r5, r6}
 8003b06:	f7ff bfdb 	b.w	8003ac0 <UART_Start_Receive_IT>
 8003b0a:	2002      	movs	r0, #2
 8003b0c:	bc70      	pop	{r4, r5, r6}
 8003b0e:	4770      	bx	lr
 8003b10:	2001      	movs	r0, #1
 8003b12:	e7fb      	b.n	8003b0c <HAL_UART_Receive_IT+0x1a>

08003b14 <osKernelInitialize>:
 8003b14:	f3ef 8305 	mrs	r3, IPSR
 8003b18:	b92b      	cbnz	r3, 8003b26 <osKernelInitialize+0x12>
 8003b1a:	4b06      	ldr	r3, [pc, #24]	@ (8003b34 <osKernelInitialize+0x20>)
 8003b1c:	6818      	ldr	r0, [r3, #0]
 8003b1e:	b928      	cbnz	r0, 8003b2c <osKernelInitialize+0x18>
 8003b20:	2201      	movs	r2, #1
 8003b22:	601a      	str	r2, [r3, #0]
 8003b24:	4770      	bx	lr
 8003b26:	f06f 0005 	mvn.w	r0, #5
 8003b2a:	4770      	bx	lr
 8003b2c:	f04f 30ff 	mov.w	r0, #4294967295
 8003b30:	4770      	bx	lr
 8003b32:	bf00      	nop
 8003b34:	20000f80 	.word	0x20000f80

08003b38 <osKernelStart>:
 8003b38:	b510      	push	{r4, lr}
 8003b3a:	f3ef 8405 	mrs	r4, IPSR
 8003b3e:	b95c      	cbnz	r4, 8003b58 <osKernelStart+0x20>
 8003b40:	4b08      	ldr	r3, [pc, #32]	@ (8003b64 <osKernelStart+0x2c>)
 8003b42:	681a      	ldr	r2, [r3, #0]
 8003b44:	2a01      	cmp	r2, #1
 8003b46:	d10a      	bne.n	8003b5e <osKernelStart+0x26>
 8003b48:	4a07      	ldr	r2, [pc, #28]	@ (8003b68 <osKernelStart+0x30>)
 8003b4a:	77d4      	strb	r4, [r2, #31]
 8003b4c:	2202      	movs	r2, #2
 8003b4e:	601a      	str	r2, [r3, #0]
 8003b50:	f001 f9c0 	bl	8004ed4 <vTaskStartScheduler>
 8003b54:	4620      	mov	r0, r4
 8003b56:	bd10      	pop	{r4, pc}
 8003b58:	f06f 0005 	mvn.w	r0, #5
 8003b5c:	e7fb      	b.n	8003b56 <osKernelStart+0x1e>
 8003b5e:	f04f 30ff 	mov.w	r0, #4294967295
 8003b62:	e7f8      	b.n	8003b56 <osKernelStart+0x1e>
 8003b64:	20000f80 	.word	0x20000f80
 8003b68:	e000ed00 	.word	0xe000ed00

08003b6c <osThreadNew>:
 8003b6c:	b5f0      	push	{r4, r5, r6, r7, lr}
 8003b6e:	4614      	mov	r4, r2
 8003b70:	2200      	movs	r2, #0
 8003b72:	b087      	sub	sp, #28
 8003b74:	460b      	mov	r3, r1
 8003b76:	9205      	str	r2, [sp, #20]
 8003b78:	f3ef 8205 	mrs	r2, IPSR
 8003b7c:	b9fa      	cbnz	r2, 8003bbe <osThreadNew+0x52>
 8003b7e:	b1f0      	cbz	r0, 8003bbe <osThreadNew+0x52>
 8003b80:	b354      	cbz	r4, 8003bd8 <osThreadNew+0x6c>
 8003b82:	69a5      	ldr	r5, [r4, #24]
 8003b84:	b125      	cbz	r5, 8003b90 <osThreadNew+0x24>
 8003b86:	1e69      	subs	r1, r5, #1
 8003b88:	2937      	cmp	r1, #55	@ 0x37
 8003b8a:	d902      	bls.n	8003b92 <osThreadNew+0x26>
 8003b8c:	2000      	movs	r0, #0
 8003b8e:	e017      	b.n	8003bc0 <osThreadNew+0x54>
 8003b90:	2518      	movs	r5, #24
 8003b92:	6862      	ldr	r2, [r4, #4]
 8003b94:	07d2      	lsls	r2, r2, #31
 8003b96:	d4f9      	bmi.n	8003b8c <osThreadNew+0x20>
 8003b98:	6966      	ldr	r6, [r4, #20]
 8003b9a:	b19e      	cbz	r6, 8003bc4 <osThreadNew+0x58>
 8003b9c:	08b2      	lsrs	r2, r6, #2
 8003b9e:	6821      	ldr	r1, [r4, #0]
 8003ba0:	e9d4 7c02 	ldrd	r7, ip, [r4, #8]
 8003ba4:	b187      	cbz	r7, 8003bc8 <osThreadNew+0x5c>
 8003ba6:	f1bc 0f5b 	cmp.w	ip, #91	@ 0x5b
 8003baa:	d908      	bls.n	8003bbe <osThreadNew+0x52>
 8003bac:	6924      	ldr	r4, [r4, #16]
 8003bae:	b134      	cbz	r4, 8003bbe <osThreadNew+0x52>
 8003bb0:	b12e      	cbz	r6, 8003bbe <osThreadNew+0x52>
 8003bb2:	e9cd 4701 	strd	r4, r7, [sp, #4]
 8003bb6:	9500      	str	r5, [sp, #0]
 8003bb8:	f001 f925 	bl	8004e06 <xTaskCreateStatic>
 8003bbc:	9005      	str	r0, [sp, #20]
 8003bbe:	9805      	ldr	r0, [sp, #20]
 8003bc0:	b007      	add	sp, #28
 8003bc2:	bdf0      	pop	{r4, r5, r6, r7, pc}
 8003bc4:	2280      	movs	r2, #128	@ 0x80
 8003bc6:	e7ea      	b.n	8003b9e <osThreadNew+0x32>
 8003bc8:	f1bc 0f00 	cmp.w	ip, #0
 8003bcc:	d1f7      	bne.n	8003bbe <osThreadNew+0x52>
 8003bce:	6924      	ldr	r4, [r4, #16]
 8003bd0:	2c00      	cmp	r4, #0
 8003bd2:	d1f4      	bne.n	8003bbe <osThreadNew+0x52>
 8003bd4:	460c      	mov	r4, r1
 8003bd6:	e001      	b.n	8003bdc <osThreadNew+0x70>
 8003bd8:	2518      	movs	r5, #24
 8003bda:	2280      	movs	r2, #128	@ 0x80
 8003bdc:	a905      	add	r1, sp, #20
 8003bde:	e9cd 5100 	strd	r5, r1, [sp]
 8003be2:	b292      	uxth	r2, r2
 8003be4:	4621      	mov	r1, r4
 8003be6:	f001 f946 	bl	8004e76 <xTaskCreate>
 8003bea:	2801      	cmp	r0, #1
 8003bec:	bf1c      	itt	ne
 8003bee:	2300      	movne	r3, #0
 8003bf0:	9305      	strne	r3, [sp, #20]
 8003bf2:	e7e4      	b.n	8003bbe <osThreadNew+0x52>

08003bf4 <osDelay>:
 8003bf4:	b508      	push	{r3, lr}
 8003bf6:	f3ef 8205 	mrs	r2, IPSR
 8003bfa:	b922      	cbnz	r2, 8003c06 <osDelay+0x12>
 8003bfc:	b108      	cbz	r0, 8003c02 <osDelay+0xe>
 8003bfe:	f001 fac9 	bl	8005194 <vTaskDelay>
 8003c02:	2000      	movs	r0, #0
 8003c04:	bd08      	pop	{r3, pc}
 8003c06:	f06f 0005 	mvn.w	r0, #5
 8003c0a:	e7fb      	b.n	8003c04 <osDelay+0x10>

08003c0c <osEventFlagsNew>:
 8003c0c:	4603      	mov	r3, r0
 8003c0e:	f3ef 8205 	mrs	r2, IPSR
 8003c12:	b942      	cbnz	r2, 8003c26 <osEventFlagsNew+0x1a>
 8003c14:	b148      	cbz	r0, 8003c2a <osEventFlagsNew+0x1e>
 8003c16:	e9d3 0302 	ldrd	r0, r3, [r3, #8]
 8003c1a:	b118      	cbz	r0, 8003c24 <osEventFlagsNew+0x18>
 8003c1c:	2b1f      	cmp	r3, #31
 8003c1e:	d902      	bls.n	8003c26 <osEventFlagsNew+0x1a>
 8003c20:	f000 b952 	b.w	8003ec8 <xEventGroupCreateStatic>
 8003c24:	b10b      	cbz	r3, 8003c2a <osEventFlagsNew+0x1e>
 8003c26:	2000      	movs	r0, #0
 8003c28:	4770      	bx	lr
 8003c2a:	f000 b971 	b.w	8003f10 <xEventGroupCreate>

08003c2e <osEventFlagsSet>:
 8003c2e:	b513      	push	{r0, r1, r4, lr}
 8003c30:	460c      	mov	r4, r1
 8003c32:	b1f8      	cbz	r0, 8003c74 <osEventFlagsSet+0x46>
 8003c34:	f1b1 7f80 	cmp.w	r1, #16777216	@ 0x1000000
 8003c38:	d21c      	bcs.n	8003c74 <osEventFlagsSet+0x46>
 8003c3a:	f3ef 8305 	mrs	r3, IPSR
 8003c3e:	b1a3      	cbz	r3, 8003c6a <osEventFlagsSet+0x3c>
 8003c40:	2300      	movs	r3, #0
 8003c42:	aa01      	add	r2, sp, #4
 8003c44:	9301      	str	r3, [sp, #4]
 8003c46:	f000 fa7b 	bl	8004140 <xEventGroupSetBitsFromISR>
 8003c4a:	b1b0      	cbz	r0, 8003c7a <osEventFlagsSet+0x4c>
 8003c4c:	9b01      	ldr	r3, [sp, #4]
 8003c4e:	b14b      	cbz	r3, 8003c64 <osEventFlagsSet+0x36>
 8003c50:	f04f 23e0 	mov.w	r3, #3758153728	@ 0xe000e000
 8003c54:	f04f 5280 	mov.w	r2, #268435456	@ 0x10000000
 8003c58:	f8c3 2d04 	str.w	r2, [r3, #3332]	@ 0xd04
 8003c5c:	f3bf 8f4f 	dsb	sy
 8003c60:	f3bf 8f6f 	isb	sy
 8003c64:	4620      	mov	r0, r4
 8003c66:	b002      	add	sp, #8
 8003c68:	bd10      	pop	{r4, pc}
 8003c6a:	b002      	add	sp, #8
 8003c6c:	e8bd 4010 	ldmia.w	sp!, {r4, lr}
 8003c70:	f000 ba20 	b.w	80040b4 <xEventGroupSetBits>
 8003c74:	f06f 0403 	mvn.w	r4, #3
 8003c78:	e7f4      	b.n	8003c64 <osEventFlagsSet+0x36>
 8003c7a:	f06f 0402 	mvn.w	r4, #2
 8003c7e:	e7f1      	b.n	8003c64 <osEventFlagsSet+0x36>

08003c80 <osEventFlagsClear>:
 8003c80:	b570      	push	{r4, r5, r6, lr}
 8003c82:	460e      	mov	r6, r1
 8003c84:	4605      	mov	r5, r0
 8003c86:	b1b0      	cbz	r0, 8003cb6 <osEventFlagsClear+0x36>
 8003c88:	f1b1 7f80 	cmp.w	r1, #16777216	@ 0x1000000
 8003c8c:	d213      	bcs.n	8003cb6 <osEventFlagsClear+0x36>
 8003c8e:	f3ef 8305 	mrs	r3, IPSR
 8003c92:	b163      	cbz	r3, 8003cae <osEventFlagsClear+0x2e>
 8003c94:	f000 fa00 	bl	8004098 <xEventGroupGetBitsFromISR>
 8003c98:	4631      	mov	r1, r6
 8003c9a:	4604      	mov	r4, r0
 8003c9c:	4628      	mov	r0, r5
 8003c9e:	f000 f9f3 	bl	8004088 <xEventGroupClearBitsFromISR>
 8003ca2:	2800      	cmp	r0, #0
 8003ca4:	bf08      	it	eq
 8003ca6:	f06f 0402 	mvneq.w	r4, #2
 8003caa:	4620      	mov	r0, r4
 8003cac:	bd70      	pop	{r4, r5, r6, pc}
 8003cae:	e8bd 4070 	ldmia.w	sp!, {r4, r5, r6, lr}
 8003cb2:	f000 b9c3 	b.w	800403c <xEventGroupClearBits>
 8003cb6:	f06f 0403 	mvn.w	r4, #3
 8003cba:	e7f6      	b.n	8003caa <osEventFlagsClear+0x2a>

08003cbc <osEventFlagsWait>:
 8003cbc:	b573      	push	{r0, r1, r4, r5, r6, lr}
 8003cbe:	460c      	mov	r4, r1
 8003cc0:	461d      	mov	r5, r3
 8003cc2:	b1f8      	cbz	r0, 8003d04 <osEventFlagsWait+0x48>
 8003cc4:	f1b1 7f80 	cmp.w	r1, #16777216	@ 0x1000000
 8003cc8:	d21c      	bcs.n	8003d04 <osEventFlagsWait+0x48>
 8003cca:	f3ef 8305 	mrs	r3, IPSR
 8003cce:	b9e3      	cbnz	r3, 8003d0a <osEventFlagsWait+0x4e>
 8003cd0:	f002 0601 	and.w	r6, r2, #1
 8003cd4:	f082 0202 	eor.w	r2, r2, #2
 8003cd8:	f3c2 0240 	ubfx	r2, r2, #1, #1
 8003cdc:	4633      	mov	r3, r6
 8003cde:	9500      	str	r5, [sp, #0]
 8003ce0:	f000 f924 	bl	8003f2c <xEventGroupWaitBits>
 8003ce4:	ea04 0200 	and.w	r2, r4, r0
 8003ce8:	b14e      	cbz	r6, 8003cfe <osEventFlagsWait+0x42>
 8003cea:	42a2      	cmp	r2, r4
 8003cec:	d005      	beq.n	8003cfa <osEventFlagsWait+0x3e>
 8003cee:	2d00      	cmp	r5, #0
 8003cf0:	bf14      	ite	ne
 8003cf2:	f06f 0001 	mvnne.w	r0, #1
 8003cf6:	f06f 0002 	mvneq.w	r0, #2
 8003cfa:	b002      	add	sp, #8
 8003cfc:	bd70      	pop	{r4, r5, r6, pc}
 8003cfe:	2a00      	cmp	r2, #0
 8003d00:	d0f5      	beq.n	8003cee <osEventFlagsWait+0x32>
 8003d02:	e7fa      	b.n	8003cfa <osEventFlagsWait+0x3e>
 8003d04:	f06f 0003 	mvn.w	r0, #3
 8003d08:	e7f7      	b.n	8003cfa <osEventFlagsWait+0x3e>
 8003d0a:	f06f 0005 	mvn.w	r0, #5
 8003d0e:	e7f4      	b.n	8003cfa <osEventFlagsWait+0x3e>

08003d10 <osMutexNew>:
 8003d10:	b5f8      	push	{r3, r4, r5, r6, r7, lr}
 8003d12:	4605      	mov	r5, r0
 8003d14:	f3ef 8705 	mrs	r7, IPSR
 8003d18:	b117      	cbz	r7, 8003d20 <osMutexNew+0x10>
 8003d1a:	2400      	movs	r4, #0
 8003d1c:	4620      	mov	r0, r4
 8003d1e:	bdf8      	pop	{r3, r4, r5, r6, r7, pc}
 8003d20:	b320      	cbz	r0, 8003d6c <osMutexNew+0x5c>
 8003d22:	6846      	ldr	r6, [r0, #4]
 8003d24:	0733      	lsls	r3, r6, #28
 8003d26:	d4f8      	bmi.n	8003d1a <osMutexNew+0xa>
 8003d28:	e9d0 1302 	ldrd	r1, r3, [r0, #8]
 8003d2c:	f006 0601 	and.w	r6, r6, #1
 8003d30:	b199      	cbz	r1, 8003d5a <osMutexNew+0x4a>
 8003d32:	2b4f      	cmp	r3, #79	@ 0x4f
 8003d34:	d9f1      	bls.n	8003d1a <osMutexNew+0xa>
 8003d36:	b1be      	cbz	r6, 8003d68 <osMutexNew+0x58>
 8003d38:	2004      	movs	r0, #4
 8003d3a:	f000 fc77 	bl	800462c <xQueueCreateMutexStatic>
 8003d3e:	4604      	mov	r4, r0
 8003d40:	2800      	cmp	r0, #0
 8003d42:	d0ea      	beq.n	8003d1a <osMutexNew+0xa>
 8003d44:	4637      	mov	r7, r6
 8003d46:	682d      	ldr	r5, [r5, #0]
 8003d48:	4629      	mov	r1, r5
 8003d4a:	4620      	mov	r0, r4
 8003d4c:	f000 fe98 	bl	8004a80 <vQueueAddToRegistry>
 8003d50:	2f00      	cmp	r7, #0
 8003d52:	d0e3      	beq.n	8003d1c <osMutexNew+0xc>
 8003d54:	f044 0401 	orr.w	r4, r4, #1
 8003d58:	e7e0      	b.n	8003d1c <osMutexNew+0xc>
 8003d5a:	2b00      	cmp	r3, #0
 8003d5c:	d1dd      	bne.n	8003d1a <osMutexNew+0xa>
 8003d5e:	b12e      	cbz	r6, 8003d6c <osMutexNew+0x5c>
 8003d60:	2004      	movs	r0, #4
 8003d62:	f000 fc97 	bl	8004694 <xQueueCreateMutex>
 8003d66:	e7ea      	b.n	8003d3e <osMutexNew+0x2e>
 8003d68:	2001      	movs	r0, #1
 8003d6a:	e7e6      	b.n	8003d3a <osMutexNew+0x2a>
 8003d6c:	2001      	movs	r0, #1
 8003d6e:	f000 fc91 	bl	8004694 <xQueueCreateMutex>
 8003d72:	4604      	mov	r4, r0
 8003d74:	2800      	cmp	r0, #0
 8003d76:	d0d0      	beq.n	8003d1a <osMutexNew+0xa>
 8003d78:	2d00      	cmp	r5, #0
 8003d7a:	d0e5      	beq.n	8003d48 <osMutexNew+0x38>
 8003d7c:	2600      	movs	r6, #0
 8003d7e:	e7e1      	b.n	8003d44 <osMutexNew+0x34>

08003d80 <osMutexAcquire>:
 8003d80:	b538      	push	{r3, r4, r5, lr}
 8003d82:	4603      	mov	r3, r0
 8003d84:	460c      	mov	r4, r1
 8003d86:	f020 0001 	bic.w	r0, r0, #1
 8003d8a:	f003 0201 	and.w	r2, r3, #1
 8003d8e:	f3ef 8505 	mrs	r5, IPSR
 8003d92:	b995      	cbnz	r5, 8003dba <osMutexAcquire+0x3a>
 8003d94:	2b01      	cmp	r3, #1
 8003d96:	d913      	bls.n	8003dc0 <osMutexAcquire+0x40>
 8003d98:	b162      	cbz	r2, 8003db4 <osMutexAcquire+0x34>
 8003d9a:	f000 fe50 	bl	8004a3e <xQueueTakeMutexRecursive>
 8003d9e:	2801      	cmp	r0, #1
 8003da0:	d101      	bne.n	8003da6 <osMutexAcquire+0x26>
 8003da2:	2000      	movs	r0, #0
 8003da4:	bd38      	pop	{r3, r4, r5, pc}
 8003da6:	2c00      	cmp	r4, #0
 8003da8:	bf14      	ite	ne
 8003daa:	f06f 0001 	mvnne.w	r0, #1
 8003dae:	f06f 0002 	mvneq.w	r0, #2
 8003db2:	e7f7      	b.n	8003da4 <osMutexAcquire+0x24>
 8003db4:	f000 fd86 	bl	80048c4 <xQueueSemaphoreTake>
 8003db8:	e7f1      	b.n	8003d9e <osMutexAcquire+0x1e>
 8003dba:	f06f 0005 	mvn.w	r0, #5
 8003dbe:	e7f1      	b.n	8003da4 <osMutexAcquire+0x24>
 8003dc0:	f06f 0003 	mvn.w	r0, #3
 8003dc4:	e7ee      	b.n	8003da4 <osMutexAcquire+0x24>

08003dc6 <osMutexRelease>:
 8003dc6:	4602      	mov	r2, r0
 8003dc8:	b508      	push	{r3, lr}
 8003dca:	f020 0001 	bic.w	r0, r0, #1
 8003dce:	f002 0301 	and.w	r3, r2, #1
 8003dd2:	f3ef 8105 	mrs	r1, IPSR
 8003dd6:	b979      	cbnz	r1, 8003df8 <osMutexRelease+0x32>
 8003dd8:	2a01      	cmp	r2, #1
 8003dda:	d910      	bls.n	8003dfe <osMutexRelease+0x38>
 8003ddc:	b13b      	cbz	r3, 8003dee <osMutexRelease+0x28>
 8003dde:	f000 fc3a 	bl	8004656 <xQueueGiveMutexRecursive>
 8003de2:	2801      	cmp	r0, #1
 8003de4:	bf0c      	ite	eq
 8003de6:	2000      	moveq	r0, #0
 8003de8:	f06f 0002 	mvnne.w	r0, #2
 8003dec:	bd08      	pop	{r3, pc}
 8003dee:	461a      	mov	r2, r3
 8003df0:	4619      	mov	r1, r3
 8003df2:	f000 fb69 	bl	80044c8 <xQueueGenericSend>
 8003df6:	e7f4      	b.n	8003de2 <osMutexRelease+0x1c>
 8003df8:	f06f 0005 	mvn.w	r0, #5
 8003dfc:	e7f6      	b.n	8003dec <osMutexRelease+0x26>
 8003dfe:	f06f 0003 	mvn.w	r0, #3
 8003e02:	e7f3      	b.n	8003dec <osMutexRelease+0x26>

08003e04 <osSemaphoreNew>:
 8003e04:	b5f7      	push	{r0, r1, r2, r4, r5, r6, r7, lr}
 8003e06:	4604      	mov	r4, r0
 8003e08:	460e      	mov	r6, r1
 8003e0a:	4615      	mov	r5, r2
 8003e0c:	f3ef 8205 	mrs	r2, IPSR
 8003e10:	b942      	cbnz	r2, 8003e24 <osSemaphoreNew+0x20>
 8003e12:	b138      	cbz	r0, 8003e24 <osSemaphoreNew+0x20>
 8003e14:	4288      	cmp	r0, r1
 8003e16:	d305      	bcc.n	8003e24 <osSemaphoreNew+0x20>
 8003e18:	b155      	cbz	r5, 8003e30 <osSemaphoreNew+0x2c>
 8003e1a:	e9d5 3702 	ldrd	r3, r7, [r5, #8]
 8003e1e:	b12b      	cbz	r3, 8003e2c <osSemaphoreNew+0x28>
 8003e20:	2f4f      	cmp	r7, #79	@ 0x4f
 8003e22:	d822      	bhi.n	8003e6a <osSemaphoreNew+0x66>
 8003e24:	2400      	movs	r4, #0
 8003e26:	4620      	mov	r0, r4
 8003e28:	b003      	add	sp, #12
 8003e2a:	bdf0      	pop	{r4, r5, r6, r7, pc}
 8003e2c:	2f00      	cmp	r7, #0
 8003e2e:	d1f9      	bne.n	8003e24 <osSemaphoreNew+0x20>
 8003e30:	2c01      	cmp	r4, #1
 8003e32:	d00c      	beq.n	8003e4e <osSemaphoreNew+0x4a>
 8003e34:	4620      	mov	r0, r4
 8003e36:	4631      	mov	r1, r6
 8003e38:	f000 fb28 	bl	800448c <xQueueCreateCountingSemaphore>
 8003e3c:	4604      	mov	r4, r0
 8003e3e:	2800      	cmp	r0, #0
 8003e40:	d0f0      	beq.n	8003e24 <osSemaphoreNew+0x20>
 8003e42:	b985      	cbnz	r5, 8003e66 <osSemaphoreNew+0x62>
 8003e44:	4629      	mov	r1, r5
 8003e46:	4620      	mov	r0, r4
 8003e48:	f000 fe1a 	bl	8004a80 <vQueueAddToRegistry>
 8003e4c:	e7eb      	b.n	8003e26 <osSemaphoreNew+0x22>
 8003e4e:	2203      	movs	r2, #3
 8003e50:	2100      	movs	r1, #0
 8003e52:	2001      	movs	r0, #1
 8003e54:	f000 fad1 	bl	80043fa <xQueueGenericCreate>
 8003e58:	e00e      	b.n	8003e78 <osSemaphoreNew+0x74>
 8003e5a:	461a      	mov	r2, r3
 8003e5c:	f000 faf4 	bl	8004448 <xQueueCreateCountingSemaphoreStatic>
 8003e60:	4604      	mov	r4, r0
 8003e62:	2800      	cmp	r0, #0
 8003e64:	d0de      	beq.n	8003e24 <osSemaphoreNew+0x20>
 8003e66:	682d      	ldr	r5, [r5, #0]
 8003e68:	e7ec      	b.n	8003e44 <osSemaphoreNew+0x40>
 8003e6a:	2801      	cmp	r0, #1
 8003e6c:	d1f5      	bne.n	8003e5a <osSemaphoreNew+0x56>
 8003e6e:	2103      	movs	r1, #3
 8003e70:	9100      	str	r1, [sp, #0]
 8003e72:	4611      	mov	r1, r2
 8003e74:	f000 fa73 	bl	800435e <xQueueGenericCreateStatic>
 8003e78:	4604      	mov	r4, r0
 8003e7a:	2800      	cmp	r0, #0
 8003e7c:	d0d2      	beq.n	8003e24 <osSemaphoreNew+0x20>
 8003e7e:	2e00      	cmp	r6, #0
 8003e80:	d0df      	beq.n	8003e42 <osSemaphoreNew+0x3e>
 8003e82:	2300      	movs	r3, #0
 8003e84:	461a      	mov	r2, r3
 8003e86:	4619      	mov	r1, r3
 8003e88:	f000 fb1e 	bl	80044c8 <xQueueGenericSend>
 8003e8c:	2801      	cmp	r0, #1
 8003e8e:	d0d8      	beq.n	8003e42 <osSemaphoreNew+0x3e>
 8003e90:	4620      	mov	r0, r4
 8003e92:	f000 fe1f 	bl	8004ad4 <vQueueDelete>
 8003e96:	e7c5      	b.n	8003e24 <osSemaphoreNew+0x20>

08003e98 <vApplicationGetIdleTaskMemory>:
 8003e98:	4b03      	ldr	r3, [pc, #12]	@ (8003ea8 <vApplicationGetIdleTaskMemory+0x10>)
 8003e9a:	6003      	str	r3, [r0, #0]
 8003e9c:	4b03      	ldr	r3, [pc, #12]	@ (8003eac <vApplicationGetIdleTaskMemory+0x14>)
 8003e9e:	600b      	str	r3, [r1, #0]
 8003ea0:	2380      	movs	r3, #128	@ 0x80
 8003ea2:	6013      	str	r3, [r2, #0]
 8003ea4:	4770      	bx	lr
 8003ea6:	bf00      	nop
 8003ea8:	20000f24 	.word	0x20000f24
 8003eac:	20000d24 	.word	0x20000d24

08003eb0 <vApplicationGetTimerTaskMemory>:
 8003eb0:	4b03      	ldr	r3, [pc, #12]	@ (8003ec0 <vApplicationGetTimerTaskMemory+0x10>)
 8003eb2:	6003      	str	r3, [r0, #0]
 8003eb4:	4b03      	ldr	r3, [pc, #12]	@ (8003ec4 <vApplicationGetTimerTaskMemory+0x14>)
 8003eb6:	600b      	str	r3, [r1, #0]
 8003eb8:	f44f 7380 	mov.w	r3, #256	@ 0x100
 8003ebc:	6013      	str	r3, [r2, #0]
 8003ebe:	4770      	bx	lr
 8003ec0:	20000cc8 	.word	0x20000cc8
 8003ec4:	200008c8 	.word	0x200008c8

08003ec8 <xEventGroupCreateStatic>:
 8003ec8:	b513      	push	{r0, r1, r4, lr}
 8003eca:	4604      	mov	r4, r0
 8003ecc:	b940      	cbnz	r0, 8003ee0 <xEventGroupCreateStatic+0x18>
 8003ece:	f04f 0350 	mov.w	r3, #80	@ 0x50
 8003ed2:	f383 8811 	msr	BASEPRI, r3
 8003ed6:	f3bf 8f6f 	isb	sy
 8003eda:	f3bf 8f4f 	dsb	sy
 8003ede:	e7fe      	b.n	8003ede <xEventGroupCreateStatic+0x16>
 8003ee0:	2320      	movs	r3, #32
 8003ee2:	9301      	str	r3, [sp, #4]
 8003ee4:	9b01      	ldr	r3, [sp, #4]
 8003ee6:	2b20      	cmp	r3, #32
 8003ee8:	d008      	beq.n	8003efc <xEventGroupCreateStatic+0x34>
 8003eea:	f04f 0350 	mov.w	r3, #80	@ 0x50
 8003eee:	f383 8811 	msr	BASEPRI, r3
 8003ef2:	f3bf 8f6f 	isb	sy
 8003ef6:	f3bf 8f4f 	dsb	sy
 8003efa:	e7fe      	b.n	8003efa <xEventGroupCreateStatic+0x32>
 8003efc:	2300      	movs	r3, #0
 8003efe:	f840 3b04 	str.w	r3, [r0], #4
 8003f02:	f000 f925 	bl	8004150 <vListInitialise>
 8003f06:	2301      	movs	r3, #1
 8003f08:	4620      	mov	r0, r4
 8003f0a:	7723      	strb	r3, [r4, #28]
 8003f0c:	b002      	add	sp, #8
 8003f0e:	bd10      	pop	{r4, pc}

08003f10 <xEventGroupCreate>:
 8003f10:	b538      	push	{r3, r4, r5, lr}
 8003f12:	2020      	movs	r0, #32
 8003f14:	f001 ff52 	bl	8005dbc <pvPortMalloc>
 8003f18:	4604      	mov	r4, r0
 8003f1a:	b128      	cbz	r0, 8003f28 <xEventGroupCreate+0x18>
 8003f1c:	2500      	movs	r5, #0
 8003f1e:	f840 5b04 	str.w	r5, [r0], #4
 8003f22:	f000 f915 	bl	8004150 <vListInitialise>
 8003f26:	7725      	strb	r5, [r4, #28]
 8003f28:	4620      	mov	r0, r4
 8003f2a:	bd38      	pop	{r3, r4, r5, pc}

08003f2c <xEventGroupWaitBits>:
 8003f2c:	e92d 43f8 	stmdb	sp!, {r3, r4, r5, r6, r7, r8, r9, lr}
 8003f30:	f8dd 9020 	ldr.w	r9, [sp, #32]
 8003f34:	460d      	mov	r5, r1
 8003f36:	4617      	mov	r7, r2
 8003f38:	4698      	mov	r8, r3
 8003f3a:	4606      	mov	r6, r0
 8003f3c:	b940      	cbnz	r0, 8003f50 <xEventGroupWaitBits+0x24>
 8003f3e:	f04f 0350 	mov.w	r3, #80	@ 0x50
 8003f42:	f383 8811 	msr	BASEPRI, r3
 8003f46:	f3bf 8f6f 	isb	sy
 8003f4a:	f3bf 8f4f 	dsb	sy
 8003f4e:	e7fe      	b.n	8003f4e <xEventGroupWaitBits+0x22>
 8003f50:	f1b1 7f80 	cmp.w	r1, #16777216	@ 0x1000000
 8003f54:	d308      	bcc.n	8003f68 <xEventGroupWaitBits+0x3c>
 8003f56:	f04f 0350 	mov.w	r3, #80	@ 0x50
 8003f5a:	f383 8811 	msr	BASEPRI, r3
 8003f5e:	f3bf 8f6f 	isb	sy
 8003f62:	f3bf 8f4f 	dsb	sy
 8003f66:	e7fe      	b.n	8003f66 <xEventGroupWaitBits+0x3a>
 8003f68:	b941      	cbnz	r1, 8003f7c <xEventGroupWaitBits+0x50>
 8003f6a:	f04f 0350 	mov.w	r3, #80	@ 0x50
 8003f6e:	f383 8811 	msr	BASEPRI, r3
 8003f72:	f3bf 8f6f 	isb	sy
 8003f76:	f3bf 8f4f 	dsb	sy
 8003f7a:	e7fe      	b.n	8003f7a <xEventGroupWaitBits+0x4e>
 8003f7c:	f001 faa6 	bl	80054cc <xTaskGetSchedulerState>
 8003f80:	b958      	cbnz	r0, 8003f9a <xEventGroupWaitBits+0x6e>
 8003f82:	f1b9 0f00 	cmp.w	r9, #0
 8003f86:	d008      	beq.n	8003f9a <xEventGroupWaitBits+0x6e>
 8003f88:	f04f 0350 	mov.w	r3, #80	@ 0x50
 8003f8c:	f383 8811 	msr	BASEPRI, r3
 8003f90:	f3bf 8f6f 	isb	sy
 8003f94:	f3bf 8f4f 	dsb	sy
 8003f98:	e7fe      	b.n	8003f98 <xEventGroupWaitBits+0x6c>
 8003f9a:	f000 ffe1 	bl	8004f60 <vTaskSuspendAll>
 8003f9e:	6834      	ldr	r4, [r6, #0]
 8003fa0:	ea05 0304 	and.w	r3, r5, r4
 8003fa4:	f1b8 0f00 	cmp.w	r8, #0
 8003fa8:	d113      	bne.n	8003fd2 <xEventGroupWaitBits+0xa6>
 8003faa:	b9a3      	cbnz	r3, 8003fd6 <xEventGroupWaitBits+0xaa>
 8003fac:	f1b9 0f00 	cmp.w	r9, #0
 8003fb0:	d015      	beq.n	8003fde <xEventGroupWaitBits+0xb2>
 8003fb2:	1e39      	subs	r1, r7, #0
 8003fb4:	bf18      	it	ne
 8003fb6:	2101      	movne	r1, #1
 8003fb8:	0609      	lsls	r1, r1, #24
 8003fba:	f1b8 0f00 	cmp.w	r8, #0
 8003fbe:	d001      	beq.n	8003fc4 <xEventGroupWaitBits+0x98>
 8003fc0:	f041 6180 	orr.w	r1, r1, #67108864	@ 0x4000000
 8003fc4:	464a      	mov	r2, r9
 8003fc6:	4329      	orrs	r1, r5
 8003fc8:	1d30      	adds	r0, r6, #4
 8003fca:	f001 f95d 	bl	8005288 <vTaskPlaceOnUnorderedEventList>
 8003fce:	2400      	movs	r4, #0
 8003fd0:	e007      	b.n	8003fe2 <xEventGroupWaitBits+0xb6>
 8003fd2:	429d      	cmp	r5, r3
 8003fd4:	d1ea      	bne.n	8003fac <xEventGroupWaitBits+0x80>
 8003fd6:	b117      	cbz	r7, 8003fde <xEventGroupWaitBits+0xb2>
 8003fd8:	ea24 0305 	bic.w	r3, r4, r5
 8003fdc:	6033      	str	r3, [r6, #0]
 8003fde:	f04f 0900 	mov.w	r9, #0
 8003fe2:	f001 f863 	bl	80050ac <xTaskResumeAll>
 8003fe6:	f1b9 0f00 	cmp.w	r9, #0
 8003fea:	d01c      	beq.n	8004026 <xEventGroupWaitBits+0xfa>
 8003fec:	b948      	cbnz	r0, 8004002 <xEventGroupWaitBits+0xd6>
 8003fee:	f04f 23e0 	mov.w	r3, #3758153728	@ 0xe000e000
 8003ff2:	f04f 5280 	mov.w	r2, #268435456	@ 0x10000000
 8003ff6:	f8c3 2d04 	str.w	r2, [r3, #3332]	@ 0xd04
 8003ffa:	f3bf 8f4f 	dsb	sy
 8003ffe:	f3bf 8f6f 	isb	sy
 8004002:	f001 fb41 	bl	8005688 <uxTaskResetEventItemValue>
 8004006:	0183      	lsls	r3, r0, #6
 8004008:	4604      	mov	r4, r0
 800400a:	d40a      	bmi.n	8004022 <xEventGroupWaitBits+0xf6>
 800400c:	f001 fdaa 	bl	8005b64 <vPortEnterCritical>
 8004010:	6834      	ldr	r4, [r6, #0]
 8004012:	ea05 0304 	and.w	r3, r5, r4
 8004016:	f1b8 0f00 	cmp.w	r8, #0
 800401a:	d107      	bne.n	800402c <xEventGroupWaitBits+0x100>
 800401c:	b943      	cbnz	r3, 8004030 <xEventGroupWaitBits+0x104>
 800401e:	f001 fdc1 	bl	8005ba4 <vPortExitCritical>
 8004022:	f024 447f 	bic.w	r4, r4, #4278190080	@ 0xff000000
 8004026:	4620      	mov	r0, r4
 8004028:	e8bd 83f8 	ldmia.w	sp!, {r3, r4, r5, r6, r7, r8, r9, pc}
 800402c:	429d      	cmp	r5, r3
 800402e:	d1f6      	bne.n	800401e <xEventGroupWaitBits+0xf2>
 8004030:	2f00      	cmp	r7, #0
 8004032:	d0f4      	beq.n	800401e <xEventGroupWaitBits+0xf2>
 8004034:	ea24 0505 	bic.w	r5, r4, r5
 8004038:	6035      	str	r5, [r6, #0]
 800403a:	e7f0      	b.n	800401e <xEventGroupWaitBits+0xf2>

0800403c <xEventGroupClearBits>:
 800403c:	b570      	push	{r4, r5, r6, lr}
 800403e:	460c      	mov	r4, r1
 8004040:	4605      	mov	r5, r0
 8004042:	b940      	cbnz	r0, 8004056 <xEventGroupClearBits+0x1a>
 8004044:	f04f 0350 	mov.w	r3, #80	@ 0x50
 8004048:	f383 8811 	msr	BASEPRI, r3
 800404c:	f3bf 8f6f 	isb	sy
 8004050:	f3bf 8f4f 	dsb	sy
 8004054:	e7fe      	b.n	8004054 <xEventGroupClearBits+0x18>
 8004056:	f1b1 7f80 	cmp.w	r1, #16777216	@ 0x1000000
 800405a:	d308      	bcc.n	800406e <xEventGroupClearBits+0x32>
 800405c:	f04f 0350 	mov.w	r3, #80	@ 0x50
 8004060:	f383 8811 	msr	BASEPRI, r3
 8004064:	f3bf 8f6f 	isb	sy
 8004068:	f3bf 8f4f 	dsb	sy
 800406c:	e7fe      	b.n	800406c <xEventGroupClearBits+0x30>
 800406e:	f001 fd79 	bl	8005b64 <vPortEnterCritical>
 8004072:	682e      	ldr	r6, [r5, #0]
 8004074:	ea26 0404 	bic.w	r4, r6, r4
 8004078:	602c      	str	r4, [r5, #0]
 800407a:	f001 fd93 	bl	8005ba4 <vPortExitCritical>
 800407e:	4630      	mov	r0, r6
 8004080:	bd70      	pop	{r4, r5, r6, pc}

08004082 <vEventGroupClearBitsCallback>:
 8004082:	f7ff bfdb 	b.w	800403c <xEventGroupClearBits>
	...

08004088 <xEventGroupClearBitsFromISR>:
 8004088:	460a      	mov	r2, r1
 800408a:	2300      	movs	r3, #0
 800408c:	4601      	mov	r1, r0
 800408e:	4801      	ldr	r0, [pc, #4]	@ (8004094 <xEventGroupClearBitsFromISR+0xc>)
 8004090:	f001 bcfa 	b.w	8005a88 <xTimerPendFunctionCallFromISR>
 8004094:	08004083 	.word	0x08004083

08004098 <xEventGroupGetBitsFromISR>:
 8004098:	f3ef 8311 	mrs	r3, BASEPRI
 800409c:	f04f 0250 	mov.w	r2, #80	@ 0x50
 80040a0:	f382 8811 	msr	BASEPRI, r2
 80040a4:	f3bf 8f6f 	isb	sy
 80040a8:	f3bf 8f4f 	dsb	sy
 80040ac:	6800      	ldr	r0, [r0, #0]
 80040ae:	f383 8811 	msr	BASEPRI, r3
 80040b2:	4770      	bx	lr

080040b4 <xEventGroupSetBits>:
 80040b4:	e92d 41f0 	stmdb	sp!, {r4, r5, r6, r7, r8, lr}
 80040b8:	460d      	mov	r5, r1
 80040ba:	4604      	mov	r4, r0
 80040bc:	b940      	cbnz	r0, 80040d0 <xEventGroupSetBits+0x1c>
 80040be:	f04f 0350 	mov.w	r3, #80	@ 0x50
 80040c2:	f383 8811 	msr	BASEPRI, r3
 80040c6:	f3bf 8f6f 	isb	sy
 80040ca:	f3bf 8f4f 	dsb	sy
 80040ce:	e7fe      	b.n	80040ce <xEventGroupSetBits+0x1a>
 80040d0:	f1b1 7f80 	cmp.w	r1, #16777216	@ 0x1000000
 80040d4:	d308      	bcc.n	80040e8 <xEventGroupSetBits+0x34>
 80040d6:	f04f 0350 	mov.w	r3, #80	@ 0x50
 80040da:	f383 8811 	msr	BASEPRI, r3
 80040de:	f3bf 8f6f 	isb	sy
 80040e2:	f3bf 8f4f 	dsb	sy
 80040e6:	e7fe      	b.n	80040e6 <xEventGroupSetBits+0x32>
 80040e8:	f100 060c 	add.w	r6, r0, #12
 80040ec:	f000 ff38 	bl	8004f60 <vTaskSuspendAll>
 80040f0:	6823      	ldr	r3, [r4, #0]
 80040f2:	6920      	ldr	r0, [r4, #16]
 80040f4:	432b      	orrs	r3, r5
 80040f6:	2500      	movs	r5, #0
 80040f8:	6023      	str	r3, [r4, #0]
 80040fa:	4286      	cmp	r6, r0
 80040fc:	6821      	ldr	r1, [r4, #0]
 80040fe:	d107      	bne.n	8004110 <xEventGroupSetBits+0x5c>
 8004100:	ea21 0105 	bic.w	r1, r1, r5
 8004104:	6021      	str	r1, [r4, #0]
 8004106:	f000 ffd1 	bl	80050ac <xTaskResumeAll>
 800410a:	6820      	ldr	r0, [r4, #0]
 800410c:	e8bd 81f0 	ldmia.w	sp!, {r4, r5, r6, r7, r8, pc}
 8004110:	e9d0 2800 	ldrd	r2, r8, [r0]
 8004114:	f022 437f 	bic.w	r3, r2, #4278190080	@ 0xff000000
 8004118:	f012 6f80 	tst.w	r2, #67108864	@ 0x4000000
 800411c:	ea03 0701 	and.w	r7, r3, r1
 8004120:	d102      	bne.n	8004128 <xEventGroupSetBits+0x74>
 8004122:	b91f      	cbnz	r7, 800412c <xEventGroupSetBits+0x78>
 8004124:	4640      	mov	r0, r8
 8004126:	e7e8      	b.n	80040fa <xEventGroupSetBits+0x46>
 8004128:	42bb      	cmp	r3, r7
 800412a:	d1fb      	bne.n	8004124 <xEventGroupSetBits+0x70>
 800412c:	01d2      	lsls	r2, r2, #7
 800412e:	f041 7100 	orr.w	r1, r1, #33554432	@ 0x2000000
 8004132:	bf48      	it	mi
 8004134:	431d      	orrmi	r5, r3
 8004136:	f001 f933 	bl	80053a0 <vTaskRemoveFromUnorderedEventList>
 800413a:	e7f3      	b.n	8004124 <xEventGroupSetBits+0x70>

0800413c <vEventGroupSetBitsCallback>:
 800413c:	f7ff bfba 	b.w	80040b4 <xEventGroupSetBits>

08004140 <xEventGroupSetBitsFromISR>:
 8004140:	4613      	mov	r3, r2
 8004142:	460a      	mov	r2, r1
 8004144:	4601      	mov	r1, r0
 8004146:	4801      	ldr	r0, [pc, #4]	@ (800414c <xEventGroupSetBitsFromISR+0xc>)
 8004148:	f001 bc9e 	b.w	8005a88 <xTimerPendFunctionCallFromISR>
 800414c:	0800413d 	.word	0x0800413d

08004150 <vListInitialise>:
 8004150:	f04f 32ff 	mov.w	r2, #4294967295
 8004154:	f100 0308 	add.w	r3, r0, #8
 8004158:	e9c0 2302 	strd	r2, r3, [r0, #8]
 800415c:	6043      	str	r3, [r0, #4]
 800415e:	6103      	str	r3, [r0, #16]
 8004160:	2300      	movs	r3, #0
 8004162:	6003      	str	r3, [r0, #0]
 8004164:	4770      	bx	lr

08004166 <vListInitialiseItem>:
 8004166:	2300      	movs	r3, #0
 8004168:	6103      	str	r3, [r0, #16]
 800416a:	4770      	bx	lr

0800416c <vListInsertEnd>:
 800416c:	6843      	ldr	r3, [r0, #4]
 800416e:	689a      	ldr	r2, [r3, #8]
 8004170:	604b      	str	r3, [r1, #4]
 8004172:	608a      	str	r2, [r1, #8]
 8004174:	6051      	str	r1, [r2, #4]
 8004176:	6099      	str	r1, [r3, #8]
 8004178:	6803      	ldr	r3, [r0, #0]
 800417a:	6108      	str	r0, [r1, #16]
 800417c:	3301      	adds	r3, #1
 800417e:	6003      	str	r3, [r0, #0]
 8004180:	4770      	bx	lr

08004182 <vListInsert>:
 8004182:	b530      	push	{r4, r5, lr}
 8004184:	680c      	ldr	r4, [r1, #0]
 8004186:	1c63      	adds	r3, r4, #1
 8004188:	d10a      	bne.n	80041a0 <vListInsert+0x1e>
 800418a:	6903      	ldr	r3, [r0, #16]
 800418c:	685a      	ldr	r2, [r3, #4]
 800418e:	604a      	str	r2, [r1, #4]
 8004190:	6091      	str	r1, [r2, #8]
 8004192:	608b      	str	r3, [r1, #8]
 8004194:	6059      	str	r1, [r3, #4]
 8004196:	6803      	ldr	r3, [r0, #0]
 8004198:	6108      	str	r0, [r1, #16]
 800419a:	3301      	adds	r3, #1
 800419c:	6003      	str	r3, [r0, #0]
 800419e:	bd30      	pop	{r4, r5, pc}
 80041a0:	f100 0208 	add.w	r2, r0, #8
 80041a4:	4613      	mov	r3, r2
 80041a6:	6852      	ldr	r2, [r2, #4]
 80041a8:	6815      	ldr	r5, [r2, #0]
 80041aa:	42a5      	cmp	r5, r4
 80041ac:	d9fa      	bls.n	80041a4 <vListInsert+0x22>
 80041ae:	e7ed      	b.n	800418c <vListInsert+0xa>

080041b0 <uxListRemove>:
 80041b0:	6903      	ldr	r3, [r0, #16]
 80041b2:	e9d0 1201 	ldrd	r1, r2, [r0, #4]
 80041b6:	608a      	str	r2, [r1, #8]
 80041b8:	6051      	str	r1, [r2, #4]
 80041ba:	6859      	ldr	r1, [r3, #4]
 80041bc:	4281      	cmp	r1, r0
 80041be:	bf08      	it	eq
 80041c0:	605a      	streq	r2, [r3, #4]
 80041c2:	2200      	movs	r2, #0
 80041c4:	6102      	str	r2, [r0, #16]
 80041c6:	681a      	ldr	r2, [r3, #0]
 80041c8:	3a01      	subs	r2, #1
 80041ca:	601a      	str	r2, [r3, #0]
 80041cc:	6818      	ldr	r0, [r3, #0]
 80041ce:	4770      	bx	lr

080041d0 <prvIsQueueEmpty>:
 80041d0:	b510      	push	{r4, lr}
 80041d2:	4604      	mov	r4, r0
 80041d4:	f001 fcc6 	bl	8005b64 <vPortEnterCritical>
 80041d8:	6ba4      	ldr	r4, [r4, #56]	@ 0x38
 80041da:	f001 fce3 	bl	8005ba4 <vPortExitCritical>
 80041de:	fab4 f084 	clz	r0, r4
 80041e2:	0940      	lsrs	r0, r0, #5
 80041e4:	bd10      	pop	{r4, pc}

080041e6 <prvCopyDataToQueue>:
 80041e6:	b570      	push	{r4, r5, r6, lr}
 80041e8:	4616      	mov	r6, r2
 80041ea:	6c02      	ldr	r2, [r0, #64]	@ 0x40
 80041ec:	4604      	mov	r4, r0
 80041ee:	6b85      	ldr	r5, [r0, #56]	@ 0x38
 80041f0:	b942      	cbnz	r2, 8004204 <prvCopyDataToQueue+0x1e>
 80041f2:	6806      	ldr	r6, [r0, #0]
 80041f4:	b99e      	cbnz	r6, 800421e <prvCopyDataToQueue+0x38>
 80041f6:	6880      	ldr	r0, [r0, #8]
 80041f8:	f001 f9b6 	bl	8005568 <xTaskPriorityDisinherit>
 80041fc:	60a6      	str	r6, [r4, #8]
 80041fe:	3501      	adds	r5, #1
 8004200:	63a5      	str	r5, [r4, #56]	@ 0x38
 8004202:	bd70      	pop	{r4, r5, r6, pc}
 8004204:	b96e      	cbnz	r6, 8004222 <prvCopyDataToQueue+0x3c>
 8004206:	6840      	ldr	r0, [r0, #4]
 8004208:	f002 fce7 	bl	8006bda <memcpy>
 800420c:	6863      	ldr	r3, [r4, #4]
 800420e:	6c22      	ldr	r2, [r4, #64]	@ 0x40
 8004210:	4413      	add	r3, r2
 8004212:	68a2      	ldr	r2, [r4, #8]
 8004214:	6063      	str	r3, [r4, #4]
 8004216:	4293      	cmp	r3, r2
 8004218:	bf24      	itt	cs
 800421a:	6823      	ldrcs	r3, [r4, #0]
 800421c:	6063      	strcs	r3, [r4, #4]
 800421e:	2000      	movs	r0, #0
 8004220:	e7ed      	b.n	80041fe <prvCopyDataToQueue+0x18>
 8004222:	68c0      	ldr	r0, [r0, #12]
 8004224:	f002 fcd9 	bl	8006bda <memcpy>
 8004228:	6c22      	ldr	r2, [r4, #64]	@ 0x40
 800422a:	68e3      	ldr	r3, [r4, #12]
 800422c:	4251      	negs	r1, r2
 800422e:	1a9b      	subs	r3, r3, r2
 8004230:	6822      	ldr	r2, [r4, #0]
 8004232:	60e3      	str	r3, [r4, #12]
 8004234:	4293      	cmp	r3, r2
 8004236:	bf3e      	ittt	cc
 8004238:	68a3      	ldrcc	r3, [r4, #8]
 800423a:	185b      	addcc	r3, r3, r1
 800423c:	60e3      	strcc	r3, [r4, #12]
 800423e:	2e02      	cmp	r6, #2
 8004240:	d1ed      	bne.n	800421e <prvCopyDataToQueue+0x38>
 8004242:	b10d      	cbz	r5, 8004248 <prvCopyDataToQueue+0x62>
 8004244:	3d01      	subs	r5, #1
 8004246:	e7ea      	b.n	800421e <prvCopyDataToQueue+0x38>
 8004248:	4628      	mov	r0, r5
 800424a:	e7d8      	b.n	80041fe <prvCopyDataToQueue+0x18>

0800424c <prvCopyDataFromQueue>:
 800424c:	4603      	mov	r3, r0
 800424e:	6c1a      	ldr	r2, [r3, #64]	@ 0x40
 8004250:	4608      	mov	r0, r1
 8004252:	b410      	push	{r4}
 8004254:	b162      	cbz	r2, 8004270 <prvCopyDataFromQueue+0x24>
 8004256:	68dc      	ldr	r4, [r3, #12]
 8004258:	6899      	ldr	r1, [r3, #8]
 800425a:	4414      	add	r4, r2
 800425c:	428c      	cmp	r4, r1
 800425e:	bf28      	it	cs
 8004260:	6819      	ldrcs	r1, [r3, #0]
 8004262:	60dc      	str	r4, [r3, #12]
 8004264:	bf28      	it	cs
 8004266:	60d9      	strcs	r1, [r3, #12]
 8004268:	68d9      	ldr	r1, [r3, #12]
 800426a:	bc10      	pop	{r4}
 800426c:	f002 bcb5 	b.w	8006bda <memcpy>
 8004270:	bc10      	pop	{r4}
 8004272:	4770      	bx	lr

08004274 <prvUnlockQueue>:
 8004274:	b570      	push	{r4, r5, r6, lr}
 8004276:	4604      	mov	r4, r0
 8004278:	f001 fc74 	bl	8005b64 <vPortEnterCritical>
 800427c:	f894 5045 	ldrb.w	r5, [r4, #69]	@ 0x45
 8004280:	f104 0624 	add.w	r6, r4, #36	@ 0x24
 8004284:	b26d      	sxtb	r5, r5
 8004286:	2d00      	cmp	r5, #0
 8004288:	dd01      	ble.n	800428e <prvUnlockQueue+0x1a>
 800428a:	6a63      	ldr	r3, [r4, #36]	@ 0x24
 800428c:	b9b3      	cbnz	r3, 80042bc <prvUnlockQueue+0x48>
 800428e:	23ff      	movs	r3, #255	@ 0xff
 8004290:	f884 3045 	strb.w	r3, [r4, #69]	@ 0x45
 8004294:	f001 fc86 	bl	8005ba4 <vPortExitCritical>
 8004298:	f001 fc64 	bl	8005b64 <vPortEnterCritical>
 800429c:	f894 5044 	ldrb.w	r5, [r4, #68]	@ 0x44
 80042a0:	f104 0610 	add.w	r6, r4, #16
 80042a4:	b26d      	sxtb	r5, r5
 80042a6:	2d00      	cmp	r5, #0
 80042a8:	dd01      	ble.n	80042ae <prvUnlockQueue+0x3a>
 80042aa:	6923      	ldr	r3, [r4, #16]
 80042ac:	b97b      	cbnz	r3, 80042ce <prvUnlockQueue+0x5a>
 80042ae:	23ff      	movs	r3, #255	@ 0xff
 80042b0:	f884 3044 	strb.w	r3, [r4, #68]	@ 0x44
 80042b4:	e8bd 4070 	ldmia.w	sp!, {r4, r5, r6, lr}
 80042b8:	f001 bc74 	b.w	8005ba4 <vPortExitCritical>
 80042bc:	4630      	mov	r0, r6
 80042be:	f001 f82f 	bl	8005320 <xTaskRemoveFromEventList>
 80042c2:	b108      	cbz	r0, 80042c8 <prvUnlockQueue+0x54>
 80042c4:	f001 f8f6 	bl	80054b4 <vTaskMissedYield>
 80042c8:	3d01      	subs	r5, #1
 80042ca:	b26d      	sxtb	r5, r5
 80042cc:	e7db      	b.n	8004286 <prvUnlockQueue+0x12>
 80042ce:	4630      	mov	r0, r6
 80042d0:	f001 f826 	bl	8005320 <xTaskRemoveFromEventList>
 80042d4:	b108      	cbz	r0, 80042da <prvUnlockQueue+0x66>
 80042d6:	f001 f8ed 	bl	80054b4 <vTaskMissedYield>
 80042da:	3d01      	subs	r5, #1
 80042dc:	b26d      	sxtb	r5, r5
 80042de:	e7e2      	b.n	80042a6 <prvUnlockQueue+0x32>

080042e0 <xQueueGenericReset>:
 80042e0:	b538      	push	{r3, r4, r5, lr}
 80042e2:	460d      	mov	r5, r1
 80042e4:	4604      	mov	r4, r0
 80042e6:	b940      	cbnz	r0, 80042fa <xQueueGenericReset+0x1a>
 80042e8:	f04f 0350 	mov.w	r3, #80	@ 0x50
 80042ec:	f383 8811 	msr	BASEPRI, r3
 80042f0:	f3bf 8f6f 	isb	sy
 80042f4:	f3bf 8f4f 	dsb	sy
 80042f8:	e7fe      	b.n	80042f8 <xQueueGenericReset+0x18>
 80042fa:	f001 fc33 	bl	8005b64 <vPortEnterCritical>
 80042fe:	e9d4 310f 	ldrd	r3, r1, [r4, #60]	@ 0x3c
 8004302:	434b      	muls	r3, r1
 8004304:	6822      	ldr	r2, [r4, #0]
 8004306:	18d0      	adds	r0, r2, r3
 8004308:	1a5b      	subs	r3, r3, r1
 800430a:	60a0      	str	r0, [r4, #8]
 800430c:	6062      	str	r2, [r4, #4]
 800430e:	2000      	movs	r0, #0
 8004310:	441a      	add	r2, r3
 8004312:	23ff      	movs	r3, #255	@ 0xff
 8004314:	63a0      	str	r0, [r4, #56]	@ 0x38
 8004316:	60e2      	str	r2, [r4, #12]
 8004318:	f884 3044 	strb.w	r3, [r4, #68]	@ 0x44
 800431c:	f884 3045 	strb.w	r3, [r4, #69]	@ 0x45
 8004320:	b9a5      	cbnz	r5, 800434c <xQueueGenericReset+0x6c>
 8004322:	6923      	ldr	r3, [r4, #16]
 8004324:	b173      	cbz	r3, 8004344 <xQueueGenericReset+0x64>
 8004326:	f104 0010 	add.w	r0, r4, #16
 800432a:	f000 fff9 	bl	8005320 <xTaskRemoveFromEventList>
 800432e:	b148      	cbz	r0, 8004344 <xQueueGenericReset+0x64>
 8004330:	f04f 23e0 	mov.w	r3, #3758153728	@ 0xe000e000
 8004334:	f04f 5280 	mov.w	r2, #268435456	@ 0x10000000
 8004338:	f8c3 2d04 	str.w	r2, [r3, #3332]	@ 0xd04
 800433c:	f3bf 8f4f 	dsb	sy
 8004340:	f3bf 8f6f 	isb	sy
 8004344:	f001 fc2e 	bl	8005ba4 <vPortExitCritical>
 8004348:	2001      	movs	r0, #1
 800434a:	bd38      	pop	{r3, r4, r5, pc}
 800434c:	f104 0010 	add.w	r0, r4, #16
 8004350:	f7ff fefe 	bl	8004150 <vListInitialise>
 8004354:	f104 0024 	add.w	r0, r4, #36	@ 0x24
 8004358:	f7ff fefa 	bl	8004150 <vListInitialise>
 800435c:	e7f2      	b.n	8004344 <xQueueGenericReset+0x64>

0800435e <xQueueGenericCreateStatic>:
 800435e:	b537      	push	{r0, r1, r2, r4, r5, lr}
 8004360:	460d      	mov	r5, r1
 8004362:	461c      	mov	r4, r3
 8004364:	b940      	cbnz	r0, 8004378 <xQueueGenericCreateStatic+0x1a>
 8004366:	f04f 0350 	mov.w	r3, #80	@ 0x50
 800436a:	f383 8811 	msr	BASEPRI, r3
 800436e:	f3bf 8f6f 	isb	sy
 8004372:	f3bf 8f4f 	dsb	sy
 8004376:	e7fe      	b.n	8004376 <xQueueGenericCreateStatic+0x18>
 8004378:	b943      	cbnz	r3, 800438c <xQueueGenericCreateStatic+0x2e>
 800437a:	f04f 0350 	mov.w	r3, #80	@ 0x50
 800437e:	f383 8811 	msr	BASEPRI, r3
 8004382:	f3bf 8f6f 	isb	sy
 8004386:	f3bf 8f4f 	dsb	sy
 800438a:	e7fe      	b.n	800438a <xQueueGenericCreateStatic+0x2c>
 800438c:	b14a      	cbz	r2, 80043a2 <xQueueGenericCreateStatic+0x44>
 800438e:	b991      	cbnz	r1, 80043b6 <xQueueGenericCreateStatic+0x58>
 8004390:	f04f 0350 	mov.w	r3, #80	@ 0x50
 8004394:	f383 8811 	msr	BASEPRI, r3
 8004398:	f3bf 8f6f 	isb	sy
 800439c:	f3bf 8f4f 	dsb	sy
 80043a0:	e7fe      	b.n	80043a0 <xQueueGenericCreateStatic+0x42>
 80043a2:	b141      	cbz	r1, 80043b6 <xQueueGenericCreateStatic+0x58>
 80043a4:	f04f 0350 	mov.w	r3, #80	@ 0x50
 80043a8:	f383 8811 	msr	BASEPRI, r3
 80043ac:	f3bf 8f6f 	isb	sy
 80043b0:	f3bf 8f4f 	dsb	sy
 80043b4:	e7fe      	b.n	80043b4 <xQueueGenericCreateStatic+0x56>
 80043b6:	2350      	movs	r3, #80	@ 0x50
 80043b8:	9301      	str	r3, [sp, #4]
 80043ba:	9b01      	ldr	r3, [sp, #4]
 80043bc:	2b50      	cmp	r3, #80	@ 0x50
 80043be:	d008      	beq.n	80043d2 <xQueueGenericCreateStatic+0x74>
 80043c0:	f04f 0350 	mov.w	r3, #80	@ 0x50
 80043c4:	f383 8811 	msr	BASEPRI, r3
 80043c8:	f3bf 8f6f 	isb	sy
 80043cc:	f3bf 8f4f 	dsb	sy
 80043d0:	e7fe      	b.n	80043d0 <xQueueGenericCreateStatic+0x72>
 80043d2:	2101      	movs	r1, #1
 80043d4:	2d00      	cmp	r5, #0
 80043d6:	bf08      	it	eq
 80043d8:	4622      	moveq	r2, r4
 80043da:	e9c4 050f 	strd	r0, r5, [r4, #60]	@ 0x3c
 80043de:	f884 1046 	strb.w	r1, [r4, #70]	@ 0x46
 80043e2:	4620      	mov	r0, r4
 80043e4:	6022      	str	r2, [r4, #0]
 80043e6:	9b01      	ldr	r3, [sp, #4]
 80043e8:	f7ff ff7a 	bl	80042e0 <xQueueGenericReset>
 80043ec:	4620      	mov	r0, r4
 80043ee:	f89d 3018 	ldrb.w	r3, [sp, #24]
 80043f2:	f884 304c 	strb.w	r3, [r4, #76]	@ 0x4c
 80043f6:	b003      	add	sp, #12
 80043f8:	bd30      	pop	{r4, r5, pc}

080043fa <xQueueGenericCreate>:
 80043fa:	b5f8      	push	{r3, r4, r5, r6, r7, lr}
 80043fc:	460d      	mov	r5, r1
 80043fe:	4617      	mov	r7, r2
 8004400:	4606      	mov	r6, r0
 8004402:	b940      	cbnz	r0, 8004416 <xQueueGenericCreate+0x1c>
 8004404:	f04f 0350 	mov.w	r3, #80	@ 0x50
 8004408:	f383 8811 	msr	BASEPRI, r3
 800440c:	f3bf 8f6f 	isb	sy
 8004410:	f3bf 8f4f 	dsb	sy
 8004414:	e7fe      	b.n	8004414 <xQueueGenericCreate+0x1a>
 8004416:	4348      	muls	r0, r1
 8004418:	3050      	adds	r0, #80	@ 0x50
 800441a:	f001 fccf 	bl	8005dbc <pvPortMalloc>
 800441e:	4604      	mov	r4, r0
 8004420:	b170      	cbz	r0, 8004440 <xQueueGenericCreate+0x46>
 8004422:	2300      	movs	r3, #0
 8004424:	f880 3046 	strb.w	r3, [r0, #70]	@ 0x46
 8004428:	b165      	cbz	r5, 8004444 <xQueueGenericCreate+0x4a>
 800442a:	f100 0350 	add.w	r3, r0, #80	@ 0x50
 800442e:	2101      	movs	r1, #1
 8004430:	4620      	mov	r0, r4
 8004432:	e9c4 650f 	strd	r6, r5, [r4, #60]	@ 0x3c
 8004436:	6023      	str	r3, [r4, #0]
 8004438:	f7ff ff52 	bl	80042e0 <xQueueGenericReset>
 800443c:	f884 704c 	strb.w	r7, [r4, #76]	@ 0x4c
 8004440:	4620      	mov	r0, r4
 8004442:	bdf8      	pop	{r3, r4, r5, r6, r7, pc}
 8004444:	4603      	mov	r3, r0
 8004446:	e7f2      	b.n	800442e <xQueueGenericCreate+0x34>

08004448 <xQueueCreateCountingSemaphoreStatic>:
 8004448:	b513      	push	{r0, r1, r4, lr}
 800444a:	4613      	mov	r3, r2
 800444c:	460c      	mov	r4, r1
 800444e:	b940      	cbnz	r0, 8004462 <xQueueCreateCountingSemaphoreStatic+0x1a>
 8004450:	f04f 0350 	mov.w	r3, #80	@ 0x50
 8004454:	f383 8811 	msr	BASEPRI, r3
 8004458:	f3bf 8f6f 	isb	sy
 800445c:	f3bf 8f4f 	dsb	sy
 8004460:	e7fe      	b.n	8004460 <xQueueCreateCountingSemaphoreStatic+0x18>
 8004462:	4288      	cmp	r0, r1
 8004464:	d208      	bcs.n	8004478 <xQueueCreateCountingSemaphoreStatic+0x30>
 8004466:	f04f 0350 	mov.w	r3, #80	@ 0x50
 800446a:	f383 8811 	msr	BASEPRI, r3
 800446e:	f3bf 8f6f 	isb	sy
 8004472:	f3bf 8f4f 	dsb	sy
 8004476:	e7fe      	b.n	8004476 <xQueueCreateCountingSemaphoreStatic+0x2e>
 8004478:	2202      	movs	r2, #2
 800447a:	9200      	str	r2, [sp, #0]
 800447c:	2200      	movs	r2, #0
 800447e:	4611      	mov	r1, r2
 8004480:	f7ff ff6d 	bl	800435e <xQueueGenericCreateStatic>
 8004484:	b100      	cbz	r0, 8004488 <xQueueCreateCountingSemaphoreStatic+0x40>
 8004486:	6384      	str	r4, [r0, #56]	@ 0x38
 8004488:	b002      	add	sp, #8
 800448a:	bd10      	pop	{r4, pc}

0800448c <xQueueCreateCountingSemaphore>:
 800448c:	b510      	push	{r4, lr}
 800448e:	460c      	mov	r4, r1
 8004490:	b940      	cbnz	r0, 80044a4 <xQueueCreateCountingSemaphore+0x18>
 8004492:	f04f 0350 	mov.w	r3, #80	@ 0x50
 8004496:	f383 8811 	msr	BASEPRI, r3
 800449a:	f3bf 8f6f 	isb	sy
 800449e:	f3bf 8f4f 	dsb	sy
 80044a2:	e7fe      	b.n	80044a2 <xQueueCreateCountingSemaphore+0x16>
 80044a4:	4288      	cmp	r0, r1
 80044a6:	d208      	bcs.n	80044ba <xQueueCreateCountingSemaphore+0x2e>
 80044a8:	f04f 0350 	mov.w	r3, #80	@ 0x50
 80044ac:	f383 8811 	msr	BASEPRI, r3
 80044b0:	f3bf 8f6f 	isb	sy
 80044b4:	f3bf 8f4f 	dsb	sy
 80044b8:	e7fe      	b.n	80044b8 <xQueueCreateCountingSemaphore+0x2c>
 80044ba:	2202      	movs	r2, #2
 80044bc:	2100      	movs	r1, #0
 80044be:	f7ff ff9c 	bl	80043fa <xQueueGenericCreate>
 80044c2:	b100      	cbz	r0, 80044c6 <xQueueCreateCountingSemaphore+0x3a>
 80044c4:	6384      	str	r4, [r0, #56]	@ 0x38
 80044c6:	bd10      	pop	{r4, pc}

080044c8 <xQueueGenericSend>:
 80044c8:	e92d 41ff 	stmdb	sp!, {r0, r1, r2, r3, r4, r5, r6, r7, r8, lr}
 80044cc:	460f      	mov	r7, r1
 80044ce:	461e      	mov	r6, r3
 80044d0:	4604      	mov	r4, r0
 80044d2:	9201      	str	r2, [sp, #4]
 80044d4:	b940      	cbnz	r0, 80044e8 <xQueueGenericSend+0x20>
 80044d6:	f04f 0350 	mov.w	r3, #80	@ 0x50
 80044da:	f383 8811 	msr	BASEPRI, r3
 80044de:	f3bf 8f6f 	isb	sy
 80044e2:	f3bf 8f4f 	dsb	sy
 80044e6:	e7fe      	b.n	80044e6 <xQueueGenericSend+0x1e>
 80044e8:	b951      	cbnz	r1, 8004500 <xQueueGenericSend+0x38>
 80044ea:	6c03      	ldr	r3, [r0, #64]	@ 0x40
 80044ec:	b143      	cbz	r3, 8004500 <xQueueGenericSend+0x38>
 80044ee:	f04f 0350 	mov.w	r3, #80	@ 0x50
 80044f2:	f383 8811 	msr	BASEPRI, r3
 80044f6:	f3bf 8f6f 	isb	sy
 80044fa:	f3bf 8f4f 	dsb	sy
 80044fe:	e7fe      	b.n	80044fe <xQueueGenericSend+0x36>
 8004500:	2e02      	cmp	r6, #2
 8004502:	d10b      	bne.n	800451c <xQueueGenericSend+0x54>
 8004504:	6be3      	ldr	r3, [r4, #60]	@ 0x3c
 8004506:	2b01      	cmp	r3, #1
 8004508:	d008      	beq.n	800451c <xQueueGenericSend+0x54>
 800450a:	f04f 0350 	mov.w	r3, #80	@ 0x50
 800450e:	f383 8811 	msr	BASEPRI, r3
 8004512:	f3bf 8f6f 	isb	sy
 8004516:	f3bf 8f4f 	dsb	sy
 800451a:	e7fe      	b.n	800451a <xQueueGenericSend+0x52>
 800451c:	f000 ffd6 	bl	80054cc <xTaskGetSchedulerState>
 8004520:	4605      	mov	r5, r0
 8004522:	b320      	cbz	r0, 800456e <xQueueGenericSend+0xa6>
 8004524:	2500      	movs	r5, #0
 8004526:	f04f 0800 	mov.w	r8, #0
 800452a:	f001 fb1b 	bl	8005b64 <vPortEnterCritical>
 800452e:	6ba2      	ldr	r2, [r4, #56]	@ 0x38
 8004530:	6be3      	ldr	r3, [r4, #60]	@ 0x3c
 8004532:	429a      	cmp	r2, r3
 8004534:	d227      	bcs.n	8004586 <xQueueGenericSend+0xbe>
 8004536:	4632      	mov	r2, r6
 8004538:	4639      	mov	r1, r7
 800453a:	4620      	mov	r0, r4
 800453c:	f7ff fe53 	bl	80041e6 <prvCopyDataToQueue>
 8004540:	6a63      	ldr	r3, [r4, #36]	@ 0x24
 8004542:	b11b      	cbz	r3, 800454c <xQueueGenericSend+0x84>
 8004544:	f104 0024 	add.w	r0, r4, #36	@ 0x24
 8004548:	f000 feea 	bl	8005320 <xTaskRemoveFromEventList>
 800454c:	b148      	cbz	r0, 8004562 <xQueueGenericSend+0x9a>
 800454e:	f04f 23e0 	mov.w	r3, #3758153728	@ 0xe000e000
 8004552:	f04f 5280 	mov.w	r2, #268435456	@ 0x10000000
 8004556:	f8c3 2d04 	str.w	r2, [r3, #3332]	@ 0xd04
 800455a:	f3bf 8f4f 	dsb	sy
 800455e:	f3bf 8f6f 	isb	sy
 8004562:	f001 fb1f 	bl	8005ba4 <vPortExitCritical>
 8004566:	2001      	movs	r0, #1
 8004568:	b004      	add	sp, #16
 800456a:	e8bd 81f0 	ldmia.w	sp!, {r4, r5, r6, r7, r8, pc}
 800456e:	9b01      	ldr	r3, [sp, #4]
 8004570:	2b00      	cmp	r3, #0
 8004572:	d0d8      	beq.n	8004526 <xQueueGenericSend+0x5e>
 8004574:	f04f 0350 	mov.w	r3, #80	@ 0x50
 8004578:	f383 8811 	msr	BASEPRI, r3
 800457c:	f3bf 8f6f 	isb	sy
 8004580:	f3bf 8f4f 	dsb	sy
 8004584:	e7fe      	b.n	8004584 <xQueueGenericSend+0xbc>
 8004586:	2e02      	cmp	r6, #2
 8004588:	d0d5      	beq.n	8004536 <xQueueGenericSend+0x6e>
 800458a:	9b01      	ldr	r3, [sp, #4]
 800458c:	b91b      	cbnz	r3, 8004596 <xQueueGenericSend+0xce>
 800458e:	f001 fb09 	bl	8005ba4 <vPortExitCritical>
 8004592:	2000      	movs	r0, #0
 8004594:	e7e8      	b.n	8004568 <xQueueGenericSend+0xa0>
 8004596:	b915      	cbnz	r5, 800459e <xQueueGenericSend+0xd6>
 8004598:	a802      	add	r0, sp, #8
 800459a:	f000 ff43 	bl	8005424 <vTaskInternalSetTimeOutState>
 800459e:	f001 fb01 	bl	8005ba4 <vPortExitCritical>
 80045a2:	f000 fcdd 	bl	8004f60 <vTaskSuspendAll>
 80045a6:	f001 fadd 	bl	8005b64 <vPortEnterCritical>
 80045aa:	f894 3044 	ldrb.w	r3, [r4, #68]	@ 0x44
 80045ae:	2bff      	cmp	r3, #255	@ 0xff
 80045b0:	bf08      	it	eq
 80045b2:	f884 8044 	strbeq.w	r8, [r4, #68]	@ 0x44
 80045b6:	f894 3045 	ldrb.w	r3, [r4, #69]	@ 0x45
 80045ba:	2bff      	cmp	r3, #255	@ 0xff
 80045bc:	bf08      	it	eq
 80045be:	f884 8045 	strbeq.w	r8, [r4, #69]	@ 0x45
 80045c2:	f001 faef 	bl	8005ba4 <vPortExitCritical>
 80045c6:	a901      	add	r1, sp, #4
 80045c8:	a802      	add	r0, sp, #8
 80045ca:	f000 ff37 	bl	800543c <xTaskCheckForTimeOut>
 80045ce:	bb38      	cbnz	r0, 8004620 <xQueueGenericSend+0x158>
 80045d0:	f001 fac8 	bl	8005b64 <vPortEnterCritical>
 80045d4:	6ba2      	ldr	r2, [r4, #56]	@ 0x38
 80045d6:	6be3      	ldr	r3, [r4, #60]	@ 0x3c
 80045d8:	429a      	cmp	r2, r3
 80045da:	d10e      	bne.n	80045fa <xQueueGenericSend+0x132>
 80045dc:	f001 fae2 	bl	8005ba4 <vPortExitCritical>
 80045e0:	9901      	ldr	r1, [sp, #4]
 80045e2:	f104 0010 	add.w	r0, r4, #16
 80045e6:	f000 fe35 	bl	8005254 <vTaskPlaceOnEventList>
 80045ea:	4620      	mov	r0, r4
 80045ec:	f7ff fe42 	bl	8004274 <prvUnlockQueue>
 80045f0:	f000 fd5c 	bl	80050ac <xTaskResumeAll>
 80045f4:	b148      	cbz	r0, 800460a <xQueueGenericSend+0x142>
 80045f6:	2501      	movs	r5, #1
 80045f8:	e797      	b.n	800452a <xQueueGenericSend+0x62>
 80045fa:	f001 fad3 	bl	8005ba4 <vPortExitCritical>
 80045fe:	4620      	mov	r0, r4
 8004600:	f7ff fe38 	bl	8004274 <prvUnlockQueue>
 8004604:	f000 fd52 	bl	80050ac <xTaskResumeAll>
 8004608:	e7f5      	b.n	80045f6 <xQueueGenericSend+0x12e>
 800460a:	f04f 23e0 	mov.w	r3, #3758153728	@ 0xe000e000
 800460e:	f04f 5280 	mov.w	r2, #268435456	@ 0x10000000
 8004612:	f8c3 2d04 	str.w	r2, [r3, #3332]	@ 0xd04
 8004616:	f3bf 8f4f 	dsb	sy
 800461a:	f3bf 8f6f 	isb	sy
 800461e:	e7ea      	b.n	80045f6 <xQueueGenericSend+0x12e>
 8004620:	4620      	mov	r0, r4
 8004622:	f7ff fe27 	bl	8004274 <prvUnlockQueue>
 8004626:	f000 fd41 	bl	80050ac <xTaskResumeAll>
 800462a:	e7b2      	b.n	8004592 <xQueueGenericSend+0xca>

0800462c <xQueueCreateMutexStatic>:
 800462c:	2200      	movs	r2, #0
 800462e:	b513      	push	{r0, r1, r4, lr}
 8004630:	460b      	mov	r3, r1
 8004632:	9000      	str	r0, [sp, #0]
 8004634:	4611      	mov	r1, r2
 8004636:	2001      	movs	r0, #1
 8004638:	f7ff fe91 	bl	800435e <xQueueGenericCreateStatic>
 800463c:	4604      	mov	r4, r0
 800463e:	b138      	cbz	r0, 8004650 <xQueueCreateMutexStatic+0x24>
 8004640:	2300      	movs	r3, #0
 8004642:	461a      	mov	r2, r3
 8004644:	4619      	mov	r1, r3
 8004646:	6083      	str	r3, [r0, #8]
 8004648:	6003      	str	r3, [r0, #0]
 800464a:	60c3      	str	r3, [r0, #12]
 800464c:	f7ff ff3c 	bl	80044c8 <xQueueGenericSend>
 8004650:	4620      	mov	r0, r4
 8004652:	b002      	add	sp, #8
 8004654:	bd10      	pop	{r4, pc}

08004656 <xQueueGiveMutexRecursive>:
 8004656:	b538      	push	{r3, r4, r5, lr}
 8004658:	4604      	mov	r4, r0
 800465a:	b940      	cbnz	r0, 800466e <xQueueGiveMutexRecursive+0x18>
 800465c:	f04f 0350 	mov.w	r3, #80	@ 0x50
 8004660:	f383 8811 	msr	BASEPRI, r3
 8004664:	f3bf 8f6f 	isb	sy
 8004668:	f3bf 8f4f 	dsb	sy
 800466c:	e7fe      	b.n	800466c <xQueueGiveMutexRecursive+0x16>
 800466e:	6885      	ldr	r5, [r0, #8]
 8004670:	f000 ff26 	bl	80054c0 <xTaskGetCurrentTaskHandle>
 8004674:	4285      	cmp	r5, r0
 8004676:	d10b      	bne.n	8004690 <xQueueGiveMutexRecursive+0x3a>
 8004678:	68e3      	ldr	r3, [r4, #12]
 800467a:	3b01      	subs	r3, #1
 800467c:	60e3      	str	r3, [r4, #12]
 800467e:	b10b      	cbz	r3, 8004684 <xQueueGiveMutexRecursive+0x2e>
 8004680:	2001      	movs	r0, #1
 8004682:	bd38      	pop	{r3, r4, r5, pc}
 8004684:	461a      	mov	r2, r3
 8004686:	4619      	mov	r1, r3
 8004688:	4620      	mov	r0, r4
 800468a:	f7ff ff1d 	bl	80044c8 <xQueueGenericSend>
 800468e:	e7f7      	b.n	8004680 <xQueueGiveMutexRecursive+0x2a>
 8004690:	2000      	movs	r0, #0
 8004692:	e7f6      	b.n	8004682 <xQueueGiveMutexRecursive+0x2c>

08004694 <xQueueCreateMutex>:
 8004694:	b570      	push	{r4, r5, r6, lr}
 8004696:	4606      	mov	r6, r0
 8004698:	2050      	movs	r0, #80	@ 0x50
 800469a:	f001 fb8f 	bl	8005dbc <pvPortMalloc>
 800469e:	4604      	mov	r4, r0
 80046a0:	b198      	cbz	r0, 80046ca <xQueueCreateMutex+0x36>
 80046a2:	2500      	movs	r5, #0
 80046a4:	2101      	movs	r1, #1
 80046a6:	f880 5046 	strb.w	r5, [r0, #70]	@ 0x46
 80046aa:	e9c0 150f 	strd	r1, r5, [r0, #60]	@ 0x3c
 80046ae:	6000      	str	r0, [r0, #0]
 80046b0:	f7ff fe16 	bl	80042e0 <xQueueGenericReset>
 80046b4:	462b      	mov	r3, r5
 80046b6:	462a      	mov	r2, r5
 80046b8:	4629      	mov	r1, r5
 80046ba:	4620      	mov	r0, r4
 80046bc:	f884 604c 	strb.w	r6, [r4, #76]	@ 0x4c
 80046c0:	60a5      	str	r5, [r4, #8]
 80046c2:	6025      	str	r5, [r4, #0]
 80046c4:	60e5      	str	r5, [r4, #12]
 80046c6:	f7ff feff 	bl	80044c8 <xQueueGenericSend>
 80046ca:	4620      	mov	r0, r4
 80046cc:	bd70      	pop	{r4, r5, r6, pc}

080046ce <xQueueGenericSendFromISR>:
 80046ce:	e92d 43f8 	stmdb	sp!, {r3, r4, r5, r6, r7, r8, r9, lr}
 80046d2:	4689      	mov	r9, r1
 80046d4:	4617      	mov	r7, r2
 80046d6:	461e      	mov	r6, r3
 80046d8:	4604      	mov	r4, r0
 80046da:	b940      	cbnz	r0, 80046ee <xQueueGenericSendFromISR+0x20>
 80046dc:	f04f 0350 	mov.w	r3, #80	@ 0x50
 80046e0:	f383 8811 	msr	BASEPRI, r3
 80046e4:	f3bf 8f6f 	isb	sy
 80046e8:	f3bf 8f4f 	dsb	sy
 80046ec:	e7fe      	b.n	80046ec <xQueueGenericSendFromISR+0x1e>
 80046ee:	b951      	cbnz	r1, 8004706 <xQueueGenericSendFromISR+0x38>
 80046f0:	6c03      	ldr	r3, [r0, #64]	@ 0x40
 80046f2:	b143      	cbz	r3, 8004706 <xQueueGenericSendFromISR+0x38>
 80046f4:	f04f 0350 	mov.w	r3, #80	@ 0x50
 80046f8:	f383 8811 	msr	BASEPRI, r3
 80046fc:	f3bf 8f6f 	isb	sy
 8004700:	f3bf 8f4f 	dsb	sy
 8004704:	e7fe      	b.n	8004704 <xQueueGenericSendFromISR+0x36>
 8004706:	2e02      	cmp	r6, #2
 8004708:	d10b      	bne.n	8004722 <xQueueGenericSendFromISR+0x54>
 800470a:	6be3      	ldr	r3, [r4, #60]	@ 0x3c
 800470c:	2b01      	cmp	r3, #1
 800470e:	d008      	beq.n	8004722 <xQueueGenericSendFromISR+0x54>
 8004710:	f04f 0350 	mov.w	r3, #80	@ 0x50
 8004714:	f383 8811 	msr	BASEPRI, r3
 8004718:	f3bf 8f6f 	isb	sy
 800471c:	f3bf 8f4f 	dsb	sy
 8004720:	e7fe      	b.n	8004720 <xQueueGenericSendFromISR+0x52>
 8004722:	f001 faf7 	bl	8005d14 <vPortValidateInterruptPriority>
 8004726:	f3ef 8811 	mrs	r8, BASEPRI
 800472a:	f04f 0350 	mov.w	r3, #80	@ 0x50
 800472e:	f383 8811 	msr	BASEPRI, r3
 8004732:	f3bf 8f6f 	isb	sy
 8004736:	f3bf 8f4f 	dsb	sy
 800473a:	6ba2      	ldr	r2, [r4, #56]	@ 0x38
 800473c:	6be3      	ldr	r3, [r4, #60]	@ 0x3c
 800473e:	429a      	cmp	r2, r3
 8004740:	d301      	bcc.n	8004746 <xQueueGenericSendFromISR+0x78>
 8004742:	2e02      	cmp	r6, #2
 8004744:	d11e      	bne.n	8004784 <xQueueGenericSendFromISR+0xb6>
 8004746:	f894 5045 	ldrb.w	r5, [r4, #69]	@ 0x45
 800474a:	4632      	mov	r2, r6
 800474c:	4649      	mov	r1, r9
 800474e:	4620      	mov	r0, r4
 8004750:	b26d      	sxtb	r5, r5
 8004752:	6ba3      	ldr	r3, [r4, #56]	@ 0x38
 8004754:	f7ff fd47 	bl	80041e6 <prvCopyDataToQueue>
 8004758:	1c6b      	adds	r3, r5, #1
 800475a:	d10e      	bne.n	800477a <xQueueGenericSendFromISR+0xac>
 800475c:	6a63      	ldr	r3, [r4, #36]	@ 0x24
 800475e:	b13b      	cbz	r3, 8004770 <xQueueGenericSendFromISR+0xa2>
 8004760:	f104 0024 	add.w	r0, r4, #36	@ 0x24
 8004764:	f000 fddc 	bl	8005320 <xTaskRemoveFromEventList>
 8004768:	b110      	cbz	r0, 8004770 <xQueueGenericSendFromISR+0xa2>
 800476a:	b10f      	cbz	r7, 8004770 <xQueueGenericSendFromISR+0xa2>
 800476c:	2301      	movs	r3, #1
 800476e:	603b      	str	r3, [r7, #0]
 8004770:	2001      	movs	r0, #1
 8004772:	f388 8811 	msr	BASEPRI, r8
 8004776:	e8bd 83f8 	ldmia.w	sp!, {r3, r4, r5, r6, r7, r8, r9, pc}
 800477a:	3501      	adds	r5, #1
 800477c:	b26d      	sxtb	r5, r5
 800477e:	f884 5045 	strb.w	r5, [r4, #69]	@ 0x45
 8004782:	e7f5      	b.n	8004770 <xQueueGenericSendFromISR+0xa2>
 8004784:	2000      	movs	r0, #0
 8004786:	e7f4      	b.n	8004772 <xQueueGenericSendFromISR+0xa4>

08004788 <xQueueReceive>:
 8004788:	e92d 41ff 	stmdb	sp!, {r0, r1, r2, r3, r4, r5, r6, r7, r8, lr}
 800478c:	460e      	mov	r6, r1
 800478e:	4604      	mov	r4, r0
 8004790:	9201      	str	r2, [sp, #4]
 8004792:	b940      	cbnz	r0, 80047a6 <xQueueReceive+0x1e>
 8004794:	f04f 0350 	mov.w	r3, #80	@ 0x50
 8004798:	f383 8811 	msr	BASEPRI, r3
 800479c:	f3bf 8f6f 	isb	sy
 80047a0:	f3bf 8f4f 	dsb	sy
 80047a4:	e7fe      	b.n	80047a4 <xQueueReceive+0x1c>
 80047a6:	b951      	cbnz	r1, 80047be <xQueueReceive+0x36>
 80047a8:	6c03      	ldr	r3, [r0, #64]	@ 0x40
 80047aa:	b143      	cbz	r3, 80047be <xQueueReceive+0x36>
 80047ac:	f04f 0350 	mov.w	r3, #80	@ 0x50
 80047b0:	f383 8811 	msr	BASEPRI, r3
 80047b4:	f3bf 8f6f 	isb	sy
 80047b8:	f3bf 8f4f 	dsb	sy
 80047bc:	e7fe      	b.n	80047bc <xQueueReceive+0x34>
 80047be:	f000 fe85 	bl	80054cc <xTaskGetSchedulerState>
 80047c2:	4605      	mov	r5, r0
 80047c4:	b318      	cbz	r0, 800480e <xQueueReceive+0x86>
 80047c6:	2500      	movs	r5, #0
 80047c8:	f04f 0800 	mov.w	r8, #0
 80047cc:	f001 f9ca 	bl	8005b64 <vPortEnterCritical>
 80047d0:	6ba7      	ldr	r7, [r4, #56]	@ 0x38
 80047d2:	b347      	cbz	r7, 8004826 <xQueueReceive+0x9e>
 80047d4:	4631      	mov	r1, r6
 80047d6:	4620      	mov	r0, r4
 80047d8:	3f01      	subs	r7, #1
 80047da:	f7ff fd37 	bl	800424c <prvCopyDataFromQueue>
 80047de:	63a7      	str	r7, [r4, #56]	@ 0x38
 80047e0:	6923      	ldr	r3, [r4, #16]
 80047e2:	b173      	cbz	r3, 8004802 <xQueueReceive+0x7a>
 80047e4:	f104 0010 	add.w	r0, r4, #16
 80047e8:	f000 fd9a 	bl	8005320 <xTaskRemoveFromEventList>
 80047ec:	b148      	cbz	r0, 8004802 <xQueueReceive+0x7a>
 80047ee:	f04f 23e0 	mov.w	r3, #3758153728	@ 0xe000e000
 80047f2:	f04f 5280 	mov.w	r2, #268435456	@ 0x10000000
 80047f6:	f8c3 2d04 	str.w	r2, [r3, #3332]	@ 0xd04
 80047fa:	f3bf 8f4f 	dsb	sy
 80047fe:	f3bf 8f6f 	isb	sy
 8004802:	f001 f9cf 	bl	8005ba4 <vPortExitCritical>
 8004806:	2001      	movs	r0, #1
 8004808:	b004      	add	sp, #16
 800480a:	e8bd 81f0 	ldmia.w	sp!, {r4, r5, r6, r7, r8, pc}
 800480e:	9b01      	ldr	r3, [sp, #4]
 8004810:	2b00      	cmp	r3, #0
 8004812:	d0d9      	beq.n	80047c8 <xQueueReceive+0x40>
 8004814:	f04f 0350 	mov.w	r3, #80	@ 0x50
 8004818:	f383 8811 	msr	BASEPRI, r3
 800481c:	f3bf 8f6f 	isb	sy
 8004820:	f3bf 8f4f 	dsb	sy
 8004824:	e7fe      	b.n	8004824 <xQueueReceive+0x9c>
 8004826:	9b01      	ldr	r3, [sp, #4]
 8004828:	b91b      	cbnz	r3, 8004832 <xQueueReceive+0xaa>
 800482a:	f001 f9bb 	bl	8005ba4 <vPortExitCritical>
 800482e:	2000      	movs	r0, #0
 8004830:	e7ea      	b.n	8004808 <xQueueReceive+0x80>
 8004832:	b915      	cbnz	r5, 800483a <xQueueReceive+0xb2>
 8004834:	a802      	add	r0, sp, #8
 8004836:	f000 fdf5 	bl	8005424 <vTaskInternalSetTimeOutState>
 800483a:	f001 f9b3 	bl	8005ba4 <vPortExitCritical>
 800483e:	f000 fb8f 	bl	8004f60 <vTaskSuspendAll>
 8004842:	f001 f98f 	bl	8005b64 <vPortEnterCritical>
 8004846:	f894 3044 	ldrb.w	r3, [r4, #68]	@ 0x44
 800484a:	2bff      	cmp	r3, #255	@ 0xff
 800484c:	bf08      	it	eq
 800484e:	f884 8044 	strbeq.w	r8, [r4, #68]	@ 0x44
 8004852:	f894 3045 	ldrb.w	r3, [r4, #69]	@ 0x45
 8004856:	2bff      	cmp	r3, #255	@ 0xff
 8004858:	bf08      	it	eq
 800485a:	f884 8045 	strbeq.w	r8, [r4, #69]	@ 0x45
 800485e:	f001 f9a1 	bl	8005ba4 <vPortExitCritical>
 8004862:	a901      	add	r1, sp, #4
 8004864:	a802      	add	r0, sp, #8
 8004866:	f000 fde9 	bl	800543c <xTaskCheckForTimeOut>
 800486a:	bb00      	cbnz	r0, 80048ae <xQueueReceive+0x126>
 800486c:	4620      	mov	r0, r4
 800486e:	f7ff fcaf 	bl	80041d0 <prvIsQueueEmpty>
 8004872:	b1b0      	cbz	r0, 80048a2 <xQueueReceive+0x11a>
 8004874:	9901      	ldr	r1, [sp, #4]
 8004876:	f104 0024 	add.w	r0, r4, #36	@ 0x24
 800487a:	f000 fceb 	bl	8005254 <vTaskPlaceOnEventList>
 800487e:	4620      	mov	r0, r4
 8004880:	f7ff fcf8 	bl	8004274 <prvUnlockQueue>
 8004884:	f000 fc12 	bl	80050ac <xTaskResumeAll>
 8004888:	b948      	cbnz	r0, 800489e <xQueueReceive+0x116>
 800488a:	f04f 23e0 	mov.w	r3, #3758153728	@ 0xe000e000
 800488e:	f04f 5280 	mov.w	r2, #268435456	@ 0x10000000
 8004892:	f8c3 2d04 	str.w	r2, [r3, #3332]	@ 0xd04
 8004896:	f3bf 8f4f 	dsb	sy
 800489a:	f3bf 8f6f 	isb	sy
 800489e:	2501      	movs	r5, #1
 80048a0:	e794      	b.n	80047cc <xQueueReceive+0x44>
 80048a2:	4620      	mov	r0, r4
 80048a4:	f7ff fce6 	bl	8004274 <prvUnlockQueue>
 80048a8:	f000 fc00 	bl	80050ac <xTaskResumeAll>
 80048ac:	e7f7      	b.n	800489e <xQueueReceive+0x116>
 80048ae:	4620      	mov	r0, r4
 80048b0:	f7ff fce0 	bl	8004274 <prvUnlockQueue>
 80048b4:	f000 fbfa 	bl	80050ac <xTaskResumeAll>
 80048b8:	4620      	mov	r0, r4
 80048ba:	f7ff fc89 	bl	80041d0 <prvIsQueueEmpty>
 80048be:	2800      	cmp	r0, #0
 80048c0:	d0ed      	beq.n	800489e <xQueueReceive+0x116>
 80048c2:	e7b4      	b.n	800482e <xQueueReceive+0xa6>

080048c4 <xQueueSemaphoreTake>:
 80048c4:	b5f0      	push	{r4, r5, r6, r7, lr}
 80048c6:	b085      	sub	sp, #20
 80048c8:	4604      	mov	r4, r0
 80048ca:	9101      	str	r1, [sp, #4]
 80048cc:	b940      	cbnz	r0, 80048e0 <xQueueSemaphoreTake+0x1c>
 80048ce:	f04f 0350 	mov.w	r3, #80	@ 0x50
 80048d2:	f383 8811 	msr	BASEPRI, r3
 80048d6:	f3bf 8f6f 	isb	sy
 80048da:	f3bf 8f4f 	dsb	sy
 80048de:	e7fe      	b.n	80048de <xQueueSemaphoreTake+0x1a>
 80048e0:	6c05      	ldr	r5, [r0, #64]	@ 0x40
 80048e2:	b145      	cbz	r5, 80048f6 <xQueueSemaphoreTake+0x32>
 80048e4:	f04f 0350 	mov.w	r3, #80	@ 0x50
 80048e8:	f383 8811 	msr	BASEPRI, r3
 80048ec:	f3bf 8f6f 	isb	sy
 80048f0:	f3bf 8f4f 	dsb	sy
 80048f4:	e7fe      	b.n	80048f4 <xQueueSemaphoreTake+0x30>
 80048f6:	f000 fde9 	bl	80054cc <xTaskGetSchedulerState>
 80048fa:	4606      	mov	r6, r0
 80048fc:	b320      	cbz	r0, 8004948 <xQueueSemaphoreTake+0x84>
 80048fe:	462e      	mov	r6, r5
 8004900:	2700      	movs	r7, #0
 8004902:	f001 f92f 	bl	8005b64 <vPortEnterCritical>
 8004906:	6ba3      	ldr	r3, [r4, #56]	@ 0x38
 8004908:	b353      	cbz	r3, 8004960 <xQueueSemaphoreTake+0x9c>
 800490a:	3b01      	subs	r3, #1
 800490c:	63a3      	str	r3, [r4, #56]	@ 0x38
 800490e:	6823      	ldr	r3, [r4, #0]
 8004910:	b913      	cbnz	r3, 8004918 <xQueueSemaphoreTake+0x54>
 8004912:	f000 fec5 	bl	80056a0 <pvTaskIncrementMutexHeldCount>
 8004916:	60a0      	str	r0, [r4, #8]
 8004918:	6923      	ldr	r3, [r4, #16]
 800491a:	b173      	cbz	r3, 800493a <xQueueSemaphoreTake+0x76>
 800491c:	f104 0010 	add.w	r0, r4, #16
 8004920:	f000 fcfe 	bl	8005320 <xTaskRemoveFromEventList>
 8004924:	b148      	cbz	r0, 800493a <xQueueSemaphoreTake+0x76>
 8004926:	f04f 23e0 	mov.w	r3, #3758153728	@ 0xe000e000
 800492a:	f04f 5280 	mov.w	r2, #268435456	@ 0x10000000
 800492e:	f8c3 2d04 	str.w	r2, [r3, #3332]	@ 0xd04
 8004932:	f3bf 8f4f 	dsb	sy
 8004936:	f3bf 8f6f 	isb	sy
 800493a:	f001 f933 	bl	8005ba4 <vPortExitCritical>
 800493e:	2001      	movs	r0, #1
 8004940:	b005      	add	sp, #20
 8004942:	bdf0      	pop	{r4, r5, r6, r7, pc}
 8004944:	4635      	mov	r5, r6
 8004946:	e7db      	b.n	8004900 <xQueueSemaphoreTake+0x3c>
 8004948:	9b01      	ldr	r3, [sp, #4]
 800494a:	2b00      	cmp	r3, #0
 800494c:	d0fa      	beq.n	8004944 <xQueueSemaphoreTake+0x80>
 800494e:	f04f 0350 	mov.w	r3, #80	@ 0x50
 8004952:	f383 8811 	msr	BASEPRI, r3
 8004956:	f3bf 8f6f 	isb	sy
 800495a:	f3bf 8f4f 	dsb	sy
 800495e:	e7fe      	b.n	800495e <xQueueSemaphoreTake+0x9a>
 8004960:	9b01      	ldr	r3, [sp, #4]
 8004962:	b953      	cbnz	r3, 800497a <xQueueSemaphoreTake+0xb6>
 8004964:	2d00      	cmp	r5, #0
 8004966:	d066      	beq.n	8004a36 <xQueueSemaphoreTake+0x172>
 8004968:	f04f 0350 	mov.w	r3, #80	@ 0x50
 800496c:	f383 8811 	msr	BASEPRI, r3
 8004970:	f3bf 8f6f 	isb	sy
 8004974:	f3bf 8f4f 	dsb	sy
 8004978:	e7fe      	b.n	8004978 <xQueueSemaphoreTake+0xb4>
 800497a:	b916      	cbnz	r6, 8004982 <xQueueSemaphoreTake+0xbe>
 800497c:	a802      	add	r0, sp, #8
 800497e:	f000 fd51 	bl	8005424 <vTaskInternalSetTimeOutState>
 8004982:	f001 f90f 	bl	8005ba4 <vPortExitCritical>
 8004986:	f000 faeb 	bl	8004f60 <vTaskSuspendAll>
 800498a:	f001 f8eb 	bl	8005b64 <vPortEnterCritical>
 800498e:	f894 3044 	ldrb.w	r3, [r4, #68]	@ 0x44
 8004992:	2bff      	cmp	r3, #255	@ 0xff
 8004994:	bf08      	it	eq
 8004996:	f884 7044 	strbeq.w	r7, [r4, #68]	@ 0x44
 800499a:	f894 3045 	ldrb.w	r3, [r4, #69]	@ 0x45
 800499e:	2bff      	cmp	r3, #255	@ 0xff
 80049a0:	bf08      	it	eq
 80049a2:	f884 7045 	strbeq.w	r7, [r4, #69]	@ 0x45
 80049a6:	f001 f8fd 	bl	8005ba4 <vPortExitCritical>
 80049aa:	a901      	add	r1, sp, #4
 80049ac:	a802      	add	r0, sp, #8
 80049ae:	f000 fd45 	bl	800543c <xTaskCheckForTimeOut>
 80049b2:	bb50      	cbnz	r0, 8004a0a <xQueueSemaphoreTake+0x146>
 80049b4:	4620      	mov	r0, r4
 80049b6:	f7ff fc0b 	bl	80041d0 <prvIsQueueEmpty>
 80049ba:	b300      	cbz	r0, 80049fe <xQueueSemaphoreTake+0x13a>
 80049bc:	6823      	ldr	r3, [r4, #0]
 80049be:	b93b      	cbnz	r3, 80049d0 <xQueueSemaphoreTake+0x10c>
 80049c0:	f001 f8d0 	bl	8005b64 <vPortEnterCritical>
 80049c4:	68a0      	ldr	r0, [r4, #8]
 80049c6:	f000 fd91 	bl	80054ec <xTaskPriorityInherit>
 80049ca:	4605      	mov	r5, r0
 80049cc:	f001 f8ea 	bl	8005ba4 <vPortExitCritical>
 80049d0:	9901      	ldr	r1, [sp, #4]
 80049d2:	f104 0024 	add.w	r0, r4, #36	@ 0x24
 80049d6:	f000 fc3d 	bl	8005254 <vTaskPlaceOnEventList>
 80049da:	4620      	mov	r0, r4
 80049dc:	f7ff fc4a 	bl	8004274 <prvUnlockQueue>
 80049e0:	f000 fb64 	bl	80050ac <xTaskResumeAll>
 80049e4:	b948      	cbnz	r0, 80049fa <xQueueSemaphoreTake+0x136>
 80049e6:	f04f 23e0 	mov.w	r3, #3758153728	@ 0xe000e000
 80049ea:	f04f 5280 	mov.w	r2, #268435456	@ 0x10000000
 80049ee:	f8c3 2d04 	str.w	r2, [r3, #3332]	@ 0xd04
 80049f2:	f3bf 8f4f 	dsb	sy
 80049f6:	f3bf 8f6f 	isb	sy
 80049fa:	2601      	movs	r6, #1
 80049fc:	e781      	b.n	8004902 <xQueueSemaphoreTake+0x3e>
 80049fe:	4620      	mov	r0, r4
 8004a00:	f7ff fc38 	bl	8004274 <prvUnlockQueue>
 8004a04:	f000 fb52 	bl	80050ac <xTaskResumeAll>
 8004a08:	e7f7      	b.n	80049fa <xQueueSemaphoreTake+0x136>
 8004a0a:	4620      	mov	r0, r4
 8004a0c:	f7ff fc32 	bl	8004274 <prvUnlockQueue>
 8004a10:	f000 fb4c 	bl	80050ac <xTaskResumeAll>
 8004a14:	4620      	mov	r0, r4
 8004a16:	f7ff fbdb 	bl	80041d0 <prvIsQueueEmpty>
 8004a1a:	2800      	cmp	r0, #0
 8004a1c:	d0ed      	beq.n	80049fa <xQueueSemaphoreTake+0x136>
 8004a1e:	b165      	cbz	r5, 8004a3a <xQueueSemaphoreTake+0x176>
 8004a20:	f001 f8a0 	bl	8005b64 <vPortEnterCritical>
 8004a24:	6a61      	ldr	r1, [r4, #36]	@ 0x24
 8004a26:	b119      	cbz	r1, 8004a30 <xQueueSemaphoreTake+0x16c>
 8004a28:	6b23      	ldr	r3, [r4, #48]	@ 0x30
 8004a2a:	6819      	ldr	r1, [r3, #0]
 8004a2c:	f1c1 0138 	rsb	r1, r1, #56	@ 0x38
 8004a30:	68a0      	ldr	r0, [r4, #8]
 8004a32:	f000 fddb 	bl	80055ec <vTaskPriorityDisinheritAfterTimeout>
 8004a36:	f001 f8b5 	bl	8005ba4 <vPortExitCritical>
 8004a3a:	2000      	movs	r0, #0
 8004a3c:	e780      	b.n	8004940 <xQueueSemaphoreTake+0x7c>

08004a3e <xQueueTakeMutexRecursive>:
 8004a3e:	b570      	push	{r4, r5, r6, lr}
 8004a40:	460d      	mov	r5, r1
 8004a42:	4604      	mov	r4, r0
 8004a44:	b940      	cbnz	r0, 8004a58 <xQueueTakeMutexRecursive+0x1a>
 8004a46:	f04f 0350 	mov.w	r3, #80	@ 0x50
 8004a4a:	f383 8811 	msr	BASEPRI, r3
 8004a4e:	f3bf 8f6f 	isb	sy
 8004a52:	f3bf 8f4f 	dsb	sy
 8004a56:	e7fe      	b.n	8004a56 <xQueueTakeMutexRecursive+0x18>
 8004a58:	6886      	ldr	r6, [r0, #8]
 8004a5a:	f000 fd31 	bl	80054c0 <xTaskGetCurrentTaskHandle>
 8004a5e:	4286      	cmp	r6, r0
 8004a60:	d104      	bne.n	8004a6c <xQueueTakeMutexRecursive+0x2e>
 8004a62:	2001      	movs	r0, #1
 8004a64:	68e3      	ldr	r3, [r4, #12]
 8004a66:	3301      	adds	r3, #1
 8004a68:	60e3      	str	r3, [r4, #12]
 8004a6a:	bd70      	pop	{r4, r5, r6, pc}
 8004a6c:	4629      	mov	r1, r5
 8004a6e:	4620      	mov	r0, r4
 8004a70:	f7ff ff28 	bl	80048c4 <xQueueSemaphoreTake>
 8004a74:	2800      	cmp	r0, #0
 8004a76:	d0f8      	beq.n	8004a6a <xQueueTakeMutexRecursive+0x2c>
 8004a78:	68e3      	ldr	r3, [r4, #12]
 8004a7a:	3301      	adds	r3, #1
 8004a7c:	60e3      	str	r3, [r4, #12]
 8004a7e:	e7f4      	b.n	8004a6a <xQueueTakeMutexRecursive+0x2c>

08004a80 <vQueueAddToRegistry>:
 8004a80:	2300      	movs	r3, #0
 8004a82:	b530      	push	{r4, r5, lr}
 8004a84:	4a06      	ldr	r2, [pc, #24]	@ (8004aa0 <vQueueAddToRegistry+0x20>)
 8004a86:	f852 5033 	ldr.w	r5, [r2, r3, lsl #3]
 8004a8a:	eb02 04c3 	add.w	r4, r2, r3, lsl #3
 8004a8e:	b91d      	cbnz	r5, 8004a98 <vQueueAddToRegistry+0x18>
 8004a90:	f842 1033 	str.w	r1, [r2, r3, lsl #3]
 8004a94:	6060      	str	r0, [r4, #4]
 8004a96:	bd30      	pop	{r4, r5, pc}
 8004a98:	3301      	adds	r3, #1
 8004a9a:	2b08      	cmp	r3, #8
 8004a9c:	d1f3      	bne.n	8004a86 <vQueueAddToRegistry+0x6>
 8004a9e:	e7fa      	b.n	8004a96 <vQueueAddToRegistry+0x16>
 8004aa0:	20000f84 	.word	0x20000f84

08004aa4 <vQueueUnregisterQueue>:
 8004aa4:	2300      	movs	r3, #0
 8004aa6:	b510      	push	{r4, lr}
 8004aa8:	4a08      	ldr	r2, [pc, #32]	@ (8004acc <vQueueUnregisterQueue+0x28>)
 8004aaa:	f852 1033 	ldr.w	r1, [r2, r3, lsl #3]
 8004aae:	00dc      	lsls	r4, r3, #3
 8004ab0:	4281      	cmp	r1, r0
 8004ab2:	d106      	bne.n	8004ac2 <vQueueUnregisterQueue+0x1e>
 8004ab4:	2100      	movs	r1, #0
 8004ab6:	4a06      	ldr	r2, [pc, #24]	@ (8004ad0 <vQueueUnregisterQueue+0x2c>)
 8004ab8:	f842 1033 	str.w	r1, [r2, r3, lsl #3]
 8004abc:	4422      	add	r2, r4
 8004abe:	6051      	str	r1, [r2, #4]
 8004ac0:	bd10      	pop	{r4, pc}
 8004ac2:	3301      	adds	r3, #1
 8004ac4:	2b08      	cmp	r3, #8
 8004ac6:	d1f0      	bne.n	8004aaa <vQueueUnregisterQueue+0x6>
 8004ac8:	e7fa      	b.n	8004ac0 <vQueueUnregisterQueue+0x1c>
 8004aca:	bf00      	nop
 8004acc:	20000f88 	.word	0x20000f88
 8004ad0:	20000f84 	.word	0x20000f84

08004ad4 <vQueueDelete>:
 8004ad4:	b510      	push	{r4, lr}
 8004ad6:	b940      	cbnz	r0, 8004aea <vQueueDelete+0x16>
 8004ad8:	f04f 0350 	mov.w	r3, #80	@ 0x50
 8004adc:	f383 8811 	msr	BASEPRI, r3
 8004ae0:	f3bf 8f6f 	isb	sy
 8004ae4:	f3bf 8f4f 	dsb	sy
 8004ae8:	e7fe      	b.n	8004ae8 <vQueueDelete+0x14>
 8004aea:	f7ff ffdb 	bl	8004aa4 <vQueueUnregisterQueue>
 8004aee:	f890 3046 	ldrb.w	r3, [r0, #70]	@ 0x46
 8004af2:	b91b      	cbnz	r3, 8004afc <vQueueDelete+0x28>
 8004af4:	e8bd 4010 	ldmia.w	sp!, {r4, lr}
 8004af8:	f001 b9f8 	b.w	8005eec <vPortFree>
 8004afc:	bd10      	pop	{r4, pc}

08004afe <vQueueWaitForMessageRestricted>:
 8004afe:	b570      	push	{r4, r5, r6, lr}
 8004b00:	4604      	mov	r4, r0
 8004b02:	460d      	mov	r5, r1
 8004b04:	4616      	mov	r6, r2
 8004b06:	f001 f82d 	bl	8005b64 <vPortEnterCritical>
 8004b0a:	f894 3044 	ldrb.w	r3, [r4, #68]	@ 0x44
 8004b0e:	2bff      	cmp	r3, #255	@ 0xff
 8004b10:	bf04      	itt	eq
 8004b12:	2300      	moveq	r3, #0
 8004b14:	f884 3044 	strbeq.w	r3, [r4, #68]	@ 0x44
 8004b18:	f894 3045 	ldrb.w	r3, [r4, #69]	@ 0x45
 8004b1c:	2bff      	cmp	r3, #255	@ 0xff
 8004b1e:	bf04      	itt	eq
 8004b20:	2300      	moveq	r3, #0
 8004b22:	f884 3045 	strbeq.w	r3, [r4, #69]	@ 0x45
 8004b26:	f001 f83d 	bl	8005ba4 <vPortExitCritical>
 8004b2a:	6ba3      	ldr	r3, [r4, #56]	@ 0x38
 8004b2c:	b92b      	cbnz	r3, 8004b3a <vQueueWaitForMessageRestricted+0x3c>
 8004b2e:	4632      	mov	r2, r6
 8004b30:	4629      	mov	r1, r5
 8004b32:	f104 0024 	add.w	r0, r4, #36	@ 0x24
 8004b36:	f000 fbd3 	bl	80052e0 <vTaskPlaceOnEventListRestricted>
 8004b3a:	4620      	mov	r0, r4
 8004b3c:	e8bd 4070 	ldmia.w	sp!, {r4, r5, r6, lr}
 8004b40:	f7ff bb98 	b.w	8004274 <prvUnlockQueue>

08004b44 <prvAddNewTaskToReadyList>:
 8004b44:	e92d 41f0 	stmdb	sp!, {r4, r5, r6, r7, r8, lr}
 8004b48:	4604      	mov	r4, r0
 8004b4a:	f001 f80b 	bl	8005b64 <vPortEnterCritical>
 8004b4e:	4b30      	ldr	r3, [pc, #192]	@ (8004c10 <prvAddNewTaskToReadyList+0xcc>)
 8004b50:	4e30      	ldr	r6, [pc, #192]	@ (8004c14 <prvAddNewTaskToReadyList+0xd0>)
 8004b52:	681a      	ldr	r2, [r3, #0]
 8004b54:	4f30      	ldr	r7, [pc, #192]	@ (8004c18 <prvAddNewTaskToReadyList+0xd4>)
 8004b56:	3201      	adds	r2, #1
 8004b58:	601a      	str	r2, [r3, #0]
 8004b5a:	6835      	ldr	r5, [r6, #0]
 8004b5c:	2d00      	cmp	r5, #0
 8004b5e:	d14b      	bne.n	8004bf8 <prvAddNewTaskToReadyList+0xb4>
 8004b60:	6034      	str	r4, [r6, #0]
 8004b62:	681b      	ldr	r3, [r3, #0]
 8004b64:	2b01      	cmp	r3, #1
 8004b66:	d11f      	bne.n	8004ba8 <prvAddNewTaskToReadyList+0x64>
 8004b68:	46b8      	mov	r8, r7
 8004b6a:	4640      	mov	r0, r8
 8004b6c:	3501      	adds	r5, #1
 8004b6e:	f7ff faef 	bl	8004150 <vListInitialise>
 8004b72:	2d38      	cmp	r5, #56	@ 0x38
 8004b74:	f108 0814 	add.w	r8, r8, #20
 8004b78:	d1f7      	bne.n	8004b6a <prvAddNewTaskToReadyList+0x26>
 8004b7a:	f8df 80a0 	ldr.w	r8, [pc, #160]	@ 8004c1c <prvAddNewTaskToReadyList+0xd8>
 8004b7e:	4d28      	ldr	r5, [pc, #160]	@ (8004c20 <prvAddNewTaskToReadyList+0xdc>)
 8004b80:	4640      	mov	r0, r8
 8004b82:	f7ff fae5 	bl	8004150 <vListInitialise>
 8004b86:	4628      	mov	r0, r5
 8004b88:	f7ff fae2 	bl	8004150 <vListInitialise>
 8004b8c:	4825      	ldr	r0, [pc, #148]	@ (8004c24 <prvAddNewTaskToReadyList+0xe0>)
 8004b8e:	f7ff fadf 	bl	8004150 <vListInitialise>
 8004b92:	4825      	ldr	r0, [pc, #148]	@ (8004c28 <prvAddNewTaskToReadyList+0xe4>)
 8004b94:	f7ff fadc 	bl	8004150 <vListInitialise>
 8004b98:	4824      	ldr	r0, [pc, #144]	@ (8004c2c <prvAddNewTaskToReadyList+0xe8>)
 8004b9a:	f7ff fad9 	bl	8004150 <vListInitialise>
 8004b9e:	4b24      	ldr	r3, [pc, #144]	@ (8004c30 <prvAddNewTaskToReadyList+0xec>)
 8004ba0:	f8c3 8000 	str.w	r8, [r3]
 8004ba4:	4b23      	ldr	r3, [pc, #140]	@ (8004c34 <prvAddNewTaskToReadyList+0xf0>)
 8004ba6:	601d      	str	r5, [r3, #0]
 8004ba8:	2014      	movs	r0, #20
 8004baa:	4a23      	ldr	r2, [pc, #140]	@ (8004c38 <prvAddNewTaskToReadyList+0xf4>)
 8004bac:	6813      	ldr	r3, [r2, #0]
 8004bae:	3301      	adds	r3, #1
 8004bb0:	6013      	str	r3, [r2, #0]
 8004bb2:	4a22      	ldr	r2, [pc, #136]	@ (8004c3c <prvAddNewTaskToReadyList+0xf8>)
 8004bb4:	6463      	str	r3, [r4, #68]	@ 0x44
 8004bb6:	6811      	ldr	r1, [r2, #0]
 8004bb8:	6ae3      	ldr	r3, [r4, #44]	@ 0x2c
 8004bba:	428b      	cmp	r3, r1
 8004bbc:	fb00 7003 	mla	r0, r0, r3, r7
 8004bc0:	f104 0104 	add.w	r1, r4, #4
 8004bc4:	bf88      	it	hi
 8004bc6:	6013      	strhi	r3, [r2, #0]
 8004bc8:	f7ff fad0 	bl	800416c <vListInsertEnd>
 8004bcc:	f000 ffea 	bl	8005ba4 <vPortExitCritical>
 8004bd0:	4b1b      	ldr	r3, [pc, #108]	@ (8004c40 <prvAddNewTaskToReadyList+0xfc>)
 8004bd2:	681b      	ldr	r3, [r3, #0]
 8004bd4:	b173      	cbz	r3, 8004bf4 <prvAddNewTaskToReadyList+0xb0>
 8004bd6:	6833      	ldr	r3, [r6, #0]
 8004bd8:	6ada      	ldr	r2, [r3, #44]	@ 0x2c
 8004bda:	6ae3      	ldr	r3, [r4, #44]	@ 0x2c
 8004bdc:	429a      	cmp	r2, r3
 8004bde:	d209      	bcs.n	8004bf4 <prvAddNewTaskToReadyList+0xb0>
 8004be0:	f04f 23e0 	mov.w	r3, #3758153728	@ 0xe000e000
 8004be4:	f04f 5280 	mov.w	r2, #268435456	@ 0x10000000
 8004be8:	f8c3 2d04 	str.w	r2, [r3, #3332]	@ 0xd04
 8004bec:	f3bf 8f4f 	dsb	sy
 8004bf0:	f3bf 8f6f 	isb	sy
 8004bf4:	e8bd 81f0 	ldmia.w	sp!, {r4, r5, r6, r7, r8, pc}
 8004bf8:	4b11      	ldr	r3, [pc, #68]	@ (8004c40 <prvAddNewTaskToReadyList+0xfc>)
 8004bfa:	681a      	ldr	r2, [r3, #0]
 8004bfc:	6ae3      	ldr	r3, [r4, #44]	@ 0x2c
 8004bfe:	2a00      	cmp	r2, #0
 8004c00:	d1d2      	bne.n	8004ba8 <prvAddNewTaskToReadyList+0x64>
 8004c02:	6832      	ldr	r2, [r6, #0]
 8004c04:	6ad2      	ldr	r2, [r2, #44]	@ 0x2c
 8004c06:	429a      	cmp	r2, r3
 8004c08:	bf98      	it	ls
 8004c0a:	6034      	strls	r4, [r6, #0]
 8004c0c:	e7cc      	b.n	8004ba8 <prvAddNewTaskToReadyList+0x64>
 8004c0e:	bf00      	nop
 8004c10:	20000fe8 	.word	0x20000fe8
 8004c14:	200014bc 	.word	0x200014bc
 8004c18:	2000105c 	.word	0x2000105c
 8004c1c:	20001048 	.word	0x20001048
 8004c20:	20001034 	.word	0x20001034
 8004c24:	20001018 	.word	0x20001018
 8004c28:	20001004 	.word	0x20001004
 8004c2c:	20000fec 	.word	0x20000fec
 8004c30:	20001030 	.word	0x20001030
 8004c34:	2000102c 	.word	0x2000102c
 8004c38:	20000fcc 	.word	0x20000fcc
 8004c3c:	20000fe0 	.word	0x20000fe0
 8004c40:	20000fdc 	.word	0x20000fdc

08004c44 <prvAddCurrentTaskToDelayedList>:
 8004c44:	b5f8      	push	{r3, r4, r5, r6, r7, lr}
 8004c46:	4606      	mov	r6, r0
 8004c48:	4b14      	ldr	r3, [pc, #80]	@ (8004c9c <prvAddCurrentTaskToDelayedList+0x58>)
 8004c4a:	4d15      	ldr	r5, [pc, #84]	@ (8004ca0 <prvAddCurrentTaskToDelayedList+0x5c>)
 8004c4c:	681c      	ldr	r4, [r3, #0]
 8004c4e:	6828      	ldr	r0, [r5, #0]
 8004c50:	460f      	mov	r7, r1
 8004c52:	3004      	adds	r0, #4
 8004c54:	f7ff faac 	bl	80041b0 <uxListRemove>
 8004c58:	1c73      	adds	r3, r6, #1
 8004c5a:	d107      	bne.n	8004c6c <prvAddCurrentTaskToDelayedList+0x28>
 8004c5c:	b137      	cbz	r7, 8004c6c <prvAddCurrentTaskToDelayedList+0x28>
 8004c5e:	6829      	ldr	r1, [r5, #0]
 8004c60:	4810      	ldr	r0, [pc, #64]	@ (8004ca4 <prvAddCurrentTaskToDelayedList+0x60>)
 8004c62:	3104      	adds	r1, #4
 8004c64:	e8bd 40f8 	ldmia.w	sp!, {r3, r4, r5, r6, r7, lr}
 8004c68:	f7ff ba80 	b.w	800416c <vListInsertEnd>
 8004c6c:	682b      	ldr	r3, [r5, #0]
 8004c6e:	19a4      	adds	r4, r4, r6
 8004c70:	605c      	str	r4, [r3, #4]
 8004c72:	d307      	bcc.n	8004c84 <prvAddCurrentTaskToDelayedList+0x40>
 8004c74:	4b0c      	ldr	r3, [pc, #48]	@ (8004ca8 <prvAddCurrentTaskToDelayedList+0x64>)
 8004c76:	6818      	ldr	r0, [r3, #0]
 8004c78:	6829      	ldr	r1, [r5, #0]
 8004c7a:	e8bd 40f8 	ldmia.w	sp!, {r3, r4, r5, r6, r7, lr}
 8004c7e:	3104      	adds	r1, #4
 8004c80:	f7ff ba7f 	b.w	8004182 <vListInsert>
 8004c84:	4b09      	ldr	r3, [pc, #36]	@ (8004cac <prvAddCurrentTaskToDelayedList+0x68>)
 8004c86:	6818      	ldr	r0, [r3, #0]
 8004c88:	6829      	ldr	r1, [r5, #0]
 8004c8a:	3104      	adds	r1, #4
 8004c8c:	f7ff fa79 	bl	8004182 <vListInsert>
 8004c90:	4b07      	ldr	r3, [pc, #28]	@ (8004cb0 <prvAddCurrentTaskToDelayedList+0x6c>)
 8004c92:	681a      	ldr	r2, [r3, #0]
 8004c94:	42a2      	cmp	r2, r4
 8004c96:	bf88      	it	hi
 8004c98:	601c      	strhi	r4, [r3, #0]
 8004c9a:	bdf8      	pop	{r3, r4, r5, r6, r7, pc}
 8004c9c:	20000fe4 	.word	0x20000fe4
 8004ca0:	200014bc 	.word	0x200014bc
 8004ca4:	20000fec 	.word	0x20000fec
 8004ca8:	2000102c 	.word	0x2000102c
 8004cac:	20001030 	.word	0x20001030
 8004cb0:	20000fc8 	.word	0x20000fc8

08004cb4 <prvResetNextTaskUnblockTime>:
 8004cb4:	4a06      	ldr	r2, [pc, #24]	@ (8004cd0 <prvResetNextTaskUnblockTime+0x1c>)
 8004cb6:	6813      	ldr	r3, [r2, #0]
 8004cb8:	6819      	ldr	r1, [r3, #0]
 8004cba:	4b06      	ldr	r3, [pc, #24]	@ (8004cd4 <prvResetNextTaskUnblockTime+0x20>)
 8004cbc:	b919      	cbnz	r1, 8004cc6 <prvResetNextTaskUnblockTime+0x12>
 8004cbe:	f04f 32ff 	mov.w	r2, #4294967295
 8004cc2:	601a      	str	r2, [r3, #0]
 8004cc4:	4770      	bx	lr
 8004cc6:	6812      	ldr	r2, [r2, #0]
 8004cc8:	68d2      	ldr	r2, [r2, #12]
 8004cca:	68d2      	ldr	r2, [r2, #12]
 8004ccc:	6852      	ldr	r2, [r2, #4]
 8004cce:	e7f8      	b.n	8004cc2 <prvResetNextTaskUnblockTime+0xe>
 8004cd0:	20001030 	.word	0x20001030
 8004cd4:	20000fc8 	.word	0x20000fc8

08004cd8 <prvDeleteTCB>:
 8004cd8:	b510      	push	{r4, lr}
 8004cda:	f890 3059 	ldrb.w	r3, [r0, #89]	@ 0x59
 8004cde:	4604      	mov	r4, r0
 8004ce0:	b93b      	cbnz	r3, 8004cf2 <prvDeleteTCB+0x1a>
 8004ce2:	6b00      	ldr	r0, [r0, #48]	@ 0x30
 8004ce4:	f001 f902 	bl	8005eec <vPortFree>
 8004ce8:	4620      	mov	r0, r4
 8004cea:	e8bd 4010 	ldmia.w	sp!, {r4, lr}
 8004cee:	f001 b8fd 	b.w	8005eec <vPortFree>
 8004cf2:	2b01      	cmp	r3, #1
 8004cf4:	d0f9      	beq.n	8004cea <prvDeleteTCB+0x12>
 8004cf6:	2b02      	cmp	r3, #2
 8004cf8:	d008      	beq.n	8004d0c <prvDeleteTCB+0x34>
 8004cfa:	f04f 0350 	mov.w	r3, #80	@ 0x50
 8004cfe:	f383 8811 	msr	BASEPRI, r3
 8004d02:	f3bf 8f6f 	isb	sy
 8004d06:	f3bf 8f4f 	dsb	sy
 8004d0a:	e7fe      	b.n	8004d0a <prvDeleteTCB+0x32>
 8004d0c:	bd10      	pop	{r4, pc}
	...

08004d10 <prvIdleTask>:
 8004d10:	b580      	push	{r7, lr}
 8004d12:	4c13      	ldr	r4, [pc, #76]	@ (8004d60 <prvIdleTask+0x50>)
 8004d14:	4f13      	ldr	r7, [pc, #76]	@ (8004d64 <prvIdleTask+0x54>)
 8004d16:	4d14      	ldr	r5, [pc, #80]	@ (8004d68 <prvIdleTask+0x58>)
 8004d18:	6823      	ldr	r3, [r4, #0]
 8004d1a:	b973      	cbnz	r3, 8004d3a <prvIdleTask+0x2a>
 8004d1c:	4b13      	ldr	r3, [pc, #76]	@ (8004d6c <prvIdleTask+0x5c>)
 8004d1e:	681b      	ldr	r3, [r3, #0]
 8004d20:	2b01      	cmp	r3, #1
 8004d22:	d9f8      	bls.n	8004d16 <prvIdleTask+0x6>
 8004d24:	f04f 23e0 	mov.w	r3, #3758153728	@ 0xe000e000
 8004d28:	f04f 5280 	mov.w	r2, #268435456	@ 0x10000000
 8004d2c:	f8c3 2d04 	str.w	r2, [r3, #3332]	@ 0xd04
 8004d30:	f3bf 8f4f 	dsb	sy
 8004d34:	f3bf 8f6f 	isb	sy
 8004d38:	e7ed      	b.n	8004d16 <prvIdleTask+0x6>
 8004d3a:	f000 ff13 	bl	8005b64 <vPortEnterCritical>
 8004d3e:	68fb      	ldr	r3, [r7, #12]
 8004d40:	68de      	ldr	r6, [r3, #12]
 8004d42:	1d30      	adds	r0, r6, #4
 8004d44:	f7ff fa34 	bl	80041b0 <uxListRemove>
 8004d48:	682b      	ldr	r3, [r5, #0]
 8004d4a:	3b01      	subs	r3, #1
 8004d4c:	602b      	str	r3, [r5, #0]
 8004d4e:	6823      	ldr	r3, [r4, #0]
 8004d50:	3b01      	subs	r3, #1
 8004d52:	6023      	str	r3, [r4, #0]
 8004d54:	f000 ff26 	bl	8005ba4 <vPortExitCritical>
 8004d58:	4630      	mov	r0, r6
 8004d5a:	f7ff ffbd 	bl	8004cd8 <prvDeleteTCB>
 8004d5e:	e7db      	b.n	8004d18 <prvIdleTask+0x8>
 8004d60:	20001000 	.word	0x20001000
 8004d64:	20001004 	.word	0x20001004
 8004d68:	20000fe8 	.word	0x20000fe8
 8004d6c:	2000105c 	.word	0x2000105c

08004d70 <prvInitialiseNewTask.constprop.0>:
 8004d70:	e92d 47f0 	stmdb	sp!, {r4, r5, r6, r7, r8, r9, sl, lr}
 8004d74:	460d      	mov	r5, r1
 8004d76:	e9dd 9409 	ldrd	r9, r4, [sp, #36]	@ 0x24
 8004d7a:	0096      	lsls	r6, r2, #2
 8004d7c:	4632      	mov	r2, r6
 8004d7e:	4607      	mov	r7, r0
 8004d80:	21a5      	movs	r1, #165	@ 0xa5
 8004d82:	6b20      	ldr	r0, [r4, #48]	@ 0x30
 8004d84:	4698      	mov	r8, r3
 8004d86:	f001 fe9b 	bl	8006ac0 <memset>
 8004d8a:	6b23      	ldr	r3, [r4, #48]	@ 0x30
 8004d8c:	3e04      	subs	r6, #4
 8004d8e:	441e      	add	r6, r3
 8004d90:	f026 0607 	bic.w	r6, r6, #7
 8004d94:	b3a5      	cbz	r5, 8004e00 <prvInitialiseNewTask.constprop.0+0x90>
 8004d96:	1e6b      	subs	r3, r5, #1
 8004d98:	f104 0233 	add.w	r2, r4, #51	@ 0x33
 8004d9c:	350f      	adds	r5, #15
 8004d9e:	f813 1f01 	ldrb.w	r1, [r3, #1]!
 8004da2:	f802 1f01 	strb.w	r1, [r2, #1]!
 8004da6:	b109      	cbz	r1, 8004dac <prvInitialiseNewTask.constprop.0+0x3c>
 8004da8:	42ab      	cmp	r3, r5
 8004daa:	d1f8      	bne.n	8004d9e <prvInitialiseNewTask.constprop.0+0x2e>
 8004dac:	2300      	movs	r3, #0
 8004dae:	f884 3043 	strb.w	r3, [r4, #67]	@ 0x43
 8004db2:	9d08      	ldr	r5, [sp, #32]
 8004db4:	f04f 0a00 	mov.w	sl, #0
 8004db8:	2d37      	cmp	r5, #55	@ 0x37
 8004dba:	bf28      	it	cs
 8004dbc:	2537      	movcs	r5, #55	@ 0x37
 8004dbe:	1d20      	adds	r0, r4, #4
 8004dc0:	62e5      	str	r5, [r4, #44]	@ 0x2c
 8004dc2:	64e5      	str	r5, [r4, #76]	@ 0x4c
 8004dc4:	f8c4 a050 	str.w	sl, [r4, #80]	@ 0x50
 8004dc8:	f7ff f9cd 	bl	8004166 <vListInitialiseItem>
 8004dcc:	f1c5 0538 	rsb	r5, r5, #56	@ 0x38
 8004dd0:	f104 0018 	add.w	r0, r4, #24
 8004dd4:	f7ff f9c7 	bl	8004166 <vListInitialiseItem>
 8004dd8:	f8c4 a054 	str.w	sl, [r4, #84]	@ 0x54
 8004ddc:	4642      	mov	r2, r8
 8004dde:	4639      	mov	r1, r7
 8004de0:	4630      	mov	r0, r6
 8004de2:	6124      	str	r4, [r4, #16]
 8004de4:	61a5      	str	r5, [r4, #24]
 8004de6:	6264      	str	r4, [r4, #36]	@ 0x24
 8004de8:	f884 a058 	strb.w	sl, [r4, #88]	@ 0x58
 8004dec:	f000 fe90 	bl	8005b10 <pxPortInitialiseStack>
 8004df0:	6020      	str	r0, [r4, #0]
 8004df2:	f1b9 0f00 	cmp.w	r9, #0
 8004df6:	d001      	beq.n	8004dfc <prvInitialiseNewTask.constprop.0+0x8c>
 8004df8:	f8c9 4000 	str.w	r4, [r9]
 8004dfc:	e8bd 87f0 	ldmia.w	sp!, {r4, r5, r6, r7, r8, r9, sl, pc}
 8004e00:	f884 5034 	strb.w	r5, [r4, #52]	@ 0x34
 8004e04:	e7d5      	b.n	8004db2 <prvInitialiseNewTask.constprop.0+0x42>

08004e06 <xTaskCreateStatic>:
 8004e06:	b570      	push	{r4, r5, r6, lr}
 8004e08:	b086      	sub	sp, #24
 8004e0a:	e9dd 540b 	ldrd	r5, r4, [sp, #44]	@ 0x2c
 8004e0e:	b945      	cbnz	r5, 8004e22 <xTaskCreateStatic+0x1c>
 8004e10:	f04f 0350 	mov.w	r3, #80	@ 0x50
 8004e14:	f383 8811 	msr	BASEPRI, r3
 8004e18:	f3bf 8f6f 	isb	sy
 8004e1c:	f3bf 8f4f 	dsb	sy
 8004e20:	e7fe      	b.n	8004e20 <xTaskCreateStatic+0x1a>
 8004e22:	b944      	cbnz	r4, 8004e36 <xTaskCreateStatic+0x30>
 8004e24:	f04f 0350 	mov.w	r3, #80	@ 0x50
 8004e28:	f383 8811 	msr	BASEPRI, r3
 8004e2c:	f3bf 8f6f 	isb	sy
 8004e30:	f3bf 8f4f 	dsb	sy
 8004e34:	e7fe      	b.n	8004e34 <xTaskCreateStatic+0x2e>
 8004e36:	265c      	movs	r6, #92	@ 0x5c
 8004e38:	9605      	str	r6, [sp, #20]
 8004e3a:	9e05      	ldr	r6, [sp, #20]
 8004e3c:	2e5c      	cmp	r6, #92	@ 0x5c
 8004e3e:	d008      	beq.n	8004e52 <xTaskCreateStatic+0x4c>
 8004e40:	f04f 0350 	mov.w	r3, #80	@ 0x50
 8004e44:	f383 8811 	msr	BASEPRI, r3
 8004e48:	f3bf 8f6f 	isb	sy
 8004e4c:	f3bf 8f4f 	dsb	sy
 8004e50:	e7fe      	b.n	8004e50 <xTaskCreateStatic+0x4a>
 8004e52:	6325      	str	r5, [r4, #48]	@ 0x30
 8004e54:	2502      	movs	r5, #2
 8004e56:	f884 5059 	strb.w	r5, [r4, #89]	@ 0x59
 8004e5a:	ad04      	add	r5, sp, #16
 8004e5c:	9501      	str	r5, [sp, #4]
 8004e5e:	9d0a      	ldr	r5, [sp, #40]	@ 0x28
 8004e60:	9402      	str	r4, [sp, #8]
 8004e62:	9500      	str	r5, [sp, #0]
 8004e64:	9e05      	ldr	r6, [sp, #20]
 8004e66:	f7ff ff83 	bl	8004d70 <prvInitialiseNewTask.constprop.0>
 8004e6a:	4620      	mov	r0, r4
 8004e6c:	f7ff fe6a 	bl	8004b44 <prvAddNewTaskToReadyList>
 8004e70:	9804      	ldr	r0, [sp, #16]
 8004e72:	b006      	add	sp, #24
 8004e74:	bd70      	pop	{r4, r5, r6, pc}

08004e76 <xTaskCreate>:
 8004e76:	e92d 43f0 	stmdb	sp!, {r4, r5, r6, r7, r8, r9, lr}
 8004e7a:	4607      	mov	r7, r0
 8004e7c:	b085      	sub	sp, #20
 8004e7e:	0090      	lsls	r0, r2, #2
 8004e80:	4688      	mov	r8, r1
 8004e82:	4616      	mov	r6, r2
 8004e84:	4699      	mov	r9, r3
 8004e86:	f000 ff99 	bl	8005dbc <pvPortMalloc>
 8004e8a:	4605      	mov	r5, r0
 8004e8c:	b920      	cbnz	r0, 8004e98 <xTaskCreate+0x22>
 8004e8e:	f04f 30ff 	mov.w	r0, #4294967295
 8004e92:	b005      	add	sp, #20
 8004e94:	e8bd 83f0 	ldmia.w	sp!, {r4, r5, r6, r7, r8, r9, pc}
 8004e98:	205c      	movs	r0, #92	@ 0x5c
 8004e9a:	f000 ff8f 	bl	8005dbc <pvPortMalloc>
 8004e9e:	4604      	mov	r4, r0
 8004ea0:	b198      	cbz	r0, 8004eca <xTaskCreate+0x54>
 8004ea2:	2300      	movs	r3, #0
 8004ea4:	f880 3059 	strb.w	r3, [r0, #89]	@ 0x59
 8004ea8:	9b0d      	ldr	r3, [sp, #52]	@ 0x34
 8004eaa:	6305      	str	r5, [r0, #48]	@ 0x30
 8004eac:	9301      	str	r3, [sp, #4]
 8004eae:	9b0c      	ldr	r3, [sp, #48]	@ 0x30
 8004eb0:	4632      	mov	r2, r6
 8004eb2:	4641      	mov	r1, r8
 8004eb4:	9002      	str	r0, [sp, #8]
 8004eb6:	9300      	str	r3, [sp, #0]
 8004eb8:	4638      	mov	r0, r7
 8004eba:	464b      	mov	r3, r9
 8004ebc:	f7ff ff58 	bl	8004d70 <prvInitialiseNewTask.constprop.0>
 8004ec0:	4620      	mov	r0, r4
 8004ec2:	f7ff fe3f 	bl	8004b44 <prvAddNewTaskToReadyList>
 8004ec6:	2001      	movs	r0, #1
 8004ec8:	e7e3      	b.n	8004e92 <xTaskCreate+0x1c>
 8004eca:	4628      	mov	r0, r5
 8004ecc:	f001 f80e 	bl	8005eec <vPortFree>
 8004ed0:	e7dd      	b.n	8004e8e <xTaskCreate+0x18>
	...

08004ed4 <vTaskStartScheduler>:
 8004ed4:	b510      	push	{r4, lr}
 8004ed6:	2400      	movs	r4, #0
 8004ed8:	b088      	sub	sp, #32
 8004eda:	aa07      	add	r2, sp, #28
 8004edc:	a906      	add	r1, sp, #24
 8004ede:	a805      	add	r0, sp, #20
 8004ee0:	e9cd 4405 	strd	r4, r4, [sp, #20]
 8004ee4:	f7fe ffd8 	bl	8003e98 <vApplicationGetIdleTaskMemory>
 8004ee8:	9b05      	ldr	r3, [sp, #20]
 8004eea:	9a07      	ldr	r2, [sp, #28]
 8004eec:	9302      	str	r3, [sp, #8]
 8004eee:	9b06      	ldr	r3, [sp, #24]
 8004ef0:	4916      	ldr	r1, [pc, #88]	@ (8004f4c <vTaskStartScheduler+0x78>)
 8004ef2:	e9cd 4300 	strd	r4, r3, [sp]
 8004ef6:	4816      	ldr	r0, [pc, #88]	@ (8004f50 <vTaskStartScheduler+0x7c>)
 8004ef8:	4623      	mov	r3, r4
 8004efa:	f7ff ff84 	bl	8004e06 <xTaskCreateStatic>
 8004efe:	b318      	cbz	r0, 8004f48 <vTaskStartScheduler+0x74>
 8004f00:	f000 fc2c 	bl	800575c <xTimerCreateTimerTask>
 8004f04:	2801      	cmp	r0, #1
 8004f06:	d114      	bne.n	8004f32 <vTaskStartScheduler+0x5e>
 8004f08:	f04f 0350 	mov.w	r3, #80	@ 0x50
 8004f0c:	f383 8811 	msr	BASEPRI, r3
 8004f10:	f3bf 8f6f 	isb	sy
 8004f14:	f3bf 8f4f 	dsb	sy
 8004f18:	f04f 32ff 	mov.w	r2, #4294967295
 8004f1c:	4b0d      	ldr	r3, [pc, #52]	@ (8004f54 <vTaskStartScheduler+0x80>)
 8004f1e:	601a      	str	r2, [r3, #0]
 8004f20:	4b0d      	ldr	r3, [pc, #52]	@ (8004f58 <vTaskStartScheduler+0x84>)
 8004f22:	6018      	str	r0, [r3, #0]
 8004f24:	4b0d      	ldr	r3, [pc, #52]	@ (8004f5c <vTaskStartScheduler+0x88>)
 8004f26:	601c      	str	r4, [r3, #0]
 8004f28:	b008      	add	sp, #32
 8004f2a:	e8bd 4010 	ldmia.w	sp!, {r4, lr}
 8004f2e:	f000 be99 	b.w	8005c64 <xPortStartScheduler>
 8004f32:	3001      	adds	r0, #1
 8004f34:	d108      	bne.n	8004f48 <vTaskStartScheduler+0x74>
 8004f36:	f04f 0350 	mov.w	r3, #80	@ 0x50
 8004f3a:	f383 8811 	msr	BASEPRI, r3
 8004f3e:	f3bf 8f6f 	isb	sy
 8004f42:	f3bf 8f4f 	dsb	sy
 8004f46:	e7fe      	b.n	8004f46 <vTaskStartScheduler+0x72>
 8004f48:	b008      	add	sp, #32
 8004f4a:	bd10      	pop	{r4, pc}
 8004f4c:	08009043 	.word	0x08009043
 8004f50:	08004d11 	.word	0x08004d11
 8004f54:	20000fc8 	.word	0x20000fc8
 8004f58:	20000fdc 	.word	0x20000fdc
 8004f5c:	20000fe4 	.word	0x20000fe4

08004f60 <vTaskSuspendAll>:
 8004f60:	4a02      	ldr	r2, [pc, #8]	@ (8004f6c <vTaskSuspendAll+0xc>)
 8004f62:	6813      	ldr	r3, [r2, #0]
 8004f64:	3301      	adds	r3, #1
 8004f66:	6013      	str	r3, [r2, #0]
 8004f68:	4770      	bx	lr
 8004f6a:	bf00      	nop
 8004f6c:	20000fc4 	.word	0x20000fc4

08004f70 <xTaskGetTickCount>:
 8004f70:	4b01      	ldr	r3, [pc, #4]	@ (8004f78 <xTaskGetTickCount+0x8>)
 8004f72:	6818      	ldr	r0, [r3, #0]
 8004f74:	4770      	bx	lr
 8004f76:	bf00      	nop
 8004f78:	20000fe4 	.word	0x20000fe4

08004f7c <xTaskIncrementTick>:
 8004f7c:	4b40      	ldr	r3, [pc, #256]	@ (8005080 <xTaskIncrementTick+0x104>)
 8004f7e:	e92d 4ff7 	stmdb	sp!, {r0, r1, r2, r4, r5, r6, r7, r8, r9, sl, fp, lr}
 8004f82:	681b      	ldr	r3, [r3, #0]
 8004f84:	2b00      	cmp	r3, #0
 8004f86:	d173      	bne.n	8005070 <xTaskIncrementTick+0xf4>
 8004f88:	4b3e      	ldr	r3, [pc, #248]	@ (8005084 <xTaskIncrementTick+0x108>)
 8004f8a:	681c      	ldr	r4, [r3, #0]
 8004f8c:	3401      	adds	r4, #1
 8004f8e:	601c      	str	r4, [r3, #0]
 8004f90:	b9bc      	cbnz	r4, 8004fc2 <xTaskIncrementTick+0x46>
 8004f92:	4b3d      	ldr	r3, [pc, #244]	@ (8005088 <xTaskIncrementTick+0x10c>)
 8004f94:	681a      	ldr	r2, [r3, #0]
 8004f96:	6812      	ldr	r2, [r2, #0]
 8004f98:	b142      	cbz	r2, 8004fac <xTaskIncrementTick+0x30>
 8004f9a:	f04f 0350 	mov.w	r3, #80	@ 0x50
 8004f9e:	f383 8811 	msr	BASEPRI, r3
 8004fa2:	f3bf 8f6f 	isb	sy
 8004fa6:	f3bf 8f4f 	dsb	sy
 8004faa:	e7fe      	b.n	8004faa <xTaskIncrementTick+0x2e>
 8004fac:	4a37      	ldr	r2, [pc, #220]	@ (800508c <xTaskIncrementTick+0x110>)
 8004fae:	6819      	ldr	r1, [r3, #0]
 8004fb0:	6810      	ldr	r0, [r2, #0]
 8004fb2:	6018      	str	r0, [r3, #0]
 8004fb4:	6011      	str	r1, [r2, #0]
 8004fb6:	4a36      	ldr	r2, [pc, #216]	@ (8005090 <xTaskIncrementTick+0x114>)
 8004fb8:	6813      	ldr	r3, [r2, #0]
 8004fba:	3301      	adds	r3, #1
 8004fbc:	6013      	str	r3, [r2, #0]
 8004fbe:	f7ff fe79 	bl	8004cb4 <prvResetNextTaskUnblockTime>
 8004fc2:	4d34      	ldr	r5, [pc, #208]	@ (8005094 <xTaskIncrementTick+0x118>)
 8004fc4:	f04f 0b00 	mov.w	fp, #0
 8004fc8:	682b      	ldr	r3, [r5, #0]
 8004fca:	4e33      	ldr	r6, [pc, #204]	@ (8005098 <xTaskIncrementTick+0x11c>)
 8004fcc:	429c      	cmp	r4, r3
 8004fce:	4f33      	ldr	r7, [pc, #204]	@ (800509c <xTaskIncrementTick+0x120>)
 8004fd0:	d212      	bcs.n	8004ff8 <xTaskIncrementTick+0x7c>
 8004fd2:	2114      	movs	r1, #20
 8004fd4:	683a      	ldr	r2, [r7, #0]
 8004fd6:	6ad2      	ldr	r2, [r2, #44]	@ 0x2c
 8004fd8:	434a      	muls	r2, r1
 8004fda:	58b2      	ldr	r2, [r6, r2]
 8004fdc:	2a02      	cmp	r2, #2
 8004fde:	4a30      	ldr	r2, [pc, #192]	@ (80050a0 <xTaskIncrementTick+0x124>)
 8004fe0:	bf28      	it	cs
 8004fe2:	f04f 0b01 	movcs.w	fp, #1
 8004fe6:	6812      	ldr	r2, [r2, #0]
 8004fe8:	2a00      	cmp	r2, #0
 8004fea:	bf18      	it	ne
 8004fec:	f04f 0b01 	movne.w	fp, #1
 8004ff0:	4658      	mov	r0, fp
 8004ff2:	b003      	add	sp, #12
 8004ff4:	e8bd 8ff0 	ldmia.w	sp!, {r4, r5, r6, r7, r8, r9, sl, fp, pc}
 8004ff8:	f8df 908c 	ldr.w	r9, [pc, #140]	@ 8005088 <xTaskIncrementTick+0x10c>
 8004ffc:	f8df a0a4 	ldr.w	sl, [pc, #164]	@ 80050a4 <xTaskIncrementTick+0x128>
 8005000:	f8d9 2000 	ldr.w	r2, [r9]
 8005004:	6812      	ldr	r2, [r2, #0]
 8005006:	b91a      	cbnz	r2, 8005010 <xTaskIncrementTick+0x94>
 8005008:	f04f 32ff 	mov.w	r2, #4294967295
 800500c:	602a      	str	r2, [r5, #0]
 800500e:	e7e0      	b.n	8004fd2 <xTaskIncrementTick+0x56>
 8005010:	f8d9 2000 	ldr.w	r2, [r9]
 8005014:	68d2      	ldr	r2, [r2, #12]
 8005016:	f8d2 800c 	ldr.w	r8, [r2, #12]
 800501a:	f8d8 1004 	ldr.w	r1, [r8, #4]
 800501e:	428c      	cmp	r4, r1
 8005020:	d201      	bcs.n	8005026 <xTaskIncrementTick+0xaa>
 8005022:	6029      	str	r1, [r5, #0]
 8005024:	e7d5      	b.n	8004fd2 <xTaskIncrementTick+0x56>
 8005026:	f108 0304 	add.w	r3, r8, #4
 800502a:	4618      	mov	r0, r3
 800502c:	9301      	str	r3, [sp, #4]
 800502e:	f7ff f8bf 	bl	80041b0 <uxListRemove>
 8005032:	f8d8 1028 	ldr.w	r1, [r8, #40]	@ 0x28
 8005036:	b119      	cbz	r1, 8005040 <xTaskIncrementTick+0xc4>
 8005038:	f108 0018 	add.w	r0, r8, #24
 800503c:	f7ff f8b8 	bl	80041b0 <uxListRemove>
 8005040:	2314      	movs	r3, #20
 8005042:	f8d8 002c 	ldr.w	r0, [r8, #44]	@ 0x2c
 8005046:	f8da 1000 	ldr.w	r1, [sl]
 800504a:	4288      	cmp	r0, r1
 800504c:	bf88      	it	hi
 800504e:	f8ca 0000 	strhi.w	r0, [sl]
 8005052:	f108 0104 	add.w	r1, r8, #4
 8005056:	fb03 6000 	mla	r0, r3, r0, r6
 800505a:	f7ff f887 	bl	800416c <vListInsertEnd>
 800505e:	6838      	ldr	r0, [r7, #0]
 8005060:	f8d8 102c 	ldr.w	r1, [r8, #44]	@ 0x2c
 8005064:	6ac2      	ldr	r2, [r0, #44]	@ 0x2c
 8005066:	4291      	cmp	r1, r2
 8005068:	bf28      	it	cs
 800506a:	f04f 0b01 	movcs.w	fp, #1
 800506e:	e7c7      	b.n	8005000 <xTaskIncrementTick+0x84>
 8005070:	4a0d      	ldr	r2, [pc, #52]	@ (80050a8 <xTaskIncrementTick+0x12c>)
 8005072:	f04f 0b00 	mov.w	fp, #0
 8005076:	6813      	ldr	r3, [r2, #0]
 8005078:	3301      	adds	r3, #1
 800507a:	6013      	str	r3, [r2, #0]
 800507c:	e7b8      	b.n	8004ff0 <xTaskIncrementTick+0x74>
 800507e:	bf00      	nop
 8005080:	20000fc4 	.word	0x20000fc4
 8005084:	20000fe4 	.word	0x20000fe4
 8005088:	20001030 	.word	0x20001030
 800508c:	2000102c 	.word	0x2000102c
 8005090:	20000fd0 	.word	0x20000fd0
 8005094:	20000fc8 	.word	0x20000fc8
 8005098:	2000105c 	.word	0x2000105c
 800509c:	200014bc 	.word	0x200014bc
 80050a0:	20000fd4 	.word	0x20000fd4
 80050a4:	20000fe0 	.word	0x20000fe0
 80050a8:	20000fd8 	.word	0x20000fd8

080050ac <xTaskResumeAll>:
 80050ac:	e92d 41f0 	stmdb	sp!, {r4, r5, r6, r7, r8, lr}
 80050b0:	4c30      	ldr	r4, [pc, #192]	@ (8005174 <xTaskResumeAll+0xc8>)
 80050b2:	6823      	ldr	r3, [r4, #0]
 80050b4:	b943      	cbnz	r3, 80050c8 <xTaskResumeAll+0x1c>
 80050b6:	f04f 0350 	mov.w	r3, #80	@ 0x50
 80050ba:	f383 8811 	msr	BASEPRI, r3
 80050be:	f3bf 8f6f 	isb	sy
 80050c2:	f3bf 8f4f 	dsb	sy
 80050c6:	e7fe      	b.n	80050c6 <xTaskResumeAll+0x1a>
 80050c8:	f000 fd4c 	bl	8005b64 <vPortEnterCritical>
 80050cc:	6823      	ldr	r3, [r4, #0]
 80050ce:	3b01      	subs	r3, #1
 80050d0:	6023      	str	r3, [r4, #0]
 80050d2:	6824      	ldr	r4, [r4, #0]
 80050d4:	b12c      	cbz	r4, 80050e2 <xTaskResumeAll+0x36>
 80050d6:	2400      	movs	r4, #0
 80050d8:	f000 fd64 	bl	8005ba4 <vPortExitCritical>
 80050dc:	4620      	mov	r0, r4
 80050de:	e8bd 81f0 	ldmia.w	sp!, {r4, r5, r6, r7, r8, pc}
 80050e2:	4b25      	ldr	r3, [pc, #148]	@ (8005178 <xTaskResumeAll+0xcc>)
 80050e4:	681b      	ldr	r3, [r3, #0]
 80050e6:	2b00      	cmp	r3, #0
 80050e8:	d0f5      	beq.n	80050d6 <xTaskResumeAll+0x2a>
 80050ea:	4d24      	ldr	r5, [pc, #144]	@ (800517c <xTaskResumeAll+0xd0>)
 80050ec:	4e24      	ldr	r6, [pc, #144]	@ (8005180 <xTaskResumeAll+0xd4>)
 80050ee:	f8df 8094 	ldr.w	r8, [pc, #148]	@ 8005184 <xTaskResumeAll+0xd8>
 80050f2:	e01d      	b.n	8005130 <xTaskResumeAll+0x84>
 80050f4:	68eb      	ldr	r3, [r5, #12]
 80050f6:	68dc      	ldr	r4, [r3, #12]
 80050f8:	1d27      	adds	r7, r4, #4
 80050fa:	f104 0018 	add.w	r0, r4, #24
 80050fe:	f7ff f857 	bl	80041b0 <uxListRemove>
 8005102:	4638      	mov	r0, r7
 8005104:	f7ff f854 	bl	80041b0 <uxListRemove>
 8005108:	2014      	movs	r0, #20
 800510a:	6ae3      	ldr	r3, [r4, #44]	@ 0x2c
 800510c:	6832      	ldr	r2, [r6, #0]
 800510e:	fb00 8003 	mla	r0, r0, r3, r8
 8005112:	4293      	cmp	r3, r2
 8005114:	4639      	mov	r1, r7
 8005116:	bf88      	it	hi
 8005118:	6033      	strhi	r3, [r6, #0]
 800511a:	f7ff f827 	bl	800416c <vListInsertEnd>
 800511e:	4b1a      	ldr	r3, [pc, #104]	@ (8005188 <xTaskResumeAll+0xdc>)
 8005120:	6ae2      	ldr	r2, [r4, #44]	@ 0x2c
 8005122:	681b      	ldr	r3, [r3, #0]
 8005124:	6adb      	ldr	r3, [r3, #44]	@ 0x2c
 8005126:	429a      	cmp	r2, r3
 8005128:	d302      	bcc.n	8005130 <xTaskResumeAll+0x84>
 800512a:	2201      	movs	r2, #1
 800512c:	4b17      	ldr	r3, [pc, #92]	@ (800518c <xTaskResumeAll+0xe0>)
 800512e:	601a      	str	r2, [r3, #0]
 8005130:	682b      	ldr	r3, [r5, #0]
 8005132:	2b00      	cmp	r3, #0
 8005134:	d1de      	bne.n	80050f4 <xTaskResumeAll+0x48>
 8005136:	b10c      	cbz	r4, 800513c <xTaskResumeAll+0x90>
 8005138:	f7ff fdbc 	bl	8004cb4 <prvResetNextTaskUnblockTime>
 800513c:	4d14      	ldr	r5, [pc, #80]	@ (8005190 <xTaskResumeAll+0xe4>)
 800513e:	682c      	ldr	r4, [r5, #0]
 8005140:	b144      	cbz	r4, 8005154 <xTaskResumeAll+0xa8>
 8005142:	2701      	movs	r7, #1
 8005144:	4e11      	ldr	r6, [pc, #68]	@ (800518c <xTaskResumeAll+0xe0>)
 8005146:	f7ff ff19 	bl	8004f7c <xTaskIncrementTick>
 800514a:	b100      	cbz	r0, 800514e <xTaskResumeAll+0xa2>
 800514c:	6037      	str	r7, [r6, #0]
 800514e:	3c01      	subs	r4, #1
 8005150:	d1f9      	bne.n	8005146 <xTaskResumeAll+0x9a>
 8005152:	602c      	str	r4, [r5, #0]
 8005154:	4b0d      	ldr	r3, [pc, #52]	@ (800518c <xTaskResumeAll+0xe0>)
 8005156:	681b      	ldr	r3, [r3, #0]
 8005158:	2b00      	cmp	r3, #0
 800515a:	d0bc      	beq.n	80050d6 <xTaskResumeAll+0x2a>
 800515c:	f04f 23e0 	mov.w	r3, #3758153728	@ 0xe000e000
 8005160:	f04f 5280 	mov.w	r2, #268435456	@ 0x10000000
 8005164:	f8c3 2d04 	str.w	r2, [r3, #3332]	@ 0xd04
 8005168:	f3bf 8f4f 	dsb	sy
 800516c:	f3bf 8f6f 	isb	sy
 8005170:	2401      	movs	r4, #1
 8005172:	e7b1      	b.n	80050d8 <xTaskResumeAll+0x2c>
 8005174:	20000fc4 	.word	0x20000fc4
 8005178:	20000fe8 	.word	0x20000fe8
 800517c:	20001018 	.word	0x20001018
 8005180:	20000fe0 	.word	0x20000fe0
 8005184:	2000105c 	.word	0x2000105c
 8005188:	200014bc 	.word	0x200014bc
 800518c:	20000fd4 	.word	0x20000fd4
 8005190:	20000fd8 	.word	0x20000fd8

08005194 <vTaskDelay>:
 8005194:	b508      	push	{r3, lr}
 8005196:	b950      	cbnz	r0, 80051ae <vTaskDelay+0x1a>
 8005198:	f04f 23e0 	mov.w	r3, #3758153728	@ 0xe000e000
 800519c:	f04f 5280 	mov.w	r2, #268435456	@ 0x10000000
 80051a0:	f8c3 2d04 	str.w	r2, [r3, #3332]	@ 0xd04
 80051a4:	f3bf 8f4f 	dsb	sy
 80051a8:	f3bf 8f6f 	isb	sy
 80051ac:	bd08      	pop	{r3, pc}
 80051ae:	4b0a      	ldr	r3, [pc, #40]	@ (80051d8 <vTaskDelay+0x44>)
 80051b0:	6819      	ldr	r1, [r3, #0]
 80051b2:	b141      	cbz	r1, 80051c6 <vTaskDelay+0x32>
 80051b4:	f04f 0350 	mov.w	r3, #80	@ 0x50
 80051b8:	f383 8811 	msr	BASEPRI, r3
 80051bc:	f3bf 8f6f 	isb	sy
 80051c0:	f3bf 8f4f 	dsb	sy
 80051c4:	e7fe      	b.n	80051c4 <vTaskDelay+0x30>
 80051c6:	f7ff fecb 	bl	8004f60 <vTaskSuspendAll>
 80051ca:	f7ff fd3b 	bl	8004c44 <prvAddCurrentTaskToDelayedList>
 80051ce:	f7ff ff6d 	bl	80050ac <xTaskResumeAll>
 80051d2:	2800      	cmp	r0, #0
 80051d4:	d0e0      	beq.n	8005198 <vTaskDelay+0x4>
 80051d6:	e7e9      	b.n	80051ac <vTaskDelay+0x18>
 80051d8:	20000fc4 	.word	0x20000fc4

080051dc <vTaskSwitchContext>:
 80051dc:	4b18      	ldr	r3, [pc, #96]	@ (8005240 <vTaskSwitchContext+0x64>)
 80051de:	b570      	push	{r4, r5, r6, lr}
 80051e0:	681a      	ldr	r2, [r3, #0]
 80051e2:	4b18      	ldr	r3, [pc, #96]	@ (8005244 <vTaskSwitchContext+0x68>)
 80051e4:	b112      	cbz	r2, 80051ec <vTaskSwitchContext+0x10>
 80051e6:	2201      	movs	r2, #1
 80051e8:	601a      	str	r2, [r3, #0]
 80051ea:	bd70      	pop	{r4, r5, r6, pc}
 80051ec:	2614      	movs	r6, #20
 80051ee:	4d16      	ldr	r5, [pc, #88]	@ (8005248 <vTaskSwitchContext+0x6c>)
 80051f0:	601a      	str	r2, [r3, #0]
 80051f2:	682a      	ldr	r2, [r5, #0]
 80051f4:	4915      	ldr	r1, [pc, #84]	@ (800524c <vTaskSwitchContext+0x70>)
 80051f6:	fb06 f302 	mul.w	r3, r6, r2
 80051fa:	58cc      	ldr	r4, [r1, r3]
 80051fc:	18c8      	adds	r0, r1, r3
 80051fe:	b194      	cbz	r4, 8005226 <vTaskSwitchContext+0x4a>
 8005200:	6844      	ldr	r4, [r0, #4]
 8005202:	3308      	adds	r3, #8
 8005204:	6864      	ldr	r4, [r4, #4]
 8005206:	440b      	add	r3, r1
 8005208:	429c      	cmp	r4, r3
 800520a:	bf08      	it	eq
 800520c:	6863      	ldreq	r3, [r4, #4]
 800520e:	6044      	str	r4, [r0, #4]
 8005210:	bf08      	it	eq
 8005212:	6043      	streq	r3, [r0, #4]
 8005214:	2314      	movs	r3, #20
 8005216:	fb03 1102 	mla	r1, r3, r2, r1
 800521a:	684b      	ldr	r3, [r1, #4]
 800521c:	68d9      	ldr	r1, [r3, #12]
 800521e:	4b0c      	ldr	r3, [pc, #48]	@ (8005250 <vTaskSwitchContext+0x74>)
 8005220:	6019      	str	r1, [r3, #0]
 8005222:	602a      	str	r2, [r5, #0]
 8005224:	e7e1      	b.n	80051ea <vTaskSwitchContext+0xe>
 8005226:	b942      	cbnz	r2, 800523a <vTaskSwitchContext+0x5e>
 8005228:	f04f 0350 	mov.w	r3, #80	@ 0x50
 800522c:	f383 8811 	msr	BASEPRI, r3
 8005230:	f3bf 8f6f 	isb	sy
 8005234:	f3bf 8f4f 	dsb	sy
 8005238:	e7fe      	b.n	8005238 <vTaskSwitchContext+0x5c>
 800523a:	3a01      	subs	r2, #1
 800523c:	e7db      	b.n	80051f6 <vTaskSwitchContext+0x1a>
 800523e:	bf00      	nop
 8005240:	20000fc4 	.word	0x20000fc4
 8005244:	20000fd4 	.word	0x20000fd4
 8005248:	20000fe0 	.word	0x20000fe0
 800524c:	2000105c 	.word	0x2000105c
 8005250:	200014bc 	.word	0x200014bc

08005254 <vTaskPlaceOnEventList>:
 8005254:	b510      	push	{r4, lr}
 8005256:	460c      	mov	r4, r1
 8005258:	b940      	cbnz	r0, 800526c <vTaskPlaceOnEventList+0x18>
 800525a:	f04f 0350 	mov.w	r3, #80	@ 0x50
 800525e:	f383 8811 	msr	BASEPRI, r3
 8005262:	f3bf 8f6f 	isb	sy
 8005266:	f3bf 8f4f 	dsb	sy
 800526a:	e7fe      	b.n	800526a <vTaskPlaceOnEventList+0x16>
 800526c:	4b05      	ldr	r3, [pc, #20]	@ (8005284 <vTaskPlaceOnEventList+0x30>)
 800526e:	6819      	ldr	r1, [r3, #0]
 8005270:	3118      	adds	r1, #24
 8005272:	f7fe ff86 	bl	8004182 <vListInsert>
 8005276:	4620      	mov	r0, r4
 8005278:	e8bd 4010 	ldmia.w	sp!, {r4, lr}
 800527c:	2101      	movs	r1, #1
 800527e:	f7ff bce1 	b.w	8004c44 <prvAddCurrentTaskToDelayedList>
 8005282:	bf00      	nop
 8005284:	200014bc 	.word	0x200014bc

08005288 <vTaskPlaceOnUnorderedEventList>:
 8005288:	b510      	push	{r4, lr}
 800528a:	4614      	mov	r4, r2
 800528c:	b940      	cbnz	r0, 80052a0 <vTaskPlaceOnUnorderedEventList+0x18>
 800528e:	f04f 0350 	mov.w	r3, #80	@ 0x50
 8005292:	f383 8811 	msr	BASEPRI, r3
 8005296:	f3bf 8f6f 	isb	sy
 800529a:	f3bf 8f4f 	dsb	sy
 800529e:	e7fe      	b.n	800529e <vTaskPlaceOnUnorderedEventList+0x16>
 80052a0:	4b0d      	ldr	r3, [pc, #52]	@ (80052d8 <vTaskPlaceOnUnorderedEventList+0x50>)
 80052a2:	681b      	ldr	r3, [r3, #0]
 80052a4:	b943      	cbnz	r3, 80052b8 <vTaskPlaceOnUnorderedEventList+0x30>
 80052a6:	f04f 0350 	mov.w	r3, #80	@ 0x50
 80052aa:	f383 8811 	msr	BASEPRI, r3
 80052ae:	f3bf 8f6f 	isb	sy
 80052b2:	f3bf 8f4f 	dsb	sy
 80052b6:	e7fe      	b.n	80052b6 <vTaskPlaceOnUnorderedEventList+0x2e>
 80052b8:	4b08      	ldr	r3, [pc, #32]	@ (80052dc <vTaskPlaceOnUnorderedEventList+0x54>)
 80052ba:	f041 4100 	orr.w	r1, r1, #2147483648	@ 0x80000000
 80052be:	681a      	ldr	r2, [r3, #0]
 80052c0:	6191      	str	r1, [r2, #24]
 80052c2:	6819      	ldr	r1, [r3, #0]
 80052c4:	3118      	adds	r1, #24
 80052c6:	f7fe ff51 	bl	800416c <vListInsertEnd>
 80052ca:	4620      	mov	r0, r4
 80052cc:	e8bd 4010 	ldmia.w	sp!, {r4, lr}
 80052d0:	2101      	movs	r1, #1
 80052d2:	f7ff bcb7 	b.w	8004c44 <prvAddCurrentTaskToDelayedList>
 80052d6:	bf00      	nop
 80052d8:	20000fc4 	.word	0x20000fc4
 80052dc:	200014bc 	.word	0x200014bc

080052e0 <vTaskPlaceOnEventListRestricted>:
 80052e0:	b538      	push	{r3, r4, r5, lr}
 80052e2:	460d      	mov	r5, r1
 80052e4:	4614      	mov	r4, r2
 80052e6:	b940      	cbnz	r0, 80052fa <vTaskPlaceOnEventListRestricted+0x1a>
 80052e8:	f04f 0350 	mov.w	r3, #80	@ 0x50
 80052ec:	f383 8811 	msr	BASEPRI, r3
 80052f0:	f3bf 8f6f 	isb	sy
 80052f4:	f3bf 8f4f 	dsb	sy
 80052f8:	e7fe      	b.n	80052f8 <vTaskPlaceOnEventListRestricted+0x18>
 80052fa:	4b08      	ldr	r3, [pc, #32]	@ (800531c <vTaskPlaceOnEventListRestricted+0x3c>)
 80052fc:	6819      	ldr	r1, [r3, #0]
 80052fe:	3118      	adds	r1, #24
 8005300:	f7fe ff34 	bl	800416c <vListInsertEnd>
 8005304:	2c00      	cmp	r4, #0
 8005306:	4621      	mov	r1, r4
 8005308:	bf08      	it	eq
 800530a:	4628      	moveq	r0, r5
 800530c:	e8bd 4038 	ldmia.w	sp!, {r3, r4, r5, lr}
 8005310:	bf18      	it	ne
 8005312:	f04f 30ff 	movne.w	r0, #4294967295
 8005316:	f7ff bc95 	b.w	8004c44 <prvAddCurrentTaskToDelayedList>
 800531a:	bf00      	nop
 800531c:	200014bc 	.word	0x200014bc

08005320 <xTaskRemoveFromEventList>:
 8005320:	b538      	push	{r3, r4, r5, lr}
 8005322:	68c3      	ldr	r3, [r0, #12]
 8005324:	68dc      	ldr	r4, [r3, #12]
 8005326:	b944      	cbnz	r4, 800533a <xTaskRemoveFromEventList+0x1a>
 8005328:	f04f 0350 	mov.w	r3, #80	@ 0x50
 800532c:	f383 8811 	msr	BASEPRI, r3
 8005330:	f3bf 8f6f 	isb	sy
 8005334:	f3bf 8f4f 	dsb	sy
 8005338:	e7fe      	b.n	8005338 <xTaskRemoveFromEventList+0x18>
 800533a:	f104 0518 	add.w	r5, r4, #24
 800533e:	4628      	mov	r0, r5
 8005340:	f7fe ff36 	bl	80041b0 <uxListRemove>
 8005344:	4b10      	ldr	r3, [pc, #64]	@ (8005388 <xTaskRemoveFromEventList+0x68>)
 8005346:	681b      	ldr	r3, [r3, #0]
 8005348:	b9db      	cbnz	r3, 8005382 <xTaskRemoveFromEventList+0x62>
 800534a:	1d25      	adds	r5, r4, #4
 800534c:	4628      	mov	r0, r5
 800534e:	f7fe ff2f 	bl	80041b0 <uxListRemove>
 8005352:	4a0e      	ldr	r2, [pc, #56]	@ (800538c <xTaskRemoveFromEventList+0x6c>)
 8005354:	2014      	movs	r0, #20
 8005356:	6811      	ldr	r1, [r2, #0]
 8005358:	6ae3      	ldr	r3, [r4, #44]	@ 0x2c
 800535a:	428b      	cmp	r3, r1
 800535c:	4629      	mov	r1, r5
 800535e:	bf88      	it	hi
 8005360:	6013      	strhi	r3, [r2, #0]
 8005362:	4a0b      	ldr	r2, [pc, #44]	@ (8005390 <xTaskRemoveFromEventList+0x70>)
 8005364:	fb00 2003 	mla	r0, r0, r3, r2
 8005368:	f7fe ff00 	bl	800416c <vListInsertEnd>
 800536c:	4b09      	ldr	r3, [pc, #36]	@ (8005394 <xTaskRemoveFromEventList+0x74>)
 800536e:	6ae2      	ldr	r2, [r4, #44]	@ 0x2c
 8005370:	681b      	ldr	r3, [r3, #0]
 8005372:	6adb      	ldr	r3, [r3, #44]	@ 0x2c
 8005374:	429a      	cmp	r2, r3
 8005376:	bf85      	ittet	hi
 8005378:	2001      	movhi	r0, #1
 800537a:	4b07      	ldrhi	r3, [pc, #28]	@ (8005398 <xTaskRemoveFromEventList+0x78>)
 800537c:	2000      	movls	r0, #0
 800537e:	6018      	strhi	r0, [r3, #0]
 8005380:	bd38      	pop	{r3, r4, r5, pc}
 8005382:	4629      	mov	r1, r5
 8005384:	4805      	ldr	r0, [pc, #20]	@ (800539c <xTaskRemoveFromEventList+0x7c>)
 8005386:	e7ef      	b.n	8005368 <xTaskRemoveFromEventList+0x48>
 8005388:	20000fc4 	.word	0x20000fc4
 800538c:	20000fe0 	.word	0x20000fe0
 8005390:	2000105c 	.word	0x2000105c
 8005394:	200014bc 	.word	0x200014bc
 8005398:	20000fd4 	.word	0x20000fd4
 800539c:	20001018 	.word	0x20001018

080053a0 <vTaskRemoveFromUnorderedEventList>:
 80053a0:	4a1b      	ldr	r2, [pc, #108]	@ (8005410 <vTaskRemoveFromUnorderedEventList+0x70>)
 80053a2:	b538      	push	{r3, r4, r5, lr}
 80053a4:	6812      	ldr	r2, [r2, #0]
 80053a6:	b942      	cbnz	r2, 80053ba <vTaskRemoveFromUnorderedEventList+0x1a>
 80053a8:	f04f 0350 	mov.w	r3, #80	@ 0x50
 80053ac:	f383 8811 	msr	BASEPRI, r3
 80053b0:	f3bf 8f6f 	isb	sy
 80053b4:	f3bf 8f4f 	dsb	sy
 80053b8:	e7fe      	b.n	80053b8 <vTaskRemoveFromUnorderedEventList+0x18>
 80053ba:	68c4      	ldr	r4, [r0, #12]
 80053bc:	f041 4100 	orr.w	r1, r1, #2147483648	@ 0x80000000
 80053c0:	6001      	str	r1, [r0, #0]
 80053c2:	b944      	cbnz	r4, 80053d6 <vTaskRemoveFromUnorderedEventList+0x36>
 80053c4:	f04f 0350 	mov.w	r3, #80	@ 0x50
 80053c8:	f383 8811 	msr	BASEPRI, r3
 80053cc:	f3bf 8f6f 	isb	sy
 80053d0:	f3bf 8f4f 	dsb	sy
 80053d4:	e7fe      	b.n	80053d4 <vTaskRemoveFromUnorderedEventList+0x34>
 80053d6:	1d25      	adds	r5, r4, #4
 80053d8:	f7fe feea 	bl	80041b0 <uxListRemove>
 80053dc:	4628      	mov	r0, r5
 80053de:	f7fe fee7 	bl	80041b0 <uxListRemove>
 80053e2:	2014      	movs	r0, #20
 80053e4:	4a0b      	ldr	r2, [pc, #44]	@ (8005414 <vTaskRemoveFromUnorderedEventList+0x74>)
 80053e6:	6ae3      	ldr	r3, [r4, #44]	@ 0x2c
 80053e8:	6811      	ldr	r1, [r2, #0]
 80053ea:	428b      	cmp	r3, r1
 80053ec:	bf88      	it	hi
 80053ee:	6013      	strhi	r3, [r2, #0]
 80053f0:	4a09      	ldr	r2, [pc, #36]	@ (8005418 <vTaskRemoveFromUnorderedEventList+0x78>)
 80053f2:	4629      	mov	r1, r5
 80053f4:	fb00 2003 	mla	r0, r0, r3, r2
 80053f8:	f7fe feb8 	bl	800416c <vListInsertEnd>
 80053fc:	4b07      	ldr	r3, [pc, #28]	@ (800541c <vTaskRemoveFromUnorderedEventList+0x7c>)
 80053fe:	6ae2      	ldr	r2, [r4, #44]	@ 0x2c
 8005400:	681b      	ldr	r3, [r3, #0]
 8005402:	6adb      	ldr	r3, [r3, #44]	@ 0x2c
 8005404:	429a      	cmp	r2, r3
 8005406:	bf82      	ittt	hi
 8005408:	2201      	movhi	r2, #1
 800540a:	4b05      	ldrhi	r3, [pc, #20]	@ (8005420 <vTaskRemoveFromUnorderedEventList+0x80>)
 800540c:	601a      	strhi	r2, [r3, #0]
 800540e:	bd38      	pop	{r3, r4, r5, pc}
 8005410:	20000fc4 	.word	0x20000fc4
 8005414:	20000fe0 	.word	0x20000fe0
 8005418:	2000105c 	.word	0x2000105c
 800541c:	200014bc 	.word	0x200014bc
 8005420:	20000fd4 	.word	0x20000fd4

08005424 <vTaskInternalSetTimeOutState>:
 8005424:	4b03      	ldr	r3, [pc, #12]	@ (8005434 <vTaskInternalSetTimeOutState+0x10>)
 8005426:	681b      	ldr	r3, [r3, #0]
 8005428:	6003      	str	r3, [r0, #0]
 800542a:	4b03      	ldr	r3, [pc, #12]	@ (8005438 <vTaskInternalSetTimeOutState+0x14>)
 800542c:	681b      	ldr	r3, [r3, #0]
 800542e:	6043      	str	r3, [r0, #4]
 8005430:	4770      	bx	lr
 8005432:	bf00      	nop
 8005434:	20000fd0 	.word	0x20000fd0
 8005438:	20000fe4 	.word	0x20000fe4

0800543c <xTaskCheckForTimeOut>:
 800543c:	b570      	push	{r4, r5, r6, lr}
 800543e:	460c      	mov	r4, r1
 8005440:	4605      	mov	r5, r0
 8005442:	b940      	cbnz	r0, 8005456 <xTaskCheckForTimeOut+0x1a>
 8005444:	f04f 0350 	mov.w	r3, #80	@ 0x50
 8005448:	f383 8811 	msr	BASEPRI, r3
 800544c:	f3bf 8f6f 	isb	sy
 8005450:	f3bf 8f4f 	dsb	sy
 8005454:	e7fe      	b.n	8005454 <xTaskCheckForTimeOut+0x18>
 8005456:	b941      	cbnz	r1, 800546a <xTaskCheckForTimeOut+0x2e>
 8005458:	f04f 0350 	mov.w	r3, #80	@ 0x50
 800545c:	f383 8811 	msr	BASEPRI, r3
 8005460:	f3bf 8f6f 	isb	sy
 8005464:	f3bf 8f4f 	dsb	sy
 8005468:	e7fe      	b.n	8005468 <xTaskCheckForTimeOut+0x2c>
 800546a:	f000 fb7b 	bl	8005b64 <vPortEnterCritical>
 800546e:	4b0f      	ldr	r3, [pc, #60]	@ (80054ac <xTaskCheckForTimeOut+0x70>)
 8005470:	6819      	ldr	r1, [r3, #0]
 8005472:	6823      	ldr	r3, [r4, #0]
 8005474:	1c5a      	adds	r2, r3, #1
 8005476:	d010      	beq.n	800549a <xTaskCheckForTimeOut+0x5e>
 8005478:	480d      	ldr	r0, [pc, #52]	@ (80054b0 <xTaskCheckForTimeOut+0x74>)
 800547a:	682e      	ldr	r6, [r5, #0]
 800547c:	6800      	ldr	r0, [r0, #0]
 800547e:	686a      	ldr	r2, [r5, #4]
 8005480:	4286      	cmp	r6, r0
 8005482:	d001      	beq.n	8005488 <xTaskCheckForTimeOut+0x4c>
 8005484:	428a      	cmp	r2, r1
 8005486:	d90f      	bls.n	80054a8 <xTaskCheckForTimeOut+0x6c>
 8005488:	1a88      	subs	r0, r1, r2
 800548a:	4283      	cmp	r3, r0
 800548c:	d90a      	bls.n	80054a4 <xTaskCheckForTimeOut+0x68>
 800548e:	1a5b      	subs	r3, r3, r1
 8005490:	4413      	add	r3, r2
 8005492:	4628      	mov	r0, r5
 8005494:	6023      	str	r3, [r4, #0]
 8005496:	f7ff ffc5 	bl	8005424 <vTaskInternalSetTimeOutState>
 800549a:	2400      	movs	r4, #0
 800549c:	f000 fb82 	bl	8005ba4 <vPortExitCritical>
 80054a0:	4620      	mov	r0, r4
 80054a2:	bd70      	pop	{r4, r5, r6, pc}
 80054a4:	2300      	movs	r3, #0
 80054a6:	6023      	str	r3, [r4, #0]
 80054a8:	2401      	movs	r4, #1
 80054aa:	e7f7      	b.n	800549c <xTaskCheckForTimeOut+0x60>
 80054ac:	20000fe4 	.word	0x20000fe4
 80054b0:	20000fd0 	.word	0x20000fd0

080054b4 <vTaskMissedYield>:
 80054b4:	2201      	movs	r2, #1
 80054b6:	4b01      	ldr	r3, [pc, #4]	@ (80054bc <vTaskMissedYield+0x8>)
 80054b8:	601a      	str	r2, [r3, #0]
 80054ba:	4770      	bx	lr
 80054bc:	20000fd4 	.word	0x20000fd4

080054c0 <xTaskGetCurrentTaskHandle>:
 80054c0:	4b01      	ldr	r3, [pc, #4]	@ (80054c8 <xTaskGetCurrentTaskHandle+0x8>)
 80054c2:	6818      	ldr	r0, [r3, #0]
 80054c4:	4770      	bx	lr
 80054c6:	bf00      	nop
 80054c8:	200014bc 	.word	0x200014bc

080054cc <xTaskGetSchedulerState>:
 80054cc:	4b05      	ldr	r3, [pc, #20]	@ (80054e4 <xTaskGetSchedulerState+0x18>)
 80054ce:	681b      	ldr	r3, [r3, #0]
 80054d0:	b133      	cbz	r3, 80054e0 <xTaskGetSchedulerState+0x14>
 80054d2:	4b05      	ldr	r3, [pc, #20]	@ (80054e8 <xTaskGetSchedulerState+0x1c>)
 80054d4:	6818      	ldr	r0, [r3, #0]
 80054d6:	fab0 f080 	clz	r0, r0
 80054da:	0940      	lsrs	r0, r0, #5
 80054dc:	0040      	lsls	r0, r0, #1
 80054de:	4770      	bx	lr
 80054e0:	2001      	movs	r0, #1
 80054e2:	4770      	bx	lr
 80054e4:	20000fdc 	.word	0x20000fdc
 80054e8:	20000fc4 	.word	0x20000fc4

080054ec <xTaskPriorityInherit>:
 80054ec:	b5f8      	push	{r3, r4, r5, r6, r7, lr}
 80054ee:	4604      	mov	r4, r0
 80054f0:	b338      	cbz	r0, 8005542 <xTaskPriorityInherit+0x56>
 80054f2:	4d1a      	ldr	r5, [pc, #104]	@ (800555c <xTaskPriorityInherit+0x70>)
 80054f4:	6ac3      	ldr	r3, [r0, #44]	@ 0x2c
 80054f6:	682a      	ldr	r2, [r5, #0]
 80054f8:	6ad2      	ldr	r2, [r2, #44]	@ 0x2c
 80054fa:	4293      	cmp	r3, r2
 80054fc:	d226      	bcs.n	800554c <xTaskPriorityInherit+0x60>
 80054fe:	6982      	ldr	r2, [r0, #24]
 8005500:	4e17      	ldr	r6, [pc, #92]	@ (8005560 <xTaskPriorityInherit+0x74>)
 8005502:	2a00      	cmp	r2, #0
 8005504:	bfa1      	itttt	ge
 8005506:	682a      	ldrge	r2, [r5, #0]
 8005508:	6ad2      	ldrge	r2, [r2, #44]	@ 0x2c
 800550a:	f1c2 0238 	rsbge	r2, r2, #56	@ 0x38
 800550e:	6182      	strge	r2, [r0, #24]
 8005510:	2214      	movs	r2, #20
 8005512:	fb02 6303 	mla	r3, r2, r3, r6
 8005516:	6942      	ldr	r2, [r0, #20]
 8005518:	429a      	cmp	r2, r3
 800551a:	d113      	bne.n	8005544 <xTaskPriorityInherit+0x58>
 800551c:	1d07      	adds	r7, r0, #4
 800551e:	4638      	mov	r0, r7
 8005520:	f7fe fe46 	bl	80041b0 <uxListRemove>
 8005524:	2014      	movs	r0, #20
 8005526:	682b      	ldr	r3, [r5, #0]
 8005528:	4a0e      	ldr	r2, [pc, #56]	@ (8005564 <xTaskPriorityInherit+0x78>)
 800552a:	6adb      	ldr	r3, [r3, #44]	@ 0x2c
 800552c:	6811      	ldr	r1, [r2, #0]
 800552e:	fb00 6003 	mla	r0, r0, r3, r6
 8005532:	428b      	cmp	r3, r1
 8005534:	62e3      	str	r3, [r4, #44]	@ 0x2c
 8005536:	4639      	mov	r1, r7
 8005538:	bf88      	it	hi
 800553a:	6013      	strhi	r3, [r2, #0]
 800553c:	f7fe fe16 	bl	800416c <vListInsertEnd>
 8005540:	2001      	movs	r0, #1
 8005542:	bdf8      	pop	{r3, r4, r5, r6, r7, pc}
 8005544:	682b      	ldr	r3, [r5, #0]
 8005546:	6adb      	ldr	r3, [r3, #44]	@ 0x2c
 8005548:	62c3      	str	r3, [r0, #44]	@ 0x2c
 800554a:	e7f9      	b.n	8005540 <xTaskPriorityInherit+0x54>
 800554c:	682b      	ldr	r3, [r5, #0]
 800554e:	6cc0      	ldr	r0, [r0, #76]	@ 0x4c
 8005550:	6adb      	ldr	r3, [r3, #44]	@ 0x2c
 8005552:	4298      	cmp	r0, r3
 8005554:	bf2c      	ite	cs
 8005556:	2000      	movcs	r0, #0
 8005558:	2001      	movcc	r0, #1
 800555a:	e7f2      	b.n	8005542 <xTaskPriorityInherit+0x56>
 800555c:	200014bc 	.word	0x200014bc
 8005560:	2000105c 	.word	0x2000105c
 8005564:	20000fe0 	.word	0x20000fe0

08005568 <xTaskPriorityDisinherit>:
 8005568:	b538      	push	{r3, r4, r5, lr}
 800556a:	b908      	cbnz	r0, 8005570 <xTaskPriorityDisinherit+0x8>
 800556c:	2000      	movs	r0, #0
 800556e:	bd38      	pop	{r3, r4, r5, pc}
 8005570:	4b1b      	ldr	r3, [pc, #108]	@ (80055e0 <xTaskPriorityDisinherit+0x78>)
 8005572:	681c      	ldr	r4, [r3, #0]
 8005574:	4284      	cmp	r4, r0
 8005576:	d008      	beq.n	800558a <xTaskPriorityDisinherit+0x22>
 8005578:	f04f 0350 	mov.w	r3, #80	@ 0x50
 800557c:	f383 8811 	msr	BASEPRI, r3
 8005580:	f3bf 8f6f 	isb	sy
 8005584:	f3bf 8f4f 	dsb	sy
 8005588:	e7fe      	b.n	8005588 <xTaskPriorityDisinherit+0x20>
 800558a:	6d23      	ldr	r3, [r4, #80]	@ 0x50
 800558c:	b943      	cbnz	r3, 80055a0 <xTaskPriorityDisinherit+0x38>
 800558e:	f04f 0350 	mov.w	r3, #80	@ 0x50
 8005592:	f383 8811 	msr	BASEPRI, r3
 8005596:	f3bf 8f6f 	isb	sy
 800559a:	f3bf 8f4f 	dsb	sy
 800559e:	e7fe      	b.n	800559e <xTaskPriorityDisinherit+0x36>
 80055a0:	6ae1      	ldr	r1, [r4, #44]	@ 0x2c
 80055a2:	6ce2      	ldr	r2, [r4, #76]	@ 0x4c
 80055a4:	3b01      	subs	r3, #1
 80055a6:	4291      	cmp	r1, r2
 80055a8:	6523      	str	r3, [r4, #80]	@ 0x50
 80055aa:	d0df      	beq.n	800556c <xTaskPriorityDisinherit+0x4>
 80055ac:	2b00      	cmp	r3, #0
 80055ae:	d1dd      	bne.n	800556c <xTaskPriorityDisinherit+0x4>
 80055b0:	1d25      	adds	r5, r4, #4
 80055b2:	4628      	mov	r0, r5
 80055b4:	f7fe fdfc 	bl	80041b0 <uxListRemove>
 80055b8:	2014      	movs	r0, #20
 80055ba:	6ce3      	ldr	r3, [r4, #76]	@ 0x4c
 80055bc:	f1c3 0238 	rsb	r2, r3, #56	@ 0x38
 80055c0:	61a2      	str	r2, [r4, #24]
 80055c2:	4a08      	ldr	r2, [pc, #32]	@ (80055e4 <xTaskPriorityDisinherit+0x7c>)
 80055c4:	62e3      	str	r3, [r4, #44]	@ 0x2c
 80055c6:	6811      	ldr	r1, [r2, #0]
 80055c8:	428b      	cmp	r3, r1
 80055ca:	bf88      	it	hi
 80055cc:	6013      	strhi	r3, [r2, #0]
 80055ce:	4a06      	ldr	r2, [pc, #24]	@ (80055e8 <xTaskPriorityDisinherit+0x80>)
 80055d0:	4629      	mov	r1, r5
 80055d2:	fb00 2003 	mla	r0, r0, r3, r2
 80055d6:	f7fe fdc9 	bl	800416c <vListInsertEnd>
 80055da:	2001      	movs	r0, #1
 80055dc:	e7c7      	b.n	800556e <xTaskPriorityDisinherit+0x6>
 80055de:	bf00      	nop
 80055e0:	200014bc 	.word	0x200014bc
 80055e4:	20000fe0 	.word	0x20000fe0
 80055e8:	2000105c 	.word	0x2000105c

080055ec <vTaskPriorityDisinheritAfterTimeout>:
 80055ec:	b570      	push	{r4, r5, r6, lr}
 80055ee:	4604      	mov	r4, r0
 80055f0:	2800      	cmp	r0, #0
 80055f2:	d041      	beq.n	8005678 <vTaskPriorityDisinheritAfterTimeout+0x8c>
 80055f4:	6d02      	ldr	r2, [r0, #80]	@ 0x50
 80055f6:	b942      	cbnz	r2, 800560a <vTaskPriorityDisinheritAfterTimeout+0x1e>
 80055f8:	f04f 0350 	mov.w	r3, #80	@ 0x50
 80055fc:	f383 8811 	msr	BASEPRI, r3
 8005600:	f3bf 8f6f 	isb	sy
 8005604:	f3bf 8f4f 	dsb	sy
 8005608:	e7fe      	b.n	8005608 <vTaskPriorityDisinheritAfterTimeout+0x1c>
 800560a:	6cc3      	ldr	r3, [r0, #76]	@ 0x4c
 800560c:	4299      	cmp	r1, r3
 800560e:	bf38      	it	cc
 8005610:	4619      	movcc	r1, r3
 8005612:	6ac3      	ldr	r3, [r0, #44]	@ 0x2c
 8005614:	428b      	cmp	r3, r1
 8005616:	d02f      	beq.n	8005678 <vTaskPriorityDisinheritAfterTimeout+0x8c>
 8005618:	2a01      	cmp	r2, #1
 800561a:	d12d      	bne.n	8005678 <vTaskPriorityDisinheritAfterTimeout+0x8c>
 800561c:	4a17      	ldr	r2, [pc, #92]	@ (800567c <vTaskPriorityDisinheritAfterTimeout+0x90>)
 800561e:	6812      	ldr	r2, [r2, #0]
 8005620:	4282      	cmp	r2, r0
 8005622:	d108      	bne.n	8005636 <vTaskPriorityDisinheritAfterTimeout+0x4a>
 8005624:	f04f 0350 	mov.w	r3, #80	@ 0x50
 8005628:	f383 8811 	msr	BASEPRI, r3
 800562c:	f3bf 8f6f 	isb	sy
 8005630:	f3bf 8f4f 	dsb	sy
 8005634:	e7fe      	b.n	8005634 <vTaskPriorityDisinheritAfterTimeout+0x48>
 8005636:	6982      	ldr	r2, [r0, #24]
 8005638:	4d11      	ldr	r5, [pc, #68]	@ (8005680 <vTaskPriorityDisinheritAfterTimeout+0x94>)
 800563a:	2a00      	cmp	r2, #0
 800563c:	f04f 0214 	mov.w	r2, #20
 8005640:	fb02 5303 	mla	r3, r2, r3, r5
 8005644:	6942      	ldr	r2, [r0, #20]
 8005646:	62c1      	str	r1, [r0, #44]	@ 0x2c
 8005648:	bfa4      	itt	ge
 800564a:	f1c1 0138 	rsbge	r1, r1, #56	@ 0x38
 800564e:	6181      	strge	r1, [r0, #24]
 8005650:	429a      	cmp	r2, r3
 8005652:	d111      	bne.n	8005678 <vTaskPriorityDisinheritAfterTimeout+0x8c>
 8005654:	1d06      	adds	r6, r0, #4
 8005656:	4630      	mov	r0, r6
 8005658:	f7fe fdaa 	bl	80041b0 <uxListRemove>
 800565c:	2014      	movs	r0, #20
 800565e:	4a09      	ldr	r2, [pc, #36]	@ (8005684 <vTaskPriorityDisinheritAfterTimeout+0x98>)
 8005660:	6ae3      	ldr	r3, [r4, #44]	@ 0x2c
 8005662:	6811      	ldr	r1, [r2, #0]
 8005664:	fb00 5003 	mla	r0, r0, r3, r5
 8005668:	428b      	cmp	r3, r1
 800566a:	4631      	mov	r1, r6
 800566c:	e8bd 4070 	ldmia.w	sp!, {r4, r5, r6, lr}
 8005670:	bf88      	it	hi
 8005672:	6013      	strhi	r3, [r2, #0]
 8005674:	f7fe bd7a 	b.w	800416c <vListInsertEnd>
 8005678:	bd70      	pop	{r4, r5, r6, pc}
 800567a:	bf00      	nop
 800567c:	200014bc 	.word	0x200014bc
 8005680:	2000105c 	.word	0x2000105c
 8005684:	20000fe0 	.word	0x20000fe0

08005688 <uxTaskResetEventItemValue>:
 8005688:	4b04      	ldr	r3, [pc, #16]	@ (800569c <uxTaskResetEventItemValue+0x14>)
 800568a:	681a      	ldr	r2, [r3, #0]
 800568c:	6819      	ldr	r1, [r3, #0]
 800568e:	6990      	ldr	r0, [r2, #24]
 8005690:	681a      	ldr	r2, [r3, #0]
 8005692:	6acb      	ldr	r3, [r1, #44]	@ 0x2c
 8005694:	f1c3 0338 	rsb	r3, r3, #56	@ 0x38
 8005698:	6193      	str	r3, [r2, #24]
 800569a:	4770      	bx	lr
 800569c:	200014bc 	.word	0x200014bc

080056a0 <pvTaskIncrementMutexHeldCount>:
 80056a0:	4b04      	ldr	r3, [pc, #16]	@ (80056b4 <pvTaskIncrementMutexHeldCount+0x14>)
 80056a2:	681a      	ldr	r2, [r3, #0]
 80056a4:	b11a      	cbz	r2, 80056ae <pvTaskIncrementMutexHeldCount+0xe>
 80056a6:	6819      	ldr	r1, [r3, #0]
 80056a8:	6d0a      	ldr	r2, [r1, #80]	@ 0x50
 80056aa:	3201      	adds	r2, #1
 80056ac:	650a      	str	r2, [r1, #80]	@ 0x50
 80056ae:	6818      	ldr	r0, [r3, #0]
 80056b0:	4770      	bx	lr
 80056b2:	bf00      	nop
 80056b4:	200014bc 	.word	0x200014bc

080056b8 <prvInsertTimerInActiveList>:
 80056b8:	4291      	cmp	r1, r2
 80056ba:	b508      	push	{r3, lr}
 80056bc:	6041      	str	r1, [r0, #4]
 80056be:	6100      	str	r0, [r0, #16]
 80056c0:	d80a      	bhi.n	80056d8 <prvInsertTimerInActiveList+0x20>
 80056c2:	1ad2      	subs	r2, r2, r3
 80056c4:	6983      	ldr	r3, [r0, #24]
 80056c6:	429a      	cmp	r2, r3
 80056c8:	d20d      	bcs.n	80056e6 <prvInsertTimerInActiveList+0x2e>
 80056ca:	4b08      	ldr	r3, [pc, #32]	@ (80056ec <prvInsertTimerInActiveList+0x34>)
 80056cc:	1d01      	adds	r1, r0, #4
 80056ce:	6818      	ldr	r0, [r3, #0]
 80056d0:	f7fe fd57 	bl	8004182 <vListInsert>
 80056d4:	2000      	movs	r0, #0
 80056d6:	bd08      	pop	{r3, pc}
 80056d8:	429a      	cmp	r2, r3
 80056da:	d201      	bcs.n	80056e0 <prvInsertTimerInActiveList+0x28>
 80056dc:	4299      	cmp	r1, r3
 80056de:	d202      	bcs.n	80056e6 <prvInsertTimerInActiveList+0x2e>
 80056e0:	4b03      	ldr	r3, [pc, #12]	@ (80056f0 <prvInsertTimerInActiveList+0x38>)
 80056e2:	1d01      	adds	r1, r0, #4
 80056e4:	e7f3      	b.n	80056ce <prvInsertTimerInActiveList+0x16>
 80056e6:	2001      	movs	r0, #1
 80056e8:	e7f5      	b.n	80056d6 <prvInsertTimerInActiveList+0x1e>
 80056ea:	bf00      	nop
 80056ec:	200015bc 	.word	0x200015bc
 80056f0:	200015c0 	.word	0x200015c0

080056f4 <prvCheckForValidListAndQueue>:
 80056f4:	b5f7      	push	{r0, r1, r2, r4, r5, r6, r7, lr}
 80056f6:	4c11      	ldr	r4, [pc, #68]	@ (800573c <prvCheckForValidListAndQueue+0x48>)
 80056f8:	f000 fa34 	bl	8005b64 <vPortEnterCritical>
 80056fc:	6825      	ldr	r5, [r4, #0]
 80056fe:	b9bd      	cbnz	r5, 8005730 <prvCheckForValidListAndQueue+0x3c>
 8005700:	4f0f      	ldr	r7, [pc, #60]	@ (8005740 <prvCheckForValidListAndQueue+0x4c>)
 8005702:	4e10      	ldr	r6, [pc, #64]	@ (8005744 <prvCheckForValidListAndQueue+0x50>)
 8005704:	4638      	mov	r0, r7
 8005706:	f7fe fd23 	bl	8004150 <vListInitialise>
 800570a:	4630      	mov	r0, r6
 800570c:	f7fe fd20 	bl	8004150 <vListInitialise>
 8005710:	4b0d      	ldr	r3, [pc, #52]	@ (8005748 <prvCheckForValidListAndQueue+0x54>)
 8005712:	2110      	movs	r1, #16
 8005714:	601f      	str	r7, [r3, #0]
 8005716:	4b0d      	ldr	r3, [pc, #52]	@ (800574c <prvCheckForValidListAndQueue+0x58>)
 8005718:	200a      	movs	r0, #10
 800571a:	601e      	str	r6, [r3, #0]
 800571c:	4a0c      	ldr	r2, [pc, #48]	@ (8005750 <prvCheckForValidListAndQueue+0x5c>)
 800571e:	4b0d      	ldr	r3, [pc, #52]	@ (8005754 <prvCheckForValidListAndQueue+0x60>)
 8005720:	9500      	str	r5, [sp, #0]
 8005722:	f7fe fe1c 	bl	800435e <xQueueGenericCreateStatic>
 8005726:	6020      	str	r0, [r4, #0]
 8005728:	b110      	cbz	r0, 8005730 <prvCheckForValidListAndQueue+0x3c>
 800572a:	490b      	ldr	r1, [pc, #44]	@ (8005758 <prvCheckForValidListAndQueue+0x64>)
 800572c:	f7ff f9a8 	bl	8004a80 <vQueueAddToRegistry>
 8005730:	b003      	add	sp, #12
 8005732:	e8bd 40f0 	ldmia.w	sp!, {r4, r5, r6, r7, lr}
 8005736:	f000 ba35 	b.w	8005ba4 <vPortExitCritical>
 800573a:	bf00      	nop
 800573c:	200015b8 	.word	0x200015b8
 8005740:	200015d8 	.word	0x200015d8
 8005744:	200015c4 	.word	0x200015c4
 8005748:	200015c0 	.word	0x200015c0
 800574c:	200015bc 	.word	0x200015bc
 8005750:	20001510 	.word	0x20001510
 8005754:	200014c0 	.word	0x200014c0
 8005758:	08009048 	.word	0x08009048

0800575c <xTimerCreateTimerTask>:
 800575c:	b510      	push	{r4, lr}
 800575e:	b088      	sub	sp, #32
 8005760:	f7ff ffc8 	bl	80056f4 <prvCheckForValidListAndQueue>
 8005764:	4b12      	ldr	r3, [pc, #72]	@ (80057b0 <xTimerCreateTimerTask+0x54>)
 8005766:	681b      	ldr	r3, [r3, #0]
 8005768:	b1b3      	cbz	r3, 8005798 <xTimerCreateTimerTask+0x3c>
 800576a:	2400      	movs	r4, #0
 800576c:	aa07      	add	r2, sp, #28
 800576e:	a906      	add	r1, sp, #24
 8005770:	a805      	add	r0, sp, #20
 8005772:	e9cd 4405 	strd	r4, r4, [sp, #20]
 8005776:	f7fe fb9b 	bl	8003eb0 <vApplicationGetTimerTaskMemory>
 800577a:	9b05      	ldr	r3, [sp, #20]
 800577c:	9a07      	ldr	r2, [sp, #28]
 800577e:	9302      	str	r3, [sp, #8]
 8005780:	9b06      	ldr	r3, [sp, #24]
 8005782:	490c      	ldr	r1, [pc, #48]	@ (80057b4 <xTimerCreateTimerTask+0x58>)
 8005784:	9301      	str	r3, [sp, #4]
 8005786:	2302      	movs	r3, #2
 8005788:	480b      	ldr	r0, [pc, #44]	@ (80057b8 <xTimerCreateTimerTask+0x5c>)
 800578a:	9300      	str	r3, [sp, #0]
 800578c:	4623      	mov	r3, r4
 800578e:	f7ff fb3a 	bl	8004e06 <xTaskCreateStatic>
 8005792:	4b0a      	ldr	r3, [pc, #40]	@ (80057bc <xTimerCreateTimerTask+0x60>)
 8005794:	6018      	str	r0, [r3, #0]
 8005796:	b940      	cbnz	r0, 80057aa <xTimerCreateTimerTask+0x4e>
 8005798:	f04f 0350 	mov.w	r3, #80	@ 0x50
 800579c:	f383 8811 	msr	BASEPRI, r3
 80057a0:	f3bf 8f6f 	isb	sy
 80057a4:	f3bf 8f4f 	dsb	sy
 80057a8:	e7fe      	b.n	80057a8 <xTimerCreateTimerTask+0x4c>
 80057aa:	2001      	movs	r0, #1
 80057ac:	b008      	add	sp, #32
 80057ae:	bd10      	pop	{r4, pc}
 80057b0:	200015b8 	.word	0x200015b8
 80057b4:	0800904d 	.word	0x0800904d
 80057b8:	080058bd 	.word	0x080058bd
 80057bc:	200015b4 	.word	0x200015b4

080057c0 <xTimerGenericCommand>:
 80057c0:	b57f      	push	{r0, r1, r2, r3, r4, r5, r6, lr}
 80057c2:	4616      	mov	r6, r2
 80057c4:	4604      	mov	r4, r0
 80057c6:	461a      	mov	r2, r3
 80057c8:	b940      	cbnz	r0, 80057dc <xTimerGenericCommand+0x1c>
 80057ca:	f04f 0350 	mov.w	r3, #80	@ 0x50
 80057ce:	f383 8811 	msr	BASEPRI, r3
 80057d2:	f3bf 8f6f 	isb	sy
 80057d6:	f3bf 8f4f 	dsb	sy
 80057da:	e7fe      	b.n	80057da <xTimerGenericCommand+0x1a>
 80057dc:	4d0d      	ldr	r5, [pc, #52]	@ (8005814 <xTimerGenericCommand+0x54>)
 80057de:	6828      	ldr	r0, [r5, #0]
 80057e0:	b180      	cbz	r0, 8005804 <xTimerGenericCommand+0x44>
 80057e2:	2905      	cmp	r1, #5
 80057e4:	e9cd 1600 	strd	r1, r6, [sp]
 80057e8:	9402      	str	r4, [sp, #8]
 80057ea:	dc0d      	bgt.n	8005808 <xTimerGenericCommand+0x48>
 80057ec:	f7ff fe6e 	bl	80054cc <xTaskGetSchedulerState>
 80057f0:	2300      	movs	r3, #0
 80057f2:	2802      	cmp	r0, #2
 80057f4:	bf18      	it	ne
 80057f6:	461a      	movne	r2, r3
 80057f8:	4669      	mov	r1, sp
 80057fa:	bf08      	it	eq
 80057fc:	9a08      	ldreq	r2, [sp, #32]
 80057fe:	6828      	ldr	r0, [r5, #0]
 8005800:	f7fe fe62 	bl	80044c8 <xQueueGenericSend>
 8005804:	b004      	add	sp, #16
 8005806:	bd70      	pop	{r4, r5, r6, pc}
 8005808:	2300      	movs	r3, #0
 800580a:	4669      	mov	r1, sp
 800580c:	f7fe ff5f 	bl	80046ce <xQueueGenericSendFromISR>
 8005810:	e7f8      	b.n	8005804 <xTimerGenericCommand+0x44>
 8005812:	bf00      	nop
 8005814:	200015b8 	.word	0x200015b8

08005818 <prvSampleTimeNow>:
 8005818:	e92d 47f3 	stmdb	sp!, {r0, r1, r4, r5, r6, r7, r8, r9, sl, lr}
 800581c:	4606      	mov	r6, r0
 800581e:	f7ff fba7 	bl	8004f70 <xTaskGetTickCount>
 8005822:	f8df 808c 	ldr.w	r8, [pc, #140]	@ 80058b0 <prvSampleTimeNow+0x98>
 8005826:	4605      	mov	r5, r0
 8005828:	f8d8 3000 	ldr.w	r3, [r8]
 800582c:	4283      	cmp	r3, r0
 800582e:	d909      	bls.n	8005844 <prvSampleTimeNow+0x2c>
 8005830:	4f20      	ldr	r7, [pc, #128]	@ (80058b4 <prvSampleTimeNow+0x9c>)
 8005832:	683b      	ldr	r3, [r7, #0]
 8005834:	681a      	ldr	r2, [r3, #0]
 8005836:	b96a      	cbnz	r2, 8005854 <prvSampleTimeNow+0x3c>
 8005838:	4a1f      	ldr	r2, [pc, #124]	@ (80058b8 <prvSampleTimeNow+0xa0>)
 800583a:	6811      	ldr	r1, [r2, #0]
 800583c:	6013      	str	r3, [r2, #0]
 800583e:	6039      	str	r1, [r7, #0]
 8005840:	2301      	movs	r3, #1
 8005842:	e000      	b.n	8005846 <prvSampleTimeNow+0x2e>
 8005844:	2300      	movs	r3, #0
 8005846:	4628      	mov	r0, r5
 8005848:	6033      	str	r3, [r6, #0]
 800584a:	f8c8 5000 	str.w	r5, [r8]
 800584e:	b002      	add	sp, #8
 8005850:	e8bd 87f0 	ldmia.w	sp!, {r4, r5, r6, r7, r8, r9, sl, pc}
 8005854:	68db      	ldr	r3, [r3, #12]
 8005856:	68dc      	ldr	r4, [r3, #12]
 8005858:	f8d3 9000 	ldr.w	r9, [r3]
 800585c:	f104 0a04 	add.w	sl, r4, #4
 8005860:	4650      	mov	r0, sl
 8005862:	f7fe fca5 	bl	80041b0 <uxListRemove>
 8005866:	6a23      	ldr	r3, [r4, #32]
 8005868:	4620      	mov	r0, r4
 800586a:	4798      	blx	r3
 800586c:	f894 3028 	ldrb.w	r3, [r4, #40]	@ 0x28
 8005870:	075b      	lsls	r3, r3, #29
 8005872:	d5de      	bpl.n	8005832 <prvSampleTimeNow+0x1a>
 8005874:	69a3      	ldr	r3, [r4, #24]
 8005876:	444b      	add	r3, r9
 8005878:	4599      	cmp	r9, r3
 800587a:	d206      	bcs.n	800588a <prvSampleTimeNow+0x72>
 800587c:	4651      	mov	r1, sl
 800587e:	6838      	ldr	r0, [r7, #0]
 8005880:	6063      	str	r3, [r4, #4]
 8005882:	6124      	str	r4, [r4, #16]
 8005884:	f7fe fc7d 	bl	8004182 <vListInsert>
 8005888:	e7d3      	b.n	8005832 <prvSampleTimeNow+0x1a>
 800588a:	2300      	movs	r3, #0
 800588c:	464a      	mov	r2, r9
 800588e:	4619      	mov	r1, r3
 8005890:	4620      	mov	r0, r4
 8005892:	9300      	str	r3, [sp, #0]
 8005894:	f7ff ff94 	bl	80057c0 <xTimerGenericCommand>
 8005898:	2800      	cmp	r0, #0
 800589a:	d1ca      	bne.n	8005832 <prvSampleTimeNow+0x1a>
 800589c:	f04f 0350 	mov.w	r3, #80	@ 0x50
 80058a0:	f383 8811 	msr	BASEPRI, r3
 80058a4:	f3bf 8f6f 	isb	sy
 80058a8:	f3bf 8f4f 	dsb	sy
 80058ac:	e7fe      	b.n	80058ac <prvSampleTimeNow+0x94>
 80058ae:	bf00      	nop
 80058b0:	200015b0 	.word	0x200015b0
 80058b4:	200015c0 	.word	0x200015c0
 80058b8:	200015bc 	.word	0x200015bc

080058bc <prvTimerTask>:
 80058bc:	e92d 43f0 	stmdb	sp!, {r4, r5, r6, r7, r8, r9, lr}
 80058c0:	4d6e      	ldr	r5, [pc, #440]	@ (8005a7c <prvTimerTask+0x1c0>)
 80058c2:	4e6f      	ldr	r6, [pc, #444]	@ (8005a80 <prvTimerTask+0x1c4>)
 80058c4:	b089      	sub	sp, #36	@ 0x24
 80058c6:	682b      	ldr	r3, [r5, #0]
 80058c8:	f8d3 8000 	ldr.w	r8, [r3]
 80058cc:	f1b8 0f00 	cmp.w	r8, #0
 80058d0:	d035      	beq.n	800593e <prvTimerTask+0x82>
 80058d2:	2400      	movs	r4, #0
 80058d4:	68db      	ldr	r3, [r3, #12]
 80058d6:	f8d3 8000 	ldr.w	r8, [r3]
 80058da:	f7ff fb41 	bl	8004f60 <vTaskSuspendAll>
 80058de:	a804      	add	r0, sp, #16
 80058e0:	f7ff ff9a 	bl	8005818 <prvSampleTimeNow>
 80058e4:	9b04      	ldr	r3, [sp, #16]
 80058e6:	4681      	mov	r9, r0
 80058e8:	2b00      	cmp	r3, #0
 80058ea:	d169      	bne.n	80059c0 <prvTimerTask+0x104>
 80058ec:	2c00      	cmp	r4, #0
 80058ee:	d14c      	bne.n	800598a <prvTimerTask+0xce>
 80058f0:	4540      	cmp	r0, r8
 80058f2:	d350      	bcc.n	8005996 <prvTimerTask+0xda>
 80058f4:	f7ff fbda 	bl	80050ac <xTaskResumeAll>
 80058f8:	682b      	ldr	r3, [r5, #0]
 80058fa:	68db      	ldr	r3, [r3, #12]
 80058fc:	68df      	ldr	r7, [r3, #12]
 80058fe:	1d38      	adds	r0, r7, #4
 8005900:	f7fe fc56 	bl	80041b0 <uxListRemove>
 8005904:	f897 3028 	ldrb.w	r3, [r7, #40]	@ 0x28
 8005908:	0758      	lsls	r0, r3, #29
 800590a:	d51a      	bpl.n	8005942 <prvTimerTask+0x86>
 800590c:	69b9      	ldr	r1, [r7, #24]
 800590e:	4643      	mov	r3, r8
 8005910:	464a      	mov	r2, r9
 8005912:	4638      	mov	r0, r7
 8005914:	4441      	add	r1, r8
 8005916:	f7ff fecf 	bl	80056b8 <prvInsertTimerInActiveList>
 800591a:	b1b0      	cbz	r0, 800594a <prvTimerTask+0x8e>
 800591c:	4623      	mov	r3, r4
 800591e:	4642      	mov	r2, r8
 8005920:	4621      	mov	r1, r4
 8005922:	4638      	mov	r0, r7
 8005924:	9400      	str	r4, [sp, #0]
 8005926:	f7ff ff4b 	bl	80057c0 <xTimerGenericCommand>
 800592a:	b970      	cbnz	r0, 800594a <prvTimerTask+0x8e>
 800592c:	f04f 0350 	mov.w	r3, #80	@ 0x50
 8005930:	f383 8811 	msr	BASEPRI, r3
 8005934:	f3bf 8f6f 	isb	sy
 8005938:	f3bf 8f4f 	dsb	sy
 800593c:	e7fe      	b.n	800593c <prvTimerTask+0x80>
 800593e:	2401      	movs	r4, #1
 8005940:	e7cb      	b.n	80058da <prvTimerTask+0x1e>
 8005942:	f023 0301 	bic.w	r3, r3, #1
 8005946:	f887 3028 	strb.w	r3, [r7, #40]	@ 0x28
 800594a:	4638      	mov	r0, r7
 800594c:	6a3b      	ldr	r3, [r7, #32]
 800594e:	4798      	blx	r3
 8005950:	2200      	movs	r2, #0
 8005952:	6830      	ldr	r0, [r6, #0]
 8005954:	a904      	add	r1, sp, #16
 8005956:	f7fe ff17 	bl	8004788 <xQueueReceive>
 800595a:	2800      	cmp	r0, #0
 800595c:	d0b3      	beq.n	80058c6 <prvTimerTask+0xa>
 800595e:	9b04      	ldr	r3, [sp, #16]
 8005960:	9806      	ldr	r0, [sp, #24]
 8005962:	2b00      	cmp	r3, #0
 8005964:	db2f      	blt.n	80059c6 <prvTimerTask+0x10a>
 8005966:	9c06      	ldr	r4, [sp, #24]
 8005968:	6963      	ldr	r3, [r4, #20]
 800596a:	2b00      	cmp	r3, #0
 800596c:	d132      	bne.n	80059d4 <prvTimerTask+0x118>
 800596e:	a803      	add	r0, sp, #12
 8005970:	f7ff ff52 	bl	8005818 <prvSampleTimeNow>
 8005974:	9b04      	ldr	r3, [sp, #16]
 8005976:	4602      	mov	r2, r0
 8005978:	2b09      	cmp	r3, #9
 800597a:	d8e9      	bhi.n	8005950 <prvTimerTask+0x94>
 800597c:	e8df f003 	tbb	[pc, r3]
 8005980:	572e2e2e 	.word	0x572e2e2e
 8005984:	2e2e765e 	.word	0x2e2e765e
 8005988:	5e57      	.short	0x5e57
 800598a:	4b3e      	ldr	r3, [pc, #248]	@ (8005a84 <prvTimerTask+0x1c8>)
 800598c:	681b      	ldr	r3, [r3, #0]
 800598e:	681c      	ldr	r4, [r3, #0]
 8005990:	fab4 f484 	clz	r4, r4
 8005994:	0964      	lsrs	r4, r4, #5
 8005996:	4622      	mov	r2, r4
 8005998:	6830      	ldr	r0, [r6, #0]
 800599a:	eba8 0109 	sub.w	r1, r8, r9
 800599e:	f7ff f8ae 	bl	8004afe <vQueueWaitForMessageRestricted>
 80059a2:	f7ff fb83 	bl	80050ac <xTaskResumeAll>
 80059a6:	2800      	cmp	r0, #0
 80059a8:	d1d2      	bne.n	8005950 <prvTimerTask+0x94>
 80059aa:	f04f 23e0 	mov.w	r3, #3758153728	@ 0xe000e000
 80059ae:	f04f 5280 	mov.w	r2, #268435456	@ 0x10000000
 80059b2:	f8c3 2d04 	str.w	r2, [r3, #3332]	@ 0xd04
 80059b6:	f3bf 8f4f 	dsb	sy
 80059ba:	f3bf 8f6f 	isb	sy
 80059be:	e7c7      	b.n	8005950 <prvTimerTask+0x94>
 80059c0:	f7ff fb74 	bl	80050ac <xTaskResumeAll>
 80059c4:	e7c4      	b.n	8005950 <prvTimerTask+0x94>
 80059c6:	9b05      	ldr	r3, [sp, #20]
 80059c8:	9907      	ldr	r1, [sp, #28]
 80059ca:	4798      	blx	r3
 80059cc:	9b04      	ldr	r3, [sp, #16]
 80059ce:	2b00      	cmp	r3, #0
 80059d0:	dbbe      	blt.n	8005950 <prvTimerTask+0x94>
 80059d2:	e7c8      	b.n	8005966 <prvTimerTask+0xaa>
 80059d4:	1d20      	adds	r0, r4, #4
 80059d6:	f7fe fbeb 	bl	80041b0 <uxListRemove>
 80059da:	e7c8      	b.n	800596e <prvTimerTask+0xb2>
 80059dc:	f894 3028 	ldrb.w	r3, [r4, #40]	@ 0x28
 80059e0:	69a1      	ldr	r1, [r4, #24]
 80059e2:	f043 0301 	orr.w	r3, r3, #1
 80059e6:	f884 3028 	strb.w	r3, [r4, #40]	@ 0x28
 80059ea:	9b05      	ldr	r3, [sp, #20]
 80059ec:	4620      	mov	r0, r4
 80059ee:	4419      	add	r1, r3
 80059f0:	f7ff fe62 	bl	80056b8 <prvInsertTimerInActiveList>
 80059f4:	2800      	cmp	r0, #0
 80059f6:	d0ab      	beq.n	8005950 <prvTimerTask+0x94>
 80059f8:	6a23      	ldr	r3, [r4, #32]
 80059fa:	4620      	mov	r0, r4
 80059fc:	4798      	blx	r3
 80059fe:	f894 3028 	ldrb.w	r3, [r4, #40]	@ 0x28
 8005a02:	0759      	lsls	r1, r3, #29
 8005a04:	d5a4      	bpl.n	8005950 <prvTimerTask+0x94>
 8005a06:	2300      	movs	r3, #0
 8005a08:	69a2      	ldr	r2, [r4, #24]
 8005a0a:	9905      	ldr	r1, [sp, #20]
 8005a0c:	4620      	mov	r0, r4
 8005a0e:	440a      	add	r2, r1
 8005a10:	9300      	str	r3, [sp, #0]
 8005a12:	4619      	mov	r1, r3
 8005a14:	f7ff fed4 	bl	80057c0 <xTimerGenericCommand>
 8005a18:	2800      	cmp	r0, #0
 8005a1a:	d199      	bne.n	8005950 <prvTimerTask+0x94>
 8005a1c:	f04f 0350 	mov.w	r3, #80	@ 0x50
 8005a20:	f383 8811 	msr	BASEPRI, r3
 8005a24:	f3bf 8f6f 	isb	sy
 8005a28:	f3bf 8f4f 	dsb	sy
 8005a2c:	e7fe      	b.n	8005a2c <prvTimerTask+0x170>
 8005a2e:	f894 3028 	ldrb.w	r3, [r4, #40]	@ 0x28
 8005a32:	f023 0301 	bic.w	r3, r3, #1
 8005a36:	f884 3028 	strb.w	r3, [r4, #40]	@ 0x28
 8005a3a:	e789      	b.n	8005950 <prvTimerTask+0x94>
 8005a3c:	f894 3028 	ldrb.w	r3, [r4, #40]	@ 0x28
 8005a40:	f043 0301 	orr.w	r3, r3, #1
 8005a44:	f884 3028 	strb.w	r3, [r4, #40]	@ 0x28
 8005a48:	9905      	ldr	r1, [sp, #20]
 8005a4a:	61a1      	str	r1, [r4, #24]
 8005a4c:	b941      	cbnz	r1, 8005a60 <prvTimerTask+0x1a4>
 8005a4e:	f04f 0350 	mov.w	r3, #80	@ 0x50
 8005a52:	f383 8811 	msr	BASEPRI, r3
 8005a56:	f3bf 8f6f 	isb	sy
 8005a5a:	f3bf 8f4f 	dsb	sy
 8005a5e:	e7fe      	b.n	8005a5e <prvTimerTask+0x1a2>
 8005a60:	4603      	mov	r3, r0
 8005a62:	4401      	add	r1, r0
 8005a64:	4620      	mov	r0, r4
 8005a66:	f7ff fe27 	bl	80056b8 <prvInsertTimerInActiveList>
 8005a6a:	e771      	b.n	8005950 <prvTimerTask+0x94>
 8005a6c:	f894 3028 	ldrb.w	r3, [r4, #40]	@ 0x28
 8005a70:	079a      	lsls	r2, r3, #30
 8005a72:	d4de      	bmi.n	8005a32 <prvTimerTask+0x176>
 8005a74:	4620      	mov	r0, r4
 8005a76:	f000 fa39 	bl	8005eec <vPortFree>
 8005a7a:	e769      	b.n	8005950 <prvTimerTask+0x94>
 8005a7c:	200015c0 	.word	0x200015c0
 8005a80:	200015b8 	.word	0x200015b8
 8005a84:	200015bc 	.word	0x200015bc

08005a88 <xTimerPendFunctionCallFromISR>:
 8005a88:	b51f      	push	{r0, r1, r2, r3, r4, lr}
 8005a8a:	4614      	mov	r4, r2
 8005a8c:	461a      	mov	r2, r3
 8005a8e:	f06f 0301 	mvn.w	r3, #1
 8005a92:	e9cd 3000 	strd	r3, r0, [sp]
 8005a96:	4805      	ldr	r0, [pc, #20]	@ (8005aac <xTimerPendFunctionCallFromISR+0x24>)
 8005a98:	e9cd 1402 	strd	r1, r4, [sp, #8]
 8005a9c:	2300      	movs	r3, #0
 8005a9e:	4669      	mov	r1, sp
 8005aa0:	6800      	ldr	r0, [r0, #0]
 8005aa2:	f7fe fe14 	bl	80046ce <xQueueGenericSendFromISR>
 8005aa6:	b004      	add	sp, #16
 8005aa8:	bd10      	pop	{r4, pc}
 8005aaa:	bf00      	nop
 8005aac:	200015b8 	.word	0x200015b8

08005ab0 <prvPortStartFirstTask>:
 8005ab0:	4806      	ldr	r0, [pc, #24]	@ (8005acc <prvPortStartFirstTask+0x1c>)
 8005ab2:	6800      	ldr	r0, [r0, #0]
 8005ab4:	6800      	ldr	r0, [r0, #0]
 8005ab6:	f380 8808 	msr	MSP, r0
 8005aba:	b662      	cpsie	i
 8005abc:	b661      	cpsie	f
 8005abe:	f3bf 8f4f 	dsb	sy
 8005ac2:	f3bf 8f6f 	isb	sy
 8005ac6:	df00      	svc	0
 8005ac8:	bf00      	nop
 8005aca:	0000      	.short	0x0000
 8005acc:	e000ed08 	.word	0xe000ed08

08005ad0 <prvTaskExitError>:
 8005ad0:	2300      	movs	r3, #0
 8005ad2:	b082      	sub	sp, #8
 8005ad4:	9301      	str	r3, [sp, #4]
 8005ad6:	4b0d      	ldr	r3, [pc, #52]	@ (8005b0c <prvTaskExitError+0x3c>)
 8005ad8:	681b      	ldr	r3, [r3, #0]
 8005ada:	3301      	adds	r3, #1
 8005adc:	d008      	beq.n	8005af0 <prvTaskExitError+0x20>
 8005ade:	f04f 0350 	mov.w	r3, #80	@ 0x50
 8005ae2:	f383 8811 	msr	BASEPRI, r3
 8005ae6:	f3bf 8f6f 	isb	sy
 8005aea:	f3bf 8f4f 	dsb	sy
 8005aee:	e7fe      	b.n	8005aee <prvTaskExitError+0x1e>
 8005af0:	f04f 0350 	mov.w	r3, #80	@ 0x50
 8005af4:	f383 8811 	msr	BASEPRI, r3
 8005af8:	f3bf 8f6f 	isb	sy
 8005afc:	f3bf 8f4f 	dsb	sy
 8005b00:	9b01      	ldr	r3, [sp, #4]
 8005b02:	2b00      	cmp	r3, #0
 8005b04:	d0fc      	beq.n	8005b00 <prvTaskExitError+0x30>
 8005b06:	b002      	add	sp, #8
 8005b08:	4770      	bx	lr
 8005b0a:	bf00      	nop
 8005b0c:	20000014 	.word	0x20000014

08005b10 <pxPortInitialiseStack>:
 8005b10:	f04f 7380 	mov.w	r3, #16777216	@ 0x1000000
 8005b14:	f840 3c04 	str.w	r3, [r0, #-4]
 8005b18:	4b05      	ldr	r3, [pc, #20]	@ (8005b30 <pxPortInitialiseStack+0x20>)
 8005b1a:	f021 0101 	bic.w	r1, r1, #1
 8005b1e:	f840 1c08 	str.w	r1, [r0, #-8]
 8005b22:	f840 3c0c 	str.w	r3, [r0, #-12]
 8005b26:	f840 2c20 	str.w	r2, [r0, #-32]
 8005b2a:	3840      	subs	r0, #64	@ 0x40
 8005b2c:	4770      	bx	lr
 8005b2e:	bf00      	nop
 8005b30:	08005ad1 	.word	0x08005ad1
	...

08005b40 <SVC_Handler>:
 8005b40:	4b07      	ldr	r3, [pc, #28]	@ (8005b60 <pxCurrentTCBConst2>)
 8005b42:	6819      	ldr	r1, [r3, #0]
 8005b44:	6808      	ldr	r0, [r1, #0]
 8005b46:	e8b0 0ff0 	ldmia.w	r0!, {r4, r5, r6, r7, r8, r9, sl, fp}
 8005b4a:	f380 8809 	msr	PSP, r0
 8005b4e:	f3bf 8f6f 	isb	sy
 8005b52:	f04f 0000 	mov.w	r0, #0
 8005b56:	f380 8811 	msr	BASEPRI, r0
 8005b5a:	f04e 0e0d 	orr.w	lr, lr, #13
 8005b5e:	4770      	bx	lr

08005b60 <pxCurrentTCBConst2>:
 8005b60:	200014bc 	.word	0x200014bc

08005b64 <vPortEnterCritical>:
 8005b64:	f04f 0350 	mov.w	r3, #80	@ 0x50
 8005b68:	f383 8811 	msr	BASEPRI, r3
 8005b6c:	f3bf 8f6f 	isb	sy
 8005b70:	f3bf 8f4f 	dsb	sy
 8005b74:	4a0a      	ldr	r2, [pc, #40]	@ (8005ba0 <vPortEnterCritical+0x3c>)
 8005b76:	6813      	ldr	r3, [r2, #0]
 8005b78:	3301      	adds	r3, #1
 8005b7a:	2b01      	cmp	r3, #1
 8005b7c:	6013      	str	r3, [r2, #0]
 8005b7e:	d10e      	bne.n	8005b9e <vPortEnterCritical+0x3a>
 8005b80:	f04f 23e0 	mov.w	r3, #3758153728	@ 0xe000e000
 8005b84:	f8d3 3d04 	ldr.w	r3, [r3, #3332]	@ 0xd04
 8005b88:	b2db      	uxtb	r3, r3
 8005b8a:	b143      	cbz	r3, 8005b9e <vPortEnterCritical+0x3a>
 8005b8c:	f04f 0350 	mov.w	r3, #80	@ 0x50
 8005b90:	f383 8811 	msr	BASEPRI, r3
 8005b94:	f3bf 8f6f 	isb	sy
 8005b98:	f3bf 8f4f 	dsb	sy
 8005b9c:	e7fe      	b.n	8005b9c <vPortEnterCritical+0x38>
 8005b9e:	4770      	bx	lr
 8005ba0:	20000014 	.word	0x20000014

08005ba4 <vPortExitCritical>:
 8005ba4:	4a08      	ldr	r2, [pc, #32]	@ (8005bc8 <vPortExitCritical+0x24>)
 8005ba6:	6813      	ldr	r3, [r2, #0]
 8005ba8:	b943      	cbnz	r3, 8005bbc <vPortExitCritical+0x18>
 8005baa:	f04f 0350 	mov.w	r3, #80	@ 0x50
 8005bae:	f383 8811 	msr	BASEPRI, r3
 8005bb2:	f3bf 8f6f 	isb	sy
 8005bb6:	f3bf 8f4f 	dsb	sy
 8005bba:	e7fe      	b.n	8005bba <vPortExitCritical+0x16>
 8005bbc:	3b01      	subs	r3, #1
 8005bbe:	6013      	str	r3, [r2, #0]
 8005bc0:	b90b      	cbnz	r3, 8005bc6 <vPortExitCritical+0x22>
 8005bc2:	f383 8811 	msr	BASEPRI, r3
 8005bc6:	4770      	bx	lr
 8005bc8:	20000014 	.word	0x20000014
 8005bcc:	00000000 	.word	0x00000000

08005bd0 <PendSV_Handler>:
 8005bd0:	f3ef 8009 	mrs	r0, PSP
 8005bd4:	f3bf 8f6f 	isb	sy
 8005bd8:	4b0d      	ldr	r3, [pc, #52]	@ (8005c10 <pxCurrentTCBConst>)
 8005bda:	681a      	ldr	r2, [r3, #0]
 8005bdc:	e920 0ff0 	stmdb	r0!, {r4, r5, r6, r7, r8, r9, sl, fp}
 8005be0:	6010      	str	r0, [r2, #0]
 8005be2:	e92d 4008 	stmdb	sp!, {r3, lr}
 8005be6:	f04f 0050 	mov.w	r0, #80	@ 0x50
 8005bea:	f380 8811 	msr	BASEPRI, r0
 8005bee:	f7ff faf5 	bl	80051dc <vTaskSwitchContext>
 8005bf2:	f04f 0000 	mov.w	r0, #0
 8005bf6:	f380 8811 	msr	BASEPRI, r0
 8005bfa:	e8bd 4008 	ldmia.w	sp!, {r3, lr}
 8005bfe:	6819      	ldr	r1, [r3, #0]
 8005c00:	6808      	ldr	r0, [r1, #0]
 8005c02:	e8b0 0ff0 	ldmia.w	r0!, {r4, r5, r6, r7, r8, r9, sl, fp}
 8005c06:	f380 8809 	msr	PSP, r0
 8005c0a:	f3bf 8f6f 	isb	sy
 8005c0e:	4770      	bx	lr

08005c10 <pxCurrentTCBConst>:
 8005c10:	200014bc 	.word	0x200014bc

08005c14 <xPortSysTickHandler>:
 8005c14:	b508      	push	{r3, lr}
 8005c16:	f04f 0350 	mov.w	r3, #80	@ 0x50
 8005c1a:	f383 8811 	msr	BASEPRI, r3
 8005c1e:	f3bf 8f6f 	isb	sy
 8005c22:	f3bf 8f4f 	dsb	sy
 8005c26:	f7ff f9a9 	bl	8004f7c <xTaskIncrementTick>
 8005c2a:	b128      	cbz	r0, 8005c38 <xPortSysTickHandler+0x24>
 8005c2c:	f04f 23e0 	mov.w	r3, #3758153728	@ 0xe000e000
 8005c30:	f04f 5280 	mov.w	r2, #268435456	@ 0x10000000
 8005c34:	f8c3 2d04 	str.w	r2, [r3, #3332]	@ 0xd04
 8005c38:	2300      	movs	r3, #0
 8005c3a:	f383 8811 	msr	BASEPRI, r3
 8005c3e:	bd08      	pop	{r3, pc}

08005c40 <vPortSetupTimerInterrupt>:
 8005c40:	f04f 22e0 	mov.w	r2, #3758153728	@ 0xe000e000
 8005c44:	2300      	movs	r3, #0
 8005c46:	f44f 717a 	mov.w	r1, #1000	@ 0x3e8
 8005c4a:	6113      	str	r3, [r2, #16]
 8005c4c:	6193      	str	r3, [r2, #24]
 8005c4e:	4b04      	ldr	r3, [pc, #16]	@ (8005c60 <vPortSetupTimerInterrupt+0x20>)
 8005c50:	681b      	ldr	r3, [r3, #0]
 8005c52:	fbb3 f3f1 	udiv	r3, r3, r1
 8005c56:	3b01      	subs	r3, #1
 8005c58:	6153      	str	r3, [r2, #20]
 8005c5a:	2307      	movs	r3, #7
 8005c5c:	6113      	str	r3, [r2, #16]
 8005c5e:	4770      	bx	lr
 8005c60:	20000008 	.word	0x20000008

08005c64 <xPortStartScheduler>:
 8005c64:	b513      	push	{r0, r1, r4, lr}
 8005c66:	4b27      	ldr	r3, [pc, #156]	@ (8005d04 <xPortStartScheduler+0xa0>)
 8005c68:	781a      	ldrb	r2, [r3, #0]
 8005c6a:	b2d2      	uxtb	r2, r2
 8005c6c:	9201      	str	r2, [sp, #4]
 8005c6e:	22ff      	movs	r2, #255	@ 0xff
 8005c70:	701a      	strb	r2, [r3, #0]
 8005c72:	781b      	ldrb	r3, [r3, #0]
 8005c74:	4a24      	ldr	r2, [pc, #144]	@ (8005d08 <xPortStartScheduler+0xa4>)
 8005c76:	b2db      	uxtb	r3, r3
 8005c78:	f88d 3003 	strb.w	r3, [sp, #3]
 8005c7c:	f89d 3003 	ldrb.w	r3, [sp, #3]
 8005c80:	f003 0350 	and.w	r3, r3, #80	@ 0x50
 8005c84:	7013      	strb	r3, [r2, #0]
 8005c86:	2307      	movs	r3, #7
 8005c88:	4a20      	ldr	r2, [pc, #128]	@ (8005d0c <xPortStartScheduler+0xa8>)
 8005c8a:	6013      	str	r3, [r2, #0]
 8005c8c:	f89d 1003 	ldrb.w	r1, [sp, #3]
 8005c90:	6813      	ldr	r3, [r2, #0]
 8005c92:	0609      	lsls	r1, r1, #24
 8005c94:	d40a      	bmi.n	8005cac <xPortStartScheduler+0x48>
 8005c96:	2b03      	cmp	r3, #3
 8005c98:	d011      	beq.n	8005cbe <xPortStartScheduler+0x5a>
 8005c9a:	f04f 0350 	mov.w	r3, #80	@ 0x50
 8005c9e:	f383 8811 	msr	BASEPRI, r3
 8005ca2:	f3bf 8f6f 	isb	sy
 8005ca6:	f3bf 8f4f 	dsb	sy
 8005caa:	e7fe      	b.n	8005caa <xPortStartScheduler+0x46>
 8005cac:	3b01      	subs	r3, #1
 8005cae:	6013      	str	r3, [r2, #0]
 8005cb0:	f89d 3003 	ldrb.w	r3, [sp, #3]
 8005cb4:	005b      	lsls	r3, r3, #1
 8005cb6:	b2db      	uxtb	r3, r3
 8005cb8:	f88d 3003 	strb.w	r3, [sp, #3]
 8005cbc:	e7e6      	b.n	8005c8c <xPortStartScheduler+0x28>
 8005cbe:	f44f 7340 	mov.w	r3, #768	@ 0x300
 8005cc2:	6013      	str	r3, [r2, #0]
 8005cc4:	9b01      	ldr	r3, [sp, #4]
 8005cc6:	4a0f      	ldr	r2, [pc, #60]	@ (8005d04 <xPortStartScheduler+0xa0>)
 8005cc8:	b2db      	uxtb	r3, r3
 8005cca:	7013      	strb	r3, [r2, #0]
 8005ccc:	f04f 23e0 	mov.w	r3, #3758153728	@ 0xe000e000
 8005cd0:	2400      	movs	r4, #0
 8005cd2:	f8d3 2d20 	ldr.w	r2, [r3, #3360]	@ 0xd20
 8005cd6:	f442 0270 	orr.w	r2, r2, #15728640	@ 0xf00000
 8005cda:	f8c3 2d20 	str.w	r2, [r3, #3360]	@ 0xd20
 8005cde:	f8d3 2d20 	ldr.w	r2, [r3, #3360]	@ 0xd20
 8005ce2:	f042 4270 	orr.w	r2, r2, #4026531840	@ 0xf0000000
 8005ce6:	f8c3 2d20 	str.w	r2, [r3, #3360]	@ 0xd20
 8005cea:	f7ff ffa9 	bl	8005c40 <vPortSetupTimerInterrupt>
 8005cee:	4b08      	ldr	r3, [pc, #32]	@ (8005d10 <xPortStartScheduler+0xac>)
 8005cf0:	601c      	str	r4, [r3, #0]
 8005cf2:	f7ff fedd 	bl	8005ab0 <prvPortStartFirstTask>
 8005cf6:	f7ff fa71 	bl	80051dc <vTaskSwitchContext>
 8005cfa:	4620      	mov	r0, r4
 8005cfc:	f7ff fee8 	bl	8005ad0 <prvTaskExitError>
 8005d00:	b002      	add	sp, #8
 8005d02:	bd10      	pop	{r4, pc}
 8005d04:	e000e400 	.word	0xe000e400
 8005d08:	200015f0 	.word	0x200015f0
 8005d0c:	200015ec 	.word	0x200015ec
 8005d10:	20000014 	.word	0x20000014

08005d14 <vPortValidateInterruptPriority>:
 8005d14:	f3ef 8305 	mrs	r3, IPSR
 8005d18:	2b0f      	cmp	r3, #15
 8005d1a:	d90e      	bls.n	8005d3a <vPortValidateInterruptPriority+0x26>
 8005d1c:	4a11      	ldr	r2, [pc, #68]	@ (8005d64 <vPortValidateInterruptPriority+0x50>)
 8005d1e:	5c9b      	ldrb	r3, [r3, r2]
 8005d20:	4a11      	ldr	r2, [pc, #68]	@ (8005d68 <vPortValidateInterruptPriority+0x54>)
 8005d22:	7812      	ldrb	r2, [r2, #0]
 8005d24:	429a      	cmp	r2, r3
 8005d26:	d908      	bls.n	8005d3a <vPortValidateInterruptPriority+0x26>
 8005d28:	f04f 0350 	mov.w	r3, #80	@ 0x50
 8005d2c:	f383 8811 	msr	BASEPRI, r3
 8005d30:	f3bf 8f6f 	isb	sy
 8005d34:	f3bf 8f4f 	dsb	sy
 8005d38:	e7fe      	b.n	8005d38 <vPortValidateInterruptPriority+0x24>
 8005d3a:	f04f 23e0 	mov.w	r3, #3758153728	@ 0xe000e000
 8005d3e:	4a0b      	ldr	r2, [pc, #44]	@ (8005d6c <vPortValidateInterruptPriority+0x58>)
 8005d40:	f8d3 3d0c 	ldr.w	r3, [r3, #3340]	@ 0xd0c
 8005d44:	6812      	ldr	r2, [r2, #0]
 8005d46:	f403 63e0 	and.w	r3, r3, #1792	@ 0x700
 8005d4a:	4293      	cmp	r3, r2
 8005d4c:	d908      	bls.n	8005d60 <vPortValidateInterruptPriority+0x4c>
 8005d4e:	f04f 0350 	mov.w	r3, #80	@ 0x50
 8005d52:	f383 8811 	msr	BASEPRI, r3
 8005d56:	f3bf 8f6f 	isb	sy
 8005d5a:	f3bf 8f4f 	dsb	sy
 8005d5e:	e7fe      	b.n	8005d5e <vPortValidateInterruptPriority+0x4a>
 8005d60:	4770      	bx	lr
 8005d62:	bf00      	nop
 8005d64:	e000e3f0 	.word	0xe000e3f0
 8005d68:	200015f0 	.word	0x200015f0
 8005d6c:	200015ec 	.word	0x200015ec

08005d70 <prvInsertBlockIntoFreeList>:
 8005d70:	b510      	push	{r4, lr}
 8005d72:	4b10      	ldr	r3, [pc, #64]	@ (8005db4 <prvInsertBlockIntoFreeList+0x44>)
 8005d74:	461a      	mov	r2, r3
 8005d76:	681b      	ldr	r3, [r3, #0]
 8005d78:	4283      	cmp	r3, r0
 8005d7a:	d3fb      	bcc.n	8005d74 <prvInsertBlockIntoFreeList+0x4>
 8005d7c:	6854      	ldr	r4, [r2, #4]
 8005d7e:	1911      	adds	r1, r2, r4
 8005d80:	4288      	cmp	r0, r1
 8005d82:	bf01      	itttt	eq
 8005d84:	6841      	ldreq	r1, [r0, #4]
 8005d86:	4610      	moveq	r0, r2
 8005d88:	1909      	addeq	r1, r1, r4
 8005d8a:	6051      	streq	r1, [r2, #4]
 8005d8c:	6844      	ldr	r4, [r0, #4]
 8005d8e:	1901      	adds	r1, r0, r4
 8005d90:	428b      	cmp	r3, r1
 8005d92:	d10c      	bne.n	8005dae <prvInsertBlockIntoFreeList+0x3e>
 8005d94:	4908      	ldr	r1, [pc, #32]	@ (8005db8 <prvInsertBlockIntoFreeList+0x48>)
 8005d96:	6809      	ldr	r1, [r1, #0]
 8005d98:	428b      	cmp	r3, r1
 8005d9a:	d003      	beq.n	8005da4 <prvInsertBlockIntoFreeList+0x34>
 8005d9c:	6859      	ldr	r1, [r3, #4]
 8005d9e:	4421      	add	r1, r4
 8005da0:	6041      	str	r1, [r0, #4]
 8005da2:	6819      	ldr	r1, [r3, #0]
 8005da4:	4290      	cmp	r0, r2
 8005da6:	6001      	str	r1, [r0, #0]
 8005da8:	bf18      	it	ne
 8005daa:	6010      	strne	r0, [r2, #0]
 8005dac:	bd10      	pop	{r4, pc}
 8005dae:	4619      	mov	r1, r3
 8005db0:	e7f8      	b.n	8005da4 <prvInsertBlockIntoFreeList+0x34>
 8005db2:	bf00      	nop
 8005db4:	2000160c 	.word	0x2000160c
 8005db8:	20001608 	.word	0x20001608

08005dbc <pvPortMalloc>:
 8005dbc:	e92d 41f0 	stmdb	sp!, {r4, r5, r6, r7, r8, lr}
 8005dc0:	4604      	mov	r4, r0
 8005dc2:	f7ff f8cd 	bl	8004f60 <vTaskSuspendAll>
 8005dc6:	4942      	ldr	r1, [pc, #264]	@ (8005ed0 <pvPortMalloc+0x114>)
 8005dc8:	4d42      	ldr	r5, [pc, #264]	@ (8005ed4 <pvPortMalloc+0x118>)
 8005dca:	680b      	ldr	r3, [r1, #0]
 8005dcc:	bb0b      	cbnz	r3, 8005e12 <pvPortMalloc+0x56>
 8005dce:	4a42      	ldr	r2, [pc, #264]	@ (8005ed8 <pvPortMalloc+0x11c>)
 8005dd0:	0756      	lsls	r6, r2, #29
 8005dd2:	bf1f      	itttt	ne
 8005dd4:	1dd0      	addne	r0, r2, #7
 8005dd6:	f020 0007 	bicne.w	r0, r0, #7
 8005dda:	f502 5220 	addne.w	r2, r2, #10240	@ 0x2800
 8005dde:	1a13      	subne	r3, r2, r0
 8005de0:	bf0c      	ite	eq
 8005de2:	f44f 5320 	moveq.w	r3, #10240	@ 0x2800
 8005de6:	4602      	movne	r2, r0
 8005de8:	2000      	movs	r0, #0
 8005dea:	4413      	add	r3, r2
 8005dec:	4e3b      	ldr	r6, [pc, #236]	@ (8005edc <pvPortMalloc+0x120>)
 8005dee:	3b08      	subs	r3, #8
 8005df0:	f023 0307 	bic.w	r3, r3, #7
 8005df4:	6070      	str	r0, [r6, #4]
 8005df6:	6032      	str	r2, [r6, #0]
 8005df8:	e9c3 0000 	strd	r0, r0, [r3]
 8005dfc:	1a98      	subs	r0, r3, r2
 8005dfe:	e9c2 3000 	strd	r3, r0, [r2]
 8005e02:	600b      	str	r3, [r1, #0]
 8005e04:	4b36      	ldr	r3, [pc, #216]	@ (8005ee0 <pvPortMalloc+0x124>)
 8005e06:	6018      	str	r0, [r3, #0]
 8005e08:	4b36      	ldr	r3, [pc, #216]	@ (8005ee4 <pvPortMalloc+0x128>)
 8005e0a:	6018      	str	r0, [r3, #0]
 8005e0c:	f04f 4300 	mov.w	r3, #2147483648	@ 0x80000000
 8005e10:	602b      	str	r3, [r5, #0]
 8005e12:	682e      	ldr	r6, [r5, #0]
 8005e14:	4226      	tst	r6, r4
 8005e16:	d155      	bne.n	8005ec4 <pvPortMalloc+0x108>
 8005e18:	2c00      	cmp	r4, #0
 8005e1a:	d046      	beq.n	8005eaa <pvPortMalloc+0xee>
 8005e1c:	f104 0308 	add.w	r3, r4, #8
 8005e20:	0760      	lsls	r0, r4, #29
 8005e22:	bf1c      	itt	ne
 8005e24:	f023 0307 	bicne.w	r3, r3, #7
 8005e28:	3308      	addne	r3, #8
 8005e2a:	2b00      	cmp	r3, #0
 8005e2c:	d04a      	beq.n	8005ec4 <pvPortMalloc+0x108>
 8005e2e:	4f2d      	ldr	r7, [pc, #180]	@ (8005ee4 <pvPortMalloc+0x128>)
 8005e30:	683c      	ldr	r4, [r7, #0]
 8005e32:	429c      	cmp	r4, r3
 8005e34:	d346      	bcc.n	8005ec4 <pvPortMalloc+0x108>
 8005e36:	4a29      	ldr	r2, [pc, #164]	@ (8005edc <pvPortMalloc+0x120>)
 8005e38:	6815      	ldr	r5, [r2, #0]
 8005e3a:	6868      	ldr	r0, [r5, #4]
 8005e3c:	4298      	cmp	r0, r3
 8005e3e:	d204      	bcs.n	8005e4a <pvPortMalloc+0x8e>
 8005e40:	f8d5 c000 	ldr.w	ip, [r5]
 8005e44:	f1bc 0f00 	cmp.w	ip, #0
 8005e48:	d115      	bne.n	8005e76 <pvPortMalloc+0xba>
 8005e4a:	6809      	ldr	r1, [r1, #0]
 8005e4c:	42a9      	cmp	r1, r5
 8005e4e:	d039      	beq.n	8005ec4 <pvPortMalloc+0x108>
 8005e50:	6829      	ldr	r1, [r5, #0]
 8005e52:	f8d2 8000 	ldr.w	r8, [r2]
 8005e56:	6011      	str	r1, [r2, #0]
 8005e58:	1ac2      	subs	r2, r0, r3
 8005e5a:	2a10      	cmp	r2, #16
 8005e5c:	d912      	bls.n	8005e84 <pvPortMalloc+0xc8>
 8005e5e:	18e8      	adds	r0, r5, r3
 8005e60:	0741      	lsls	r1, r0, #29
 8005e62:	d00b      	beq.n	8005e7c <pvPortMalloc+0xc0>
 8005e64:	f04f 0350 	mov.w	r3, #80	@ 0x50
 8005e68:	f383 8811 	msr	BASEPRI, r3
 8005e6c:	f3bf 8f6f 	isb	sy
 8005e70:	f3bf 8f4f 	dsb	sy
 8005e74:	e7fe      	b.n	8005e74 <pvPortMalloc+0xb8>
 8005e76:	462a      	mov	r2, r5
 8005e78:	4665      	mov	r5, ip
 8005e7a:	e7de      	b.n	8005e3a <pvPortMalloc+0x7e>
 8005e7c:	6042      	str	r2, [r0, #4]
 8005e7e:	606b      	str	r3, [r5, #4]
 8005e80:	f7ff ff76 	bl	8005d70 <prvInsertBlockIntoFreeList>
 8005e84:	2300      	movs	r3, #0
 8005e86:	686a      	ldr	r2, [r5, #4]
 8005e88:	4915      	ldr	r1, [pc, #84]	@ (8005ee0 <pvPortMalloc+0x124>)
 8005e8a:	1aa4      	subs	r4, r4, r2
 8005e8c:	4316      	orrs	r6, r2
 8005e8e:	4a16      	ldr	r2, [pc, #88]	@ (8005ee8 <pvPortMalloc+0x12c>)
 8005e90:	6808      	ldr	r0, [r1, #0]
 8005e92:	602b      	str	r3, [r5, #0]
 8005e94:	6813      	ldr	r3, [r2, #0]
 8005e96:	4284      	cmp	r4, r0
 8005e98:	f103 0301 	add.w	r3, r3, #1
 8005e9c:	603c      	str	r4, [r7, #0]
 8005e9e:	bf38      	it	cc
 8005ea0:	600c      	strcc	r4, [r1, #0]
 8005ea2:	606e      	str	r6, [r5, #4]
 8005ea4:	f108 0408 	add.w	r4, r8, #8
 8005ea8:	6013      	str	r3, [r2, #0]
 8005eaa:	f7ff f8ff 	bl	80050ac <xTaskResumeAll>
 8005eae:	0763      	lsls	r3, r4, #29
 8005eb0:	d00a      	beq.n	8005ec8 <pvPortMalloc+0x10c>
 8005eb2:	f04f 0350 	mov.w	r3, #80	@ 0x50
 8005eb6:	f383 8811 	msr	BASEPRI, r3
 8005eba:	f3bf 8f6f 	isb	sy
 8005ebe:	f3bf 8f4f 	dsb	sy
 8005ec2:	e7fe      	b.n	8005ec2 <pvPortMalloc+0x106>
 8005ec4:	2400      	movs	r4, #0
 8005ec6:	e7f0      	b.n	8005eaa <pvPortMalloc+0xee>
 8005ec8:	4620      	mov	r0, r4
 8005eca:	e8bd 81f0 	ldmia.w	sp!, {r4, r5, r6, r7, r8, pc}
 8005ece:	bf00      	nop
 8005ed0:	20001608 	.word	0x20001608
 8005ed4:	200015f4 	.word	0x200015f4
 8005ed8:	20001614 	.word	0x20001614
 8005edc:	2000160c 	.word	0x2000160c
 8005ee0:	20001600 	.word	0x20001600
 8005ee4:	20001604 	.word	0x20001604
 8005ee8:	200015fc 	.word	0x200015fc

08005eec <vPortFree>:
 8005eec:	b510      	push	{r4, lr}
 8005eee:	4604      	mov	r4, r0
 8005ef0:	b390      	cbz	r0, 8005f58 <vPortFree+0x6c>
 8005ef2:	4a1a      	ldr	r2, [pc, #104]	@ (8005f5c <vPortFree+0x70>)
 8005ef4:	f850 3c04 	ldr.w	r3, [r0, #-4]
 8005ef8:	6812      	ldr	r2, [r2, #0]
 8005efa:	4213      	tst	r3, r2
 8005efc:	d108      	bne.n	8005f10 <vPortFree+0x24>
 8005efe:	f04f 0350 	mov.w	r3, #80	@ 0x50
 8005f02:	f383 8811 	msr	BASEPRI, r3
 8005f06:	f3bf 8f6f 	isb	sy
 8005f0a:	f3bf 8f4f 	dsb	sy
 8005f0e:	e7fe      	b.n	8005f0e <vPortFree+0x22>
 8005f10:	f850 1c08 	ldr.w	r1, [r0, #-8]
 8005f14:	b141      	cbz	r1, 8005f28 <vPortFree+0x3c>
 8005f16:	f04f 0350 	mov.w	r3, #80	@ 0x50
 8005f1a:	f383 8811 	msr	BASEPRI, r3
 8005f1e:	f3bf 8f6f 	isb	sy
 8005f22:	f3bf 8f4f 	dsb	sy
 8005f26:	e7fe      	b.n	8005f26 <vPortFree+0x3a>
 8005f28:	ea23 0302 	bic.w	r3, r3, r2
 8005f2c:	f840 3c04 	str.w	r3, [r0, #-4]
 8005f30:	f7ff f816 	bl	8004f60 <vTaskSuspendAll>
 8005f34:	4a0a      	ldr	r2, [pc, #40]	@ (8005f60 <vPortFree+0x74>)
 8005f36:	f854 3c04 	ldr.w	r3, [r4, #-4]
 8005f3a:	6811      	ldr	r1, [r2, #0]
 8005f3c:	f1a4 0008 	sub.w	r0, r4, #8
 8005f40:	440b      	add	r3, r1
 8005f42:	6013      	str	r3, [r2, #0]
 8005f44:	f7ff ff14 	bl	8005d70 <prvInsertBlockIntoFreeList>
 8005f48:	e8bd 4010 	ldmia.w	sp!, {r4, lr}
 8005f4c:	4a05      	ldr	r2, [pc, #20]	@ (8005f64 <vPortFree+0x78>)
 8005f4e:	6813      	ldr	r3, [r2, #0]
 8005f50:	3301      	adds	r3, #1
 8005f52:	6013      	str	r3, [r2, #0]
 8005f54:	f7ff b8aa 	b.w	80050ac <xTaskResumeAll>
 8005f58:	bd10      	pop	{r4, pc}
 8005f5a:	bf00      	nop
 8005f5c:	200015f4 	.word	0x200015f4
 8005f60:	20001604 	.word	0x20001604
 8005f64:	200015f8 	.word	0x200015f8

08005f68 <__cvt>:
 8005f68:	2b00      	cmp	r3, #0
 8005f6a:	e92d 47f0 	stmdb	sp!, {r4, r5, r6, r7, r8, r9, sl, lr}
 8005f6e:	461d      	mov	r5, r3
 8005f70:	bfbb      	ittet	lt
 8005f72:	f103 4300 	addlt.w	r3, r3, #2147483648	@ 0x80000000
 8005f76:	461d      	movlt	r5, r3
 8005f78:	2300      	movge	r3, #0
 8005f7a:	232d      	movlt	r3, #45	@ 0x2d
 8005f7c:	b088      	sub	sp, #32
 8005f7e:	4614      	mov	r4, r2
 8005f80:	bfb8      	it	lt
 8005f82:	4614      	movlt	r4, r2
 8005f84:	9a12      	ldr	r2, [sp, #72]	@ 0x48
 8005f86:	9e10      	ldr	r6, [sp, #64]	@ 0x40
 8005f88:	7013      	strb	r3, [r2, #0]
 8005f8a:	9b14      	ldr	r3, [sp, #80]	@ 0x50
 8005f8c:	f8dd a04c 	ldr.w	sl, [sp, #76]	@ 0x4c
 8005f90:	f023 0820 	bic.w	r8, r3, #32
 8005f94:	f1b8 0f46 	cmp.w	r8, #70	@ 0x46
 8005f98:	d005      	beq.n	8005fa6 <__cvt+0x3e>
 8005f9a:	f1b8 0f45 	cmp.w	r8, #69	@ 0x45
 8005f9e:	d100      	bne.n	8005fa2 <__cvt+0x3a>
 8005fa0:	3601      	adds	r6, #1
 8005fa2:	2302      	movs	r3, #2
 8005fa4:	e000      	b.n	8005fa8 <__cvt+0x40>
 8005fa6:	2303      	movs	r3, #3
 8005fa8:	aa07      	add	r2, sp, #28
 8005faa:	9204      	str	r2, [sp, #16]
 8005fac:	aa06      	add	r2, sp, #24
 8005fae:	e9cd a202 	strd	sl, r2, [sp, #8]
 8005fb2:	e9cd 3600 	strd	r3, r6, [sp]
 8005fb6:	4622      	mov	r2, r4
 8005fb8:	462b      	mov	r3, r5
 8005fba:	f000 fea5 	bl	8006d08 <_dtoa_r>
 8005fbe:	f1b8 0f47 	cmp.w	r8, #71	@ 0x47
 8005fc2:	4607      	mov	r7, r0
 8005fc4:	d119      	bne.n	8005ffa <__cvt+0x92>
 8005fc6:	9b11      	ldr	r3, [sp, #68]	@ 0x44
 8005fc8:	07db      	lsls	r3, r3, #31
 8005fca:	d50e      	bpl.n	8005fea <__cvt+0x82>
 8005fcc:	eb00 0906 	add.w	r9, r0, r6
 8005fd0:	2200      	movs	r2, #0
 8005fd2:	2300      	movs	r3, #0
 8005fd4:	4620      	mov	r0, r4
 8005fd6:	4629      	mov	r1, r5
 8005fd8:	f7fa fce6 	bl	80009a8 <__aeabi_dcmpeq>
 8005fdc:	b108      	cbz	r0, 8005fe2 <__cvt+0x7a>
 8005fde:	f8cd 901c 	str.w	r9, [sp, #28]
 8005fe2:	2230      	movs	r2, #48	@ 0x30
 8005fe4:	9b07      	ldr	r3, [sp, #28]
 8005fe6:	454b      	cmp	r3, r9
 8005fe8:	d31e      	bcc.n	8006028 <__cvt+0xc0>
 8005fea:	4638      	mov	r0, r7
 8005fec:	9b07      	ldr	r3, [sp, #28]
 8005fee:	9a15      	ldr	r2, [sp, #84]	@ 0x54
 8005ff0:	1bdb      	subs	r3, r3, r7
 8005ff2:	6013      	str	r3, [r2, #0]
 8005ff4:	b008      	add	sp, #32
 8005ff6:	e8bd 87f0 	ldmia.w	sp!, {r4, r5, r6, r7, r8, r9, sl, pc}
 8005ffa:	f1b8 0f46 	cmp.w	r8, #70	@ 0x46
 8005ffe:	eb00 0906 	add.w	r9, r0, r6
 8006002:	d1e5      	bne.n	8005fd0 <__cvt+0x68>
 8006004:	7803      	ldrb	r3, [r0, #0]
 8006006:	2b30      	cmp	r3, #48	@ 0x30
 8006008:	d10a      	bne.n	8006020 <__cvt+0xb8>
 800600a:	2200      	movs	r2, #0
 800600c:	2300      	movs	r3, #0
 800600e:	4620      	mov	r0, r4
 8006010:	4629      	mov	r1, r5
 8006012:	f7fa fcc9 	bl	80009a8 <__aeabi_dcmpeq>
 8006016:	b918      	cbnz	r0, 8006020 <__cvt+0xb8>
 8006018:	f1c6 0601 	rsb	r6, r6, #1
 800601c:	f8ca 6000 	str.w	r6, [sl]
 8006020:	f8da 3000 	ldr.w	r3, [sl]
 8006024:	4499      	add	r9, r3
 8006026:	e7d3      	b.n	8005fd0 <__cvt+0x68>
 8006028:	1c59      	adds	r1, r3, #1
 800602a:	9107      	str	r1, [sp, #28]
 800602c:	701a      	strb	r2, [r3, #0]
 800602e:	e7d9      	b.n	8005fe4 <__cvt+0x7c>

08006030 <__exponent>:
 8006030:	b5f7      	push	{r0, r1, r2, r4, r5, r6, r7, lr}
 8006032:	2900      	cmp	r1, #0
 8006034:	bfb6      	itet	lt
 8006036:	232d      	movlt	r3, #45	@ 0x2d
 8006038:	232b      	movge	r3, #43	@ 0x2b
 800603a:	4249      	neglt	r1, r1
 800603c:	2909      	cmp	r1, #9
 800603e:	7002      	strb	r2, [r0, #0]
 8006040:	7043      	strb	r3, [r0, #1]
 8006042:	dd29      	ble.n	8006098 <__exponent+0x68>
 8006044:	f10d 0307 	add.w	r3, sp, #7
 8006048:	461d      	mov	r5, r3
 800604a:	270a      	movs	r7, #10
 800604c:	fbb1 f6f7 	udiv	r6, r1, r7
 8006050:	461a      	mov	r2, r3
 8006052:	fb07 1416 	mls	r4, r7, r6, r1
 8006056:	3430      	adds	r4, #48	@ 0x30
 8006058:	f802 4c01 	strb.w	r4, [r2, #-1]
 800605c:	460c      	mov	r4, r1
 800605e:	2c63      	cmp	r4, #99	@ 0x63
 8006060:	4631      	mov	r1, r6
 8006062:	f103 33ff 	add.w	r3, r3, #4294967295
 8006066:	dcf1      	bgt.n	800604c <__exponent+0x1c>
 8006068:	3130      	adds	r1, #48	@ 0x30
 800606a:	1e94      	subs	r4, r2, #2
 800606c:	f803 1c01 	strb.w	r1, [r3, #-1]
 8006070:	4623      	mov	r3, r4
 8006072:	1c41      	adds	r1, r0, #1
 8006074:	42ab      	cmp	r3, r5
 8006076:	d30a      	bcc.n	800608e <__exponent+0x5e>
 8006078:	f10d 0309 	add.w	r3, sp, #9
 800607c:	1a9b      	subs	r3, r3, r2
 800607e:	42ac      	cmp	r4, r5
 8006080:	bf88      	it	hi
 8006082:	2300      	movhi	r3, #0
 8006084:	3302      	adds	r3, #2
 8006086:	4403      	add	r3, r0
 8006088:	1a18      	subs	r0, r3, r0
 800608a:	b003      	add	sp, #12
 800608c:	bdf0      	pop	{r4, r5, r6, r7, pc}
 800608e:	f813 6b01 	ldrb.w	r6, [r3], #1
 8006092:	f801 6f01 	strb.w	r6, [r1, #1]!
 8006096:	e7ed      	b.n	8006074 <__exponent+0x44>
 8006098:	2330      	movs	r3, #48	@ 0x30
 800609a:	3130      	adds	r1, #48	@ 0x30
 800609c:	7083      	strb	r3, [r0, #2]
 800609e:	70c1      	strb	r1, [r0, #3]
 80060a0:	1d03      	adds	r3, r0, #4
 80060a2:	e7f1      	b.n	8006088 <__exponent+0x58>

080060a4 <_printf_float>:
 80060a4:	e92d 4ff0 	stmdb	sp!, {r4, r5, r6, r7, r8, r9, sl, fp, lr}
 80060a8:	b091      	sub	sp, #68	@ 0x44
 80060aa:	460c      	mov	r4, r1
 80060ac:	f8dd 8068 	ldr.w	r8, [sp, #104]	@ 0x68
 80060b0:	4616      	mov	r6, r2
 80060b2:	461f      	mov	r7, r3
 80060b4:	4605      	mov	r5, r0
 80060b6:	f000 fd0b 	bl	8006ad0 <_localeconv_r>
 80060ba:	6803      	ldr	r3, [r0, #0]
 80060bc:	4618      	mov	r0, r3
 80060be:	9308      	str	r3, [sp, #32]
 80060c0:	f7fa f846 	bl	8000150 <strlen>
 80060c4:	2300      	movs	r3, #0
 80060c6:	930e      	str	r3, [sp, #56]	@ 0x38
 80060c8:	f8d8 3000 	ldr.w	r3, [r8]
 80060cc:	9009      	str	r0, [sp, #36]	@ 0x24
 80060ce:	3307      	adds	r3, #7
 80060d0:	f023 0307 	bic.w	r3, r3, #7
 80060d4:	f103 0208 	add.w	r2, r3, #8
 80060d8:	f894 a018 	ldrb.w	sl, [r4, #24]
 80060dc:	f8d4 b000 	ldr.w	fp, [r4]
 80060e0:	f8c8 2000 	str.w	r2, [r8]
 80060e4:	e9d3 8900 	ldrd	r8, r9, [r3]
 80060e8:	f029 4300 	bic.w	r3, r9, #2147483648	@ 0x80000000
 80060ec:	930b      	str	r3, [sp, #44]	@ 0x2c
 80060ee:	f8cd 8028 	str.w	r8, [sp, #40]	@ 0x28
 80060f2:	f04f 32ff 	mov.w	r2, #4294967295
 80060f6:	e9dd 010a 	ldrd	r0, r1, [sp, #40]	@ 0x28
 80060fa:	e9c4 8912 	strd	r8, r9, [r4, #72]	@ 0x48
 80060fe:	4b9c      	ldr	r3, [pc, #624]	@ (8006370 <_printf_float+0x2cc>)
 8006100:	f7fa fc84 	bl	8000a0c <__aeabi_dcmpun>
 8006104:	bb70      	cbnz	r0, 8006164 <_printf_float+0xc0>
 8006106:	e9dd 010a 	ldrd	r0, r1, [sp, #40]	@ 0x28
 800610a:	f04f 32ff 	mov.w	r2, #4294967295
 800610e:	4b98      	ldr	r3, [pc, #608]	@ (8006370 <_printf_float+0x2cc>)
 8006110:	f7fa fc5e 	bl	80009d0 <__aeabi_dcmple>
 8006114:	bb30      	cbnz	r0, 8006164 <_printf_float+0xc0>
 8006116:	2200      	movs	r2, #0
 8006118:	2300      	movs	r3, #0
 800611a:	4640      	mov	r0, r8
 800611c:	4649      	mov	r1, r9
 800611e:	f7fa fc4d 	bl	80009bc <__aeabi_dcmplt>
 8006122:	b110      	cbz	r0, 800612a <_printf_float+0x86>
 8006124:	232d      	movs	r3, #45	@ 0x2d
 8006126:	f884 3043 	strb.w	r3, [r4, #67]	@ 0x43
 800612a:	4a92      	ldr	r2, [pc, #584]	@ (8006374 <_printf_float+0x2d0>)
 800612c:	4b92      	ldr	r3, [pc, #584]	@ (8006378 <_printf_float+0x2d4>)
 800612e:	f1ba 0f47 	cmp.w	sl, #71	@ 0x47
 8006132:	bf8c      	ite	hi
 8006134:	4690      	movhi	r8, r2
 8006136:	4698      	movls	r8, r3
 8006138:	2303      	movs	r3, #3
 800613a:	f04f 0900 	mov.w	r9, #0
 800613e:	6123      	str	r3, [r4, #16]
 8006140:	f02b 0304 	bic.w	r3, fp, #4
 8006144:	6023      	str	r3, [r4, #0]
 8006146:	4633      	mov	r3, r6
 8006148:	4621      	mov	r1, r4
 800614a:	4628      	mov	r0, r5
 800614c:	9700      	str	r7, [sp, #0]
 800614e:	aa0f      	add	r2, sp, #60	@ 0x3c
 8006150:	f000 f9d4 	bl	80064fc <_printf_common>
 8006154:	3001      	adds	r0, #1
 8006156:	f040 8090 	bne.w	800627a <_printf_float+0x1d6>
 800615a:	f04f 30ff 	mov.w	r0, #4294967295
 800615e:	b011      	add	sp, #68	@ 0x44
 8006160:	e8bd 8ff0 	ldmia.w	sp!, {r4, r5, r6, r7, r8, r9, sl, fp, pc}
 8006164:	4642      	mov	r2, r8
 8006166:	464b      	mov	r3, r9
 8006168:	4640      	mov	r0, r8
 800616a:	4649      	mov	r1, r9
 800616c:	f7fa fc4e 	bl	8000a0c <__aeabi_dcmpun>
 8006170:	b148      	cbz	r0, 8006186 <_printf_float+0xe2>
 8006172:	464b      	mov	r3, r9
 8006174:	2b00      	cmp	r3, #0
 8006176:	bfb8      	it	lt
 8006178:	232d      	movlt	r3, #45	@ 0x2d
 800617a:	4a80      	ldr	r2, [pc, #512]	@ (800637c <_printf_float+0x2d8>)
 800617c:	bfb8      	it	lt
 800617e:	f884 3043 	strblt.w	r3, [r4, #67]	@ 0x43
 8006182:	4b7f      	ldr	r3, [pc, #508]	@ (8006380 <_printf_float+0x2dc>)
 8006184:	e7d3      	b.n	800612e <_printf_float+0x8a>
 8006186:	6863      	ldr	r3, [r4, #4]
 8006188:	f00a 01df 	and.w	r1, sl, #223	@ 0xdf
 800618c:	1c5a      	adds	r2, r3, #1
 800618e:	d13f      	bne.n	8006210 <_printf_float+0x16c>
 8006190:	2306      	movs	r3, #6
 8006192:	6063      	str	r3, [r4, #4]
 8006194:	2200      	movs	r2, #0
 8006196:	f44b 6380 	orr.w	r3, fp, #1024	@ 0x400
 800619a:	6023      	str	r3, [r4, #0]
 800619c:	9206      	str	r2, [sp, #24]
 800619e:	aa0e      	add	r2, sp, #56	@ 0x38
 80061a0:	e9cd a204 	strd	sl, r2, [sp, #16]
 80061a4:	aa0d      	add	r2, sp, #52	@ 0x34
 80061a6:	9203      	str	r2, [sp, #12]
 80061a8:	f10d 0233 	add.w	r2, sp, #51	@ 0x33
 80061ac:	e9cd 3201 	strd	r3, r2, [sp, #4]
 80061b0:	6863      	ldr	r3, [r4, #4]
 80061b2:	4642      	mov	r2, r8
 80061b4:	9300      	str	r3, [sp, #0]
 80061b6:	4628      	mov	r0, r5
 80061b8:	464b      	mov	r3, r9
 80061ba:	910a      	str	r1, [sp, #40]	@ 0x28
 80061bc:	f7ff fed4 	bl	8005f68 <__cvt>
 80061c0:	990a      	ldr	r1, [sp, #40]	@ 0x28
 80061c2:	4680      	mov	r8, r0
 80061c4:	2947      	cmp	r1, #71	@ 0x47
 80061c6:	990d      	ldr	r1, [sp, #52]	@ 0x34
 80061c8:	d128      	bne.n	800621c <_printf_float+0x178>
 80061ca:	1cc8      	adds	r0, r1, #3
 80061cc:	db02      	blt.n	80061d4 <_printf_float+0x130>
 80061ce:	6863      	ldr	r3, [r4, #4]
 80061d0:	4299      	cmp	r1, r3
 80061d2:	dd40      	ble.n	8006256 <_printf_float+0x1b2>
 80061d4:	f1aa 0a02 	sub.w	sl, sl, #2
 80061d8:	fa5f fa8a 	uxtb.w	sl, sl
 80061dc:	4652      	mov	r2, sl
 80061de:	3901      	subs	r1, #1
 80061e0:	f104 0050 	add.w	r0, r4, #80	@ 0x50
 80061e4:	910d      	str	r1, [sp, #52]	@ 0x34
 80061e6:	f7ff ff23 	bl	8006030 <__exponent>
 80061ea:	9a0e      	ldr	r2, [sp, #56]	@ 0x38
 80061ec:	4681      	mov	r9, r0
 80061ee:	1813      	adds	r3, r2, r0
 80061f0:	2a01      	cmp	r2, #1
 80061f2:	6123      	str	r3, [r4, #16]
 80061f4:	dc02      	bgt.n	80061fc <_printf_float+0x158>
 80061f6:	6822      	ldr	r2, [r4, #0]
 80061f8:	07d2      	lsls	r2, r2, #31
 80061fa:	d501      	bpl.n	8006200 <_printf_float+0x15c>
 80061fc:	3301      	adds	r3, #1
 80061fe:	6123      	str	r3, [r4, #16]
 8006200:	f89d 3033 	ldrb.w	r3, [sp, #51]	@ 0x33
 8006204:	2b00      	cmp	r3, #0
 8006206:	d09e      	beq.n	8006146 <_printf_float+0xa2>
 8006208:	232d      	movs	r3, #45	@ 0x2d
 800620a:	f884 3043 	strb.w	r3, [r4, #67]	@ 0x43
 800620e:	e79a      	b.n	8006146 <_printf_float+0xa2>
 8006210:	2947      	cmp	r1, #71	@ 0x47
 8006212:	d1bf      	bne.n	8006194 <_printf_float+0xf0>
 8006214:	2b00      	cmp	r3, #0
 8006216:	d1bd      	bne.n	8006194 <_printf_float+0xf0>
 8006218:	2301      	movs	r3, #1
 800621a:	e7ba      	b.n	8006192 <_printf_float+0xee>
 800621c:	f1ba 0f65 	cmp.w	sl, #101	@ 0x65
 8006220:	d9dc      	bls.n	80061dc <_printf_float+0x138>
 8006222:	f1ba 0f66 	cmp.w	sl, #102	@ 0x66
 8006226:	d118      	bne.n	800625a <_printf_float+0x1b6>
 8006228:	2900      	cmp	r1, #0
 800622a:	6863      	ldr	r3, [r4, #4]
 800622c:	dd0b      	ble.n	8006246 <_printf_float+0x1a2>
 800622e:	6121      	str	r1, [r4, #16]
 8006230:	b913      	cbnz	r3, 8006238 <_printf_float+0x194>
 8006232:	6822      	ldr	r2, [r4, #0]
 8006234:	07d0      	lsls	r0, r2, #31
 8006236:	d502      	bpl.n	800623e <_printf_float+0x19a>
 8006238:	3301      	adds	r3, #1
 800623a:	440b      	add	r3, r1
 800623c:	6123      	str	r3, [r4, #16]
 800623e:	f04f 0900 	mov.w	r9, #0
 8006242:	65a1      	str	r1, [r4, #88]	@ 0x58
 8006244:	e7dc      	b.n	8006200 <_printf_float+0x15c>
 8006246:	b913      	cbnz	r3, 800624e <_printf_float+0x1aa>
 8006248:	6822      	ldr	r2, [r4, #0]
 800624a:	07d2      	lsls	r2, r2, #31
 800624c:	d501      	bpl.n	8006252 <_printf_float+0x1ae>
 800624e:	3302      	adds	r3, #2
 8006250:	e7f4      	b.n	800623c <_printf_float+0x198>
 8006252:	2301      	movs	r3, #1
 8006254:	e7f2      	b.n	800623c <_printf_float+0x198>
 8006256:	f04f 0a67 	mov.w	sl, #103	@ 0x67
 800625a:	9b0e      	ldr	r3, [sp, #56]	@ 0x38
 800625c:	4299      	cmp	r1, r3
 800625e:	db05      	blt.n	800626c <_printf_float+0x1c8>
 8006260:	6823      	ldr	r3, [r4, #0]
 8006262:	6121      	str	r1, [r4, #16]
 8006264:	07d8      	lsls	r0, r3, #31
 8006266:	d5ea      	bpl.n	800623e <_printf_float+0x19a>
 8006268:	1c4b      	adds	r3, r1, #1
 800626a:	e7e7      	b.n	800623c <_printf_float+0x198>
 800626c:	2900      	cmp	r1, #0
 800626e:	bfcc      	ite	gt
 8006270:	2201      	movgt	r2, #1
 8006272:	f1c1 0202 	rsble	r2, r1, #2
 8006276:	4413      	add	r3, r2
 8006278:	e7e0      	b.n	800623c <_printf_float+0x198>
 800627a:	6823      	ldr	r3, [r4, #0]
 800627c:	055a      	lsls	r2, r3, #21
 800627e:	d407      	bmi.n	8006290 <_printf_float+0x1ec>
 8006280:	6923      	ldr	r3, [r4, #16]
 8006282:	4642      	mov	r2, r8
 8006284:	4631      	mov	r1, r6
 8006286:	4628      	mov	r0, r5
 8006288:	47b8      	blx	r7
 800628a:	3001      	adds	r0, #1
 800628c:	d12b      	bne.n	80062e6 <_printf_float+0x242>
 800628e:	e764      	b.n	800615a <_printf_float+0xb6>
 8006290:	f1ba 0f65 	cmp.w	sl, #101	@ 0x65
 8006294:	f240 80dc 	bls.w	8006450 <_printf_float+0x3ac>
 8006298:	e9d4 0112 	ldrd	r0, r1, [r4, #72]	@ 0x48
 800629c:	2200      	movs	r2, #0
 800629e:	2300      	movs	r3, #0
 80062a0:	f7fa fb82 	bl	80009a8 <__aeabi_dcmpeq>
 80062a4:	2800      	cmp	r0, #0
 80062a6:	d033      	beq.n	8006310 <_printf_float+0x26c>
 80062a8:	2301      	movs	r3, #1
 80062aa:	4631      	mov	r1, r6
 80062ac:	4628      	mov	r0, r5
 80062ae:	4a35      	ldr	r2, [pc, #212]	@ (8006384 <_printf_float+0x2e0>)
 80062b0:	47b8      	blx	r7
 80062b2:	3001      	adds	r0, #1
 80062b4:	f43f af51 	beq.w	800615a <_printf_float+0xb6>
 80062b8:	e9dd 380d 	ldrd	r3, r8, [sp, #52]	@ 0x34
 80062bc:	4543      	cmp	r3, r8
 80062be:	db02      	blt.n	80062c6 <_printf_float+0x222>
 80062c0:	6823      	ldr	r3, [r4, #0]
 80062c2:	07d8      	lsls	r0, r3, #31
 80062c4:	d50f      	bpl.n	80062e6 <_printf_float+0x242>
 80062c6:	e9dd 2308 	ldrd	r2, r3, [sp, #32]
 80062ca:	4631      	mov	r1, r6
 80062cc:	4628      	mov	r0, r5
 80062ce:	47b8      	blx	r7
 80062d0:	3001      	adds	r0, #1
 80062d2:	f43f af42 	beq.w	800615a <_printf_float+0xb6>
 80062d6:	f04f 0900 	mov.w	r9, #0
 80062da:	f108 38ff 	add.w	r8, r8, #4294967295
 80062de:	f104 0a1a 	add.w	sl, r4, #26
 80062e2:	45c8      	cmp	r8, r9
 80062e4:	dc09      	bgt.n	80062fa <_printf_float+0x256>
 80062e6:	6823      	ldr	r3, [r4, #0]
 80062e8:	079b      	lsls	r3, r3, #30
 80062ea:	f100 8102 	bmi.w	80064f2 <_printf_float+0x44e>
 80062ee:	68e0      	ldr	r0, [r4, #12]
 80062f0:	9b0f      	ldr	r3, [sp, #60]	@ 0x3c
 80062f2:	4298      	cmp	r0, r3
 80062f4:	bfb8      	it	lt
 80062f6:	4618      	movlt	r0, r3
 80062f8:	e731      	b.n	800615e <_printf_float+0xba>
 80062fa:	2301      	movs	r3, #1
 80062fc:	4652      	mov	r2, sl
 80062fe:	4631      	mov	r1, r6
 8006300:	4628      	mov	r0, r5
 8006302:	47b8      	blx	r7
 8006304:	3001      	adds	r0, #1
 8006306:	f43f af28 	beq.w	800615a <_printf_float+0xb6>
 800630a:	f109 0901 	add.w	r9, r9, #1
 800630e:	e7e8      	b.n	80062e2 <_printf_float+0x23e>
 8006310:	9b0d      	ldr	r3, [sp, #52]	@ 0x34
 8006312:	2b00      	cmp	r3, #0
 8006314:	dc38      	bgt.n	8006388 <_printf_float+0x2e4>
 8006316:	2301      	movs	r3, #1
 8006318:	4631      	mov	r1, r6
 800631a:	4628      	mov	r0, r5
 800631c:	4a19      	ldr	r2, [pc, #100]	@ (8006384 <_printf_float+0x2e0>)
 800631e:	47b8      	blx	r7
 8006320:	3001      	adds	r0, #1
 8006322:	f43f af1a 	beq.w	800615a <_printf_float+0xb6>
 8006326:	e9dd 390d 	ldrd	r3, r9, [sp, #52]	@ 0x34
 800632a:	ea59 0303 	orrs.w	r3, r9, r3
 800632e:	d102      	bne.n	8006336 <_printf_float+0x292>
 8006330:	6823      	ldr	r3, [r4, #0]
 8006332:	07d9      	lsls	r1, r3, #31
 8006334:	d5d7      	bpl.n	80062e6 <_printf_float+0x242>
 8006336:	e9dd 2308 	ldrd	r2, r3, [sp, #32]
 800633a:	4631      	mov	r1, r6
 800633c:	4628      	mov	r0, r5
 800633e:	47b8      	blx	r7
 8006340:	3001      	adds	r0, #1
 8006342:	f43f af0a 	beq.w	800615a <_printf_float+0xb6>
 8006346:	f04f 0a00 	mov.w	sl, #0
 800634a:	f104 0b1a 	add.w	fp, r4, #26
 800634e:	9b0d      	ldr	r3, [sp, #52]	@ 0x34
 8006350:	425b      	negs	r3, r3
 8006352:	4553      	cmp	r3, sl
 8006354:	dc01      	bgt.n	800635a <_printf_float+0x2b6>
 8006356:	464b      	mov	r3, r9
 8006358:	e793      	b.n	8006282 <_printf_float+0x1de>
 800635a:	2301      	movs	r3, #1
 800635c:	465a      	mov	r2, fp
 800635e:	4631      	mov	r1, r6
 8006360:	4628      	mov	r0, r5
 8006362:	47b8      	blx	r7
 8006364:	3001      	adds	r0, #1
 8006366:	f43f aef8 	beq.w	800615a <_printf_float+0xb6>
 800636a:	f10a 0a01 	add.w	sl, sl, #1
 800636e:	e7ee      	b.n	800634e <_printf_float+0x2aa>
 8006370:	7fefffff 	.word	0x7fefffff
 8006374:	08009059 	.word	0x08009059
 8006378:	08009055 	.word	0x08009055
 800637c:	08009061 	.word	0x08009061
 8006380:	0800905d 	.word	0x0800905d
 8006384:	08009065 	.word	0x08009065
 8006388:	6da3      	ldr	r3, [r4, #88]	@ 0x58
 800638a:	f8dd a038 	ldr.w	sl, [sp, #56]	@ 0x38
 800638e:	4553      	cmp	r3, sl
 8006390:	bfa8      	it	ge
 8006392:	4653      	movge	r3, sl
 8006394:	2b00      	cmp	r3, #0
 8006396:	4699      	mov	r9, r3
 8006398:	dc36      	bgt.n	8006408 <_printf_float+0x364>
 800639a:	f04f 0b00 	mov.w	fp, #0
 800639e:	ea29 79e9 	bic.w	r9, r9, r9, asr #31
 80063a2:	f104 021a 	add.w	r2, r4, #26
 80063a6:	6da3      	ldr	r3, [r4, #88]	@ 0x58
 80063a8:	930a      	str	r3, [sp, #40]	@ 0x28
 80063aa:	eba3 0309 	sub.w	r3, r3, r9
 80063ae:	455b      	cmp	r3, fp
 80063b0:	dc31      	bgt.n	8006416 <_printf_float+0x372>
 80063b2:	9b0d      	ldr	r3, [sp, #52]	@ 0x34
 80063b4:	459a      	cmp	sl, r3
 80063b6:	dc3a      	bgt.n	800642e <_printf_float+0x38a>
 80063b8:	6823      	ldr	r3, [r4, #0]
 80063ba:	07da      	lsls	r2, r3, #31
 80063bc:	d437      	bmi.n	800642e <_printf_float+0x38a>
 80063be:	9b0d      	ldr	r3, [sp, #52]	@ 0x34
 80063c0:	ebaa 0903 	sub.w	r9, sl, r3
 80063c4:	9b0a      	ldr	r3, [sp, #40]	@ 0x28
 80063c6:	ebaa 0303 	sub.w	r3, sl, r3
 80063ca:	4599      	cmp	r9, r3
 80063cc:	bfa8      	it	ge
 80063ce:	4699      	movge	r9, r3
 80063d0:	f1b9 0f00 	cmp.w	r9, #0
 80063d4:	dc33      	bgt.n	800643e <_printf_float+0x39a>
 80063d6:	f04f 0800 	mov.w	r8, #0
 80063da:	ea29 79e9 	bic.w	r9, r9, r9, asr #31
 80063de:	f104 0b1a 	add.w	fp, r4, #26
 80063e2:	9b0d      	ldr	r3, [sp, #52]	@ 0x34
 80063e4:	ebaa 0303 	sub.w	r3, sl, r3
 80063e8:	eba3 0309 	sub.w	r3, r3, r9
 80063ec:	4543      	cmp	r3, r8
 80063ee:	f77f af7a 	ble.w	80062e6 <_printf_float+0x242>
 80063f2:	2301      	movs	r3, #1
 80063f4:	465a      	mov	r2, fp
 80063f6:	4631      	mov	r1, r6
 80063f8:	4628      	mov	r0, r5
 80063fa:	47b8      	blx	r7
 80063fc:	3001      	adds	r0, #1
 80063fe:	f43f aeac 	beq.w	800615a <_printf_float+0xb6>
 8006402:	f108 0801 	add.w	r8, r8, #1
 8006406:	e7ec      	b.n	80063e2 <_printf_float+0x33e>
 8006408:	4642      	mov	r2, r8
 800640a:	4631      	mov	r1, r6
 800640c:	4628      	mov	r0, r5
 800640e:	47b8      	blx	r7
 8006410:	3001      	adds	r0, #1
 8006412:	d1c2      	bne.n	800639a <_printf_float+0x2f6>
 8006414:	e6a1      	b.n	800615a <_printf_float+0xb6>
 8006416:	2301      	movs	r3, #1
 8006418:	4631      	mov	r1, r6
 800641a:	4628      	mov	r0, r5
 800641c:	920a      	str	r2, [sp, #40]	@ 0x28
 800641e:	47b8      	blx	r7
 8006420:	3001      	adds	r0, #1
 8006422:	f43f ae9a 	beq.w	800615a <_printf_float+0xb6>
 8006426:	9a0a      	ldr	r2, [sp, #40]	@ 0x28
 8006428:	f10b 0b01 	add.w	fp, fp, #1
 800642c:	e7bb      	b.n	80063a6 <_printf_float+0x302>
 800642e:	4631      	mov	r1, r6
 8006430:	e9dd 2308 	ldrd	r2, r3, [sp, #32]
 8006434:	4628      	mov	r0, r5
 8006436:	47b8      	blx	r7
 8006438:	3001      	adds	r0, #1
 800643a:	d1c0      	bne.n	80063be <_printf_float+0x31a>
 800643c:	e68d      	b.n	800615a <_printf_float+0xb6>
 800643e:	9a0a      	ldr	r2, [sp, #40]	@ 0x28
 8006440:	464b      	mov	r3, r9
 8006442:	4631      	mov	r1, r6
 8006444:	4628      	mov	r0, r5
 8006446:	4442      	add	r2, r8
 8006448:	47b8      	blx	r7
 800644a:	3001      	adds	r0, #1
 800644c:	d1c3      	bne.n	80063d6 <_printf_float+0x332>
 800644e:	e684      	b.n	800615a <_printf_float+0xb6>
 8006450:	f8dd a038 	ldr.w	sl, [sp, #56]	@ 0x38
 8006454:	f1ba 0f01 	cmp.w	sl, #1
 8006458:	dc01      	bgt.n	800645e <_printf_float+0x3ba>
 800645a:	07db      	lsls	r3, r3, #31
 800645c:	d536      	bpl.n	80064cc <_printf_float+0x428>
 800645e:	2301      	movs	r3, #1
 8006460:	4642      	mov	r2, r8
 8006462:	4631      	mov	r1, r6
 8006464:	4628      	mov	r0, r5
 8006466:	47b8      	blx	r7
 8006468:	3001      	adds	r0, #1
 800646a:	f43f ae76 	beq.w	800615a <_printf_float+0xb6>
 800646e:	e9dd 2308 	ldrd	r2, r3, [sp, #32]
 8006472:	4631      	mov	r1, r6
 8006474:	4628      	mov	r0, r5
 8006476:	47b8      	blx	r7
 8006478:	3001      	adds	r0, #1
 800647a:	f43f ae6e 	beq.w	800615a <_printf_float+0xb6>
 800647e:	e9d4 0112 	ldrd	r0, r1, [r4, #72]	@ 0x48
 8006482:	2200      	movs	r2, #0
 8006484:	2300      	movs	r3, #0
 8006486:	f10a 3aff 	add.w	sl, sl, #4294967295
 800648a:	f7fa fa8d 	bl	80009a8 <__aeabi_dcmpeq>
 800648e:	b9c0      	cbnz	r0, 80064c2 <_printf_float+0x41e>
 8006490:	4653      	mov	r3, sl
 8006492:	f108 0201 	add.w	r2, r8, #1
 8006496:	4631      	mov	r1, r6
 8006498:	4628      	mov	r0, r5
 800649a:	47b8      	blx	r7
 800649c:	3001      	adds	r0, #1
 800649e:	d10c      	bne.n	80064ba <_printf_float+0x416>
 80064a0:	e65b      	b.n	800615a <_printf_float+0xb6>
 80064a2:	2301      	movs	r3, #1
 80064a4:	465a      	mov	r2, fp
 80064a6:	4631      	mov	r1, r6
 80064a8:	4628      	mov	r0, r5
 80064aa:	47b8      	blx	r7
 80064ac:	3001      	adds	r0, #1
 80064ae:	f43f ae54 	beq.w	800615a <_printf_float+0xb6>
 80064b2:	f108 0801 	add.w	r8, r8, #1
 80064b6:	45d0      	cmp	r8, sl
 80064b8:	dbf3      	blt.n	80064a2 <_printf_float+0x3fe>
 80064ba:	464b      	mov	r3, r9
 80064bc:	f104 0250 	add.w	r2, r4, #80	@ 0x50
 80064c0:	e6e0      	b.n	8006284 <_printf_float+0x1e0>
 80064c2:	f04f 0800 	mov.w	r8, #0
 80064c6:	f104 0b1a 	add.w	fp, r4, #26
 80064ca:	e7f4      	b.n	80064b6 <_printf_float+0x412>
 80064cc:	2301      	movs	r3, #1
 80064ce:	4642      	mov	r2, r8
 80064d0:	e7e1      	b.n	8006496 <_printf_float+0x3f2>
 80064d2:	2301      	movs	r3, #1
 80064d4:	464a      	mov	r2, r9
 80064d6:	4631      	mov	r1, r6
 80064d8:	4628      	mov	r0, r5
 80064da:	47b8      	blx	r7
 80064dc:	3001      	adds	r0, #1
 80064de:	f43f ae3c 	beq.w	800615a <_printf_float+0xb6>
 80064e2:	f108 0801 	add.w	r8, r8, #1
 80064e6:	68e3      	ldr	r3, [r4, #12]
 80064e8:	990f      	ldr	r1, [sp, #60]	@ 0x3c
 80064ea:	1a5b      	subs	r3, r3, r1
 80064ec:	4543      	cmp	r3, r8
 80064ee:	dcf0      	bgt.n	80064d2 <_printf_float+0x42e>
 80064f0:	e6fd      	b.n	80062ee <_printf_float+0x24a>
 80064f2:	f04f 0800 	mov.w	r8, #0
 80064f6:	f104 0919 	add.w	r9, r4, #25
 80064fa:	e7f4      	b.n	80064e6 <_printf_float+0x442>

080064fc <_printf_common>:
 80064fc:	e92d 47f0 	stmdb	sp!, {r4, r5, r6, r7, r8, r9, sl, lr}
 8006500:	4616      	mov	r6, r2
 8006502:	4698      	mov	r8, r3
 8006504:	688a      	ldr	r2, [r1, #8]
 8006506:	690b      	ldr	r3, [r1, #16]
 8006508:	4607      	mov	r7, r0
 800650a:	4293      	cmp	r3, r2
 800650c:	bfb8      	it	lt
 800650e:	4613      	movlt	r3, r2
 8006510:	6033      	str	r3, [r6, #0]
 8006512:	f891 2043 	ldrb.w	r2, [r1, #67]	@ 0x43
 8006516:	460c      	mov	r4, r1
 8006518:	f8dd 9020 	ldr.w	r9, [sp, #32]
 800651c:	b10a      	cbz	r2, 8006522 <_printf_common+0x26>
 800651e:	3301      	adds	r3, #1
 8006520:	6033      	str	r3, [r6, #0]
 8006522:	6823      	ldr	r3, [r4, #0]
 8006524:	0699      	lsls	r1, r3, #26
 8006526:	bf42      	ittt	mi
 8006528:	6833      	ldrmi	r3, [r6, #0]
 800652a:	3302      	addmi	r3, #2
 800652c:	6033      	strmi	r3, [r6, #0]
 800652e:	6825      	ldr	r5, [r4, #0]
 8006530:	f015 0506 	ands.w	r5, r5, #6
 8006534:	d106      	bne.n	8006544 <_printf_common+0x48>
 8006536:	f104 0a19 	add.w	sl, r4, #25
 800653a:	68e3      	ldr	r3, [r4, #12]
 800653c:	6832      	ldr	r2, [r6, #0]
 800653e:	1a9b      	subs	r3, r3, r2
 8006540:	42ab      	cmp	r3, r5
 8006542:	dc2b      	bgt.n	800659c <_printf_common+0xa0>
 8006544:	f894 3043 	ldrb.w	r3, [r4, #67]	@ 0x43
 8006548:	6822      	ldr	r2, [r4, #0]
 800654a:	3b00      	subs	r3, #0
 800654c:	bf18      	it	ne
 800654e:	2301      	movne	r3, #1
 8006550:	0692      	lsls	r2, r2, #26
 8006552:	d430      	bmi.n	80065b6 <_printf_common+0xba>
 8006554:	4641      	mov	r1, r8
 8006556:	4638      	mov	r0, r7
 8006558:	f104 0243 	add.w	r2, r4, #67	@ 0x43
 800655c:	47c8      	blx	r9
 800655e:	3001      	adds	r0, #1
 8006560:	d023      	beq.n	80065aa <_printf_common+0xae>
 8006562:	6823      	ldr	r3, [r4, #0]
 8006564:	6922      	ldr	r2, [r4, #16]
 8006566:	f003 0306 	and.w	r3, r3, #6
 800656a:	2b04      	cmp	r3, #4
 800656c:	bf14      	ite	ne
 800656e:	2500      	movne	r5, #0
 8006570:	6833      	ldreq	r3, [r6, #0]
 8006572:	f04f 0600 	mov.w	r6, #0
 8006576:	bf08      	it	eq
 8006578:	68e5      	ldreq	r5, [r4, #12]
 800657a:	f104 041a 	add.w	r4, r4, #26
 800657e:	bf08      	it	eq
 8006580:	1aed      	subeq	r5, r5, r3
 8006582:	f854 3c12 	ldr.w	r3, [r4, #-18]
 8006586:	bf08      	it	eq
 8006588:	ea25 75e5 	biceq.w	r5, r5, r5, asr #31
 800658c:	4293      	cmp	r3, r2
 800658e:	bfc4      	itt	gt
 8006590:	1a9b      	subgt	r3, r3, r2
 8006592:	18ed      	addgt	r5, r5, r3
 8006594:	42b5      	cmp	r5, r6
 8006596:	d11a      	bne.n	80065ce <_printf_common+0xd2>
 8006598:	2000      	movs	r0, #0
 800659a:	e008      	b.n	80065ae <_printf_common+0xb2>
 800659c:	2301      	movs	r3, #1
 800659e:	4652      	mov	r2, sl
 80065a0:	4641      	mov	r1, r8
 80065a2:	4638      	mov	r0, r7
 80065a4:	47c8      	blx	r9
 80065a6:	3001      	adds	r0, #1
 80065a8:	d103      	bne.n	80065b2 <_printf_common+0xb6>
 80065aa:	f04f 30ff 	mov.w	r0, #4294967295
 80065ae:	e8bd 87f0 	ldmia.w	sp!, {r4, r5, r6, r7, r8, r9, sl, pc}
 80065b2:	3501      	adds	r5, #1
 80065b4:	e7c1      	b.n	800653a <_printf_common+0x3e>
 80065b6:	2030      	movs	r0, #48	@ 0x30
 80065b8:	18e1      	adds	r1, r4, r3
 80065ba:	f881 0043 	strb.w	r0, [r1, #67]	@ 0x43
 80065be:	1c5a      	adds	r2, r3, #1
 80065c0:	f894 1045 	ldrb.w	r1, [r4, #69]	@ 0x45
 80065c4:	4422      	add	r2, r4
 80065c6:	3302      	adds	r3, #2
 80065c8:	f882 1043 	strb.w	r1, [r2, #67]	@ 0x43
 80065cc:	e7c2      	b.n	8006554 <_printf_common+0x58>
 80065ce:	2301      	movs	r3, #1
 80065d0:	4622      	mov	r2, r4
 80065d2:	4641      	mov	r1, r8
 80065d4:	4638      	mov	r0, r7
 80065d6:	47c8      	blx	r9
 80065d8:	3001      	adds	r0, #1
 80065da:	d0e6      	beq.n	80065aa <_printf_common+0xae>
 80065dc:	3601      	adds	r6, #1
 80065de:	e7d9      	b.n	8006594 <_printf_common+0x98>

080065e0 <_printf_i>:
 80065e0:	e92d 47ff 	stmdb	sp!, {r0, r1, r2, r3, r4, r5, r6, r7, r8, r9, sl, lr}
 80065e4:	7e0f      	ldrb	r7, [r1, #24]
 80065e6:	4691      	mov	r9, r2
 80065e8:	2f78      	cmp	r7, #120	@ 0x78
 80065ea:	4680      	mov	r8, r0
 80065ec:	460c      	mov	r4, r1
 80065ee:	469a      	mov	sl, r3
 80065f0:	9e0c      	ldr	r6, [sp, #48]	@ 0x30
 80065f2:	f101 0243 	add.w	r2, r1, #67	@ 0x43
 80065f6:	d807      	bhi.n	8006608 <_printf_i+0x28>
 80065f8:	2f62      	cmp	r7, #98	@ 0x62
 80065fa:	d80a      	bhi.n	8006612 <_printf_i+0x32>
 80065fc:	2f00      	cmp	r7, #0
 80065fe:	f000 80d1 	beq.w	80067a4 <_printf_i+0x1c4>
 8006602:	2f58      	cmp	r7, #88	@ 0x58
 8006604:	f000 80b8 	beq.w	8006778 <_printf_i+0x198>
 8006608:	f104 0642 	add.w	r6, r4, #66	@ 0x42
 800660c:	f884 7042 	strb.w	r7, [r4, #66]	@ 0x42
 8006610:	e03a      	b.n	8006688 <_printf_i+0xa8>
 8006612:	f1a7 0363 	sub.w	r3, r7, #99	@ 0x63
 8006616:	2b15      	cmp	r3, #21
 8006618:	d8f6      	bhi.n	8006608 <_printf_i+0x28>
 800661a:	a101      	add	r1, pc, #4	@ (adr r1, 8006620 <_printf_i+0x40>)
 800661c:	f851 f023 	ldr.w	pc, [r1, r3, lsl #2]
 8006620:	08006679 	.word	0x08006679
 8006624:	0800668d 	.word	0x0800668d
 8006628:	08006609 	.word	0x08006609
 800662c:	08006609 	.word	0x08006609
 8006630:	08006609 	.word	0x08006609
 8006634:	08006609 	.word	0x08006609
 8006638:	0800668d 	.word	0x0800668d
 800663c:	08006609 	.word	0x08006609
 8006640:	08006609 	.word	0x08006609
 8006644:	08006609 	.word	0x08006609
 8006648:	08006609 	.word	0x08006609
 800664c:	0800678b 	.word	0x0800678b
 8006650:	080066b7 	.word	0x080066b7
 8006654:	08006745 	.word	0x08006745
 8006658:	08006609 	.word	0x08006609
 800665c:	08006609 	.word	0x08006609
 8006660:	080067ad 	.word	0x080067ad
 8006664:	08006609 	.word	0x08006609
 8006668:	080066b7 	.word	0x080066b7
 800666c:	08006609 	.word	0x08006609
 8006670:	08006609 	.word	0x08006609
 8006674:	0800674d 	.word	0x0800674d
 8006678:	6833      	ldr	r3, [r6, #0]
 800667a:	1d1a      	adds	r2, r3, #4
 800667c:	681b      	ldr	r3, [r3, #0]
 800667e:	6032      	str	r2, [r6, #0]
 8006680:	f104 0642 	add.w	r6, r4, #66	@ 0x42
 8006684:	f884 3042 	strb.w	r3, [r4, #66]	@ 0x42
 8006688:	2301      	movs	r3, #1
 800668a:	e09c      	b.n	80067c6 <_printf_i+0x1e6>
 800668c:	6833      	ldr	r3, [r6, #0]
 800668e:	6820      	ldr	r0, [r4, #0]
 8006690:	1d19      	adds	r1, r3, #4
 8006692:	6031      	str	r1, [r6, #0]
 8006694:	0606      	lsls	r6, r0, #24
 8006696:	d501      	bpl.n	800669c <_printf_i+0xbc>
 8006698:	681d      	ldr	r5, [r3, #0]
 800669a:	e003      	b.n	80066a4 <_printf_i+0xc4>
 800669c:	0645      	lsls	r5, r0, #25
 800669e:	d5fb      	bpl.n	8006698 <_printf_i+0xb8>
 80066a0:	f9b3 5000 	ldrsh.w	r5, [r3]
 80066a4:	2d00      	cmp	r5, #0
 80066a6:	da03      	bge.n	80066b0 <_printf_i+0xd0>
 80066a8:	232d      	movs	r3, #45	@ 0x2d
 80066aa:	426d      	negs	r5, r5
 80066ac:	f884 3043 	strb.w	r3, [r4, #67]	@ 0x43
 80066b0:	230a      	movs	r3, #10
 80066b2:	4858      	ldr	r0, [pc, #352]	@ (8006814 <_printf_i+0x234>)
 80066b4:	e011      	b.n	80066da <_printf_i+0xfa>
 80066b6:	6821      	ldr	r1, [r4, #0]
 80066b8:	6833      	ldr	r3, [r6, #0]
 80066ba:	0608      	lsls	r0, r1, #24
 80066bc:	f853 5b04 	ldr.w	r5, [r3], #4
 80066c0:	d402      	bmi.n	80066c8 <_printf_i+0xe8>
 80066c2:	0649      	lsls	r1, r1, #25
 80066c4:	bf48      	it	mi
 80066c6:	b2ad      	uxthmi	r5, r5
 80066c8:	2f6f      	cmp	r7, #111	@ 0x6f
 80066ca:	6033      	str	r3, [r6, #0]
 80066cc:	bf14      	ite	ne
 80066ce:	230a      	movne	r3, #10
 80066d0:	2308      	moveq	r3, #8
 80066d2:	4850      	ldr	r0, [pc, #320]	@ (8006814 <_printf_i+0x234>)
 80066d4:	2100      	movs	r1, #0
 80066d6:	f884 1043 	strb.w	r1, [r4, #67]	@ 0x43
 80066da:	6866      	ldr	r6, [r4, #4]
 80066dc:	2e00      	cmp	r6, #0
 80066de:	60a6      	str	r6, [r4, #8]
 80066e0:	db05      	blt.n	80066ee <_printf_i+0x10e>
 80066e2:	6821      	ldr	r1, [r4, #0]
 80066e4:	432e      	orrs	r6, r5
 80066e6:	f021 0104 	bic.w	r1, r1, #4
 80066ea:	6021      	str	r1, [r4, #0]
 80066ec:	d04b      	beq.n	8006786 <_printf_i+0x1a6>
 80066ee:	4616      	mov	r6, r2
 80066f0:	fbb5 f1f3 	udiv	r1, r5, r3
 80066f4:	fb03 5711 	mls	r7, r3, r1, r5
 80066f8:	5dc7      	ldrb	r7, [r0, r7]
 80066fa:	f806 7d01 	strb.w	r7, [r6, #-1]!
 80066fe:	462f      	mov	r7, r5
 8006700:	42bb      	cmp	r3, r7
 8006702:	460d      	mov	r5, r1
 8006704:	d9f4      	bls.n	80066f0 <_printf_i+0x110>
 8006706:	2b08      	cmp	r3, #8
 8006708:	d10b      	bne.n	8006722 <_printf_i+0x142>
 800670a:	6823      	ldr	r3, [r4, #0]
 800670c:	07df      	lsls	r7, r3, #31
 800670e:	d508      	bpl.n	8006722 <_printf_i+0x142>
 8006710:	6923      	ldr	r3, [r4, #16]
 8006712:	6861      	ldr	r1, [r4, #4]
 8006714:	4299      	cmp	r1, r3
 8006716:	bfde      	ittt	le
 8006718:	2330      	movle	r3, #48	@ 0x30
 800671a:	f806 3c01 	strble.w	r3, [r6, #-1]
 800671e:	f106 36ff 	addle.w	r6, r6, #4294967295
 8006722:	1b92      	subs	r2, r2, r6
 8006724:	6122      	str	r2, [r4, #16]
 8006726:	464b      	mov	r3, r9
 8006728:	4621      	mov	r1, r4
 800672a:	4640      	mov	r0, r8
 800672c:	f8cd a000 	str.w	sl, [sp]
 8006730:	aa03      	add	r2, sp, #12
 8006732:	f7ff fee3 	bl	80064fc <_printf_common>
 8006736:	3001      	adds	r0, #1
 8006738:	d14a      	bne.n	80067d0 <_printf_i+0x1f0>
 800673a:	f04f 30ff 	mov.w	r0, #4294967295
 800673e:	b004      	add	sp, #16
 8006740:	e8bd 87f0 	ldmia.w	sp!, {r4, r5, r6, r7, r8, r9, sl, pc}
 8006744:	6823      	ldr	r3, [r4, #0]
 8006746:	f043 0320 	orr.w	r3, r3, #32
 800674a:	6023      	str	r3, [r4, #0]
 800674c:	2778      	movs	r7, #120	@ 0x78
 800674e:	4832      	ldr	r0, [pc, #200]	@ (8006818 <_printf_i+0x238>)
 8006750:	f884 7045 	strb.w	r7, [r4, #69]	@ 0x45
 8006754:	6823      	ldr	r3, [r4, #0]
 8006756:	6831      	ldr	r1, [r6, #0]
 8006758:	061f      	lsls	r7, r3, #24
 800675a:	f851 5b04 	ldr.w	r5, [r1], #4
 800675e:	d402      	bmi.n	8006766 <_printf_i+0x186>
 8006760:	065f      	lsls	r7, r3, #25
 8006762:	bf48      	it	mi
 8006764:	b2ad      	uxthmi	r5, r5
 8006766:	6031      	str	r1, [r6, #0]
 8006768:	07d9      	lsls	r1, r3, #31
 800676a:	bf44      	itt	mi
 800676c:	f043 0320 	orrmi.w	r3, r3, #32
 8006770:	6023      	strmi	r3, [r4, #0]
 8006772:	b11d      	cbz	r5, 800677c <_printf_i+0x19c>
 8006774:	2310      	movs	r3, #16
 8006776:	e7ad      	b.n	80066d4 <_printf_i+0xf4>
 8006778:	4826      	ldr	r0, [pc, #152]	@ (8006814 <_printf_i+0x234>)
 800677a:	e7e9      	b.n	8006750 <_printf_i+0x170>
 800677c:	6823      	ldr	r3, [r4, #0]
 800677e:	f023 0320 	bic.w	r3, r3, #32
 8006782:	6023      	str	r3, [r4, #0]
 8006784:	e7f6      	b.n	8006774 <_printf_i+0x194>
 8006786:	4616      	mov	r6, r2
 8006788:	e7bd      	b.n	8006706 <_printf_i+0x126>
 800678a:	6833      	ldr	r3, [r6, #0]
 800678c:	6825      	ldr	r5, [r4, #0]
 800678e:	1d18      	adds	r0, r3, #4
 8006790:	6961      	ldr	r1, [r4, #20]
 8006792:	6030      	str	r0, [r6, #0]
 8006794:	062e      	lsls	r6, r5, #24
 8006796:	681b      	ldr	r3, [r3, #0]
 8006798:	d501      	bpl.n	800679e <_printf_i+0x1be>
 800679a:	6019      	str	r1, [r3, #0]
 800679c:	e002      	b.n	80067a4 <_printf_i+0x1c4>
 800679e:	0668      	lsls	r0, r5, #25
 80067a0:	d5fb      	bpl.n	800679a <_printf_i+0x1ba>
 80067a2:	8019      	strh	r1, [r3, #0]
 80067a4:	2300      	movs	r3, #0
 80067a6:	4616      	mov	r6, r2
 80067a8:	6123      	str	r3, [r4, #16]
 80067aa:	e7bc      	b.n	8006726 <_printf_i+0x146>
 80067ac:	6833      	ldr	r3, [r6, #0]
 80067ae:	2100      	movs	r1, #0
 80067b0:	1d1a      	adds	r2, r3, #4
 80067b2:	6032      	str	r2, [r6, #0]
 80067b4:	681e      	ldr	r6, [r3, #0]
 80067b6:	6862      	ldr	r2, [r4, #4]
 80067b8:	4630      	mov	r0, r6
 80067ba:	f000 fa00 	bl	8006bbe <memchr>
 80067be:	b108      	cbz	r0, 80067c4 <_printf_i+0x1e4>
 80067c0:	1b80      	subs	r0, r0, r6
 80067c2:	6060      	str	r0, [r4, #4]
 80067c4:	6863      	ldr	r3, [r4, #4]
 80067c6:	6123      	str	r3, [r4, #16]
 80067c8:	2300      	movs	r3, #0
 80067ca:	f884 3043 	strb.w	r3, [r4, #67]	@ 0x43
 80067ce:	e7aa      	b.n	8006726 <_printf_i+0x146>
 80067d0:	4632      	mov	r2, r6
 80067d2:	4649      	mov	r1, r9
 80067d4:	4640      	mov	r0, r8
 80067d6:	6923      	ldr	r3, [r4, #16]
 80067d8:	47d0      	blx	sl
 80067da:	3001      	adds	r0, #1
 80067dc:	d0ad      	beq.n	800673a <_printf_i+0x15a>
 80067de:	6823      	ldr	r3, [r4, #0]
 80067e0:	079b      	lsls	r3, r3, #30
 80067e2:	d413      	bmi.n	800680c <_printf_i+0x22c>
 80067e4:	68e0      	ldr	r0, [r4, #12]
 80067e6:	9b03      	ldr	r3, [sp, #12]
 80067e8:	4298      	cmp	r0, r3
 80067ea:	bfb8      	it	lt
 80067ec:	4618      	movlt	r0, r3
 80067ee:	e7a6      	b.n	800673e <_printf_i+0x15e>
 80067f0:	2301      	movs	r3, #1
 80067f2:	4632      	mov	r2, r6
 80067f4:	4649      	mov	r1, r9
 80067f6:	4640      	mov	r0, r8
 80067f8:	47d0      	blx	sl
 80067fa:	3001      	adds	r0, #1
 80067fc:	d09d      	beq.n	800673a <_printf_i+0x15a>
 80067fe:	3501      	adds	r5, #1
 8006800:	68e3      	ldr	r3, [r4, #12]
 8006802:	9903      	ldr	r1, [sp, #12]
 8006804:	1a5b      	subs	r3, r3, r1
 8006806:	42ab      	cmp	r3, r5
 8006808:	dcf2      	bgt.n	80067f0 <_printf_i+0x210>
 800680a:	e7eb      	b.n	80067e4 <_printf_i+0x204>
 800680c:	2500      	movs	r5, #0
 800680e:	f104 0619 	add.w	r6, r4, #25
 8006812:	e7f5      	b.n	8006800 <_printf_i+0x220>
 8006814:	08009067 	.word	0x08009067
 8006818:	08009078 	.word	0x08009078

0800681c <std>:
 800681c:	2300      	movs	r3, #0
 800681e:	b510      	push	{r4, lr}
 8006820:	4604      	mov	r4, r0
 8006822:	e9c0 3300 	strd	r3, r3, [r0]
 8006826:	e9c0 3304 	strd	r3, r3, [r0, #16]
 800682a:	6083      	str	r3, [r0, #8]
 800682c:	8181      	strh	r1, [r0, #12]
 800682e:	6643      	str	r3, [r0, #100]	@ 0x64
 8006830:	81c2      	strh	r2, [r0, #14]
 8006832:	6183      	str	r3, [r0, #24]
 8006834:	4619      	mov	r1, r3
 8006836:	2208      	movs	r2, #8
 8006838:	305c      	adds	r0, #92	@ 0x5c
 800683a:	f000 f941 	bl	8006ac0 <memset>
 800683e:	4b0d      	ldr	r3, [pc, #52]	@ (8006874 <std+0x58>)
 8006840:	6224      	str	r4, [r4, #32]
 8006842:	6263      	str	r3, [r4, #36]	@ 0x24
 8006844:	4b0c      	ldr	r3, [pc, #48]	@ (8006878 <std+0x5c>)
 8006846:	62a3      	str	r3, [r4, #40]	@ 0x28
 8006848:	4b0c      	ldr	r3, [pc, #48]	@ (800687c <std+0x60>)
 800684a:	62e3      	str	r3, [r4, #44]	@ 0x2c
 800684c:	4b0c      	ldr	r3, [pc, #48]	@ (8006880 <std+0x64>)
 800684e:	6323      	str	r3, [r4, #48]	@ 0x30
 8006850:	4b0c      	ldr	r3, [pc, #48]	@ (8006884 <std+0x68>)
 8006852:	429c      	cmp	r4, r3
 8006854:	d006      	beq.n	8006864 <std+0x48>
 8006856:	f103 0268 	add.w	r2, r3, #104	@ 0x68
 800685a:	4294      	cmp	r4, r2
 800685c:	d002      	beq.n	8006864 <std+0x48>
 800685e:	33d0      	adds	r3, #208	@ 0xd0
 8006860:	429c      	cmp	r4, r3
 8006862:	d105      	bne.n	8006870 <std+0x54>
 8006864:	f104 0058 	add.w	r0, r4, #88	@ 0x58
 8006868:	e8bd 4010 	ldmia.w	sp!, {r4, lr}
 800686c:	f000 b9a4 	b.w	8006bb8 <__retarget_lock_init_recursive>
 8006870:	bd10      	pop	{r4, pc}
 8006872:	bf00      	nop
 8006874:	080069a1 	.word	0x080069a1
 8006878:	080069c3 	.word	0x080069c3
 800687c:	080069fb 	.word	0x080069fb
 8006880:	08006a1f 	.word	0x08006a1f
 8006884:	20003e14 	.word	0x20003e14

08006888 <stdio_exit_handler>:
 8006888:	4a02      	ldr	r2, [pc, #8]	@ (8006894 <stdio_exit_handler+0xc>)
 800688a:	4903      	ldr	r1, [pc, #12]	@ (8006898 <stdio_exit_handler+0x10>)
 800688c:	4803      	ldr	r0, [pc, #12]	@ (800689c <stdio_exit_handler+0x14>)
 800688e:	f000 b869 	b.w	8006964 <_fwalk_sglue>
 8006892:	bf00      	nop
 8006894:	20000018 	.word	0x20000018
 8006898:	08008551 	.word	0x08008551
 800689c:	20000028 	.word	0x20000028

080068a0 <cleanup_stdio>:
 80068a0:	6841      	ldr	r1, [r0, #4]
 80068a2:	4b0c      	ldr	r3, [pc, #48]	@ (80068d4 <cleanup_stdio+0x34>)
 80068a4:	b510      	push	{r4, lr}
 80068a6:	4299      	cmp	r1, r3
 80068a8:	4604      	mov	r4, r0
 80068aa:	d001      	beq.n	80068b0 <cleanup_stdio+0x10>
 80068ac:	f001 fe50 	bl	8008550 <_fflush_r>
 80068b0:	68a1      	ldr	r1, [r4, #8]
 80068b2:	4b09      	ldr	r3, [pc, #36]	@ (80068d8 <cleanup_stdio+0x38>)
 80068b4:	4299      	cmp	r1, r3
 80068b6:	d002      	beq.n	80068be <cleanup_stdio+0x1e>
 80068b8:	4620      	mov	r0, r4
 80068ba:	f001 fe49 	bl	8008550 <_fflush_r>
 80068be:	68e1      	ldr	r1, [r4, #12]
 80068c0:	4b06      	ldr	r3, [pc, #24]	@ (80068dc <cleanup_stdio+0x3c>)
 80068c2:	4299      	cmp	r1, r3
 80068c4:	d004      	beq.n	80068d0 <cleanup_stdio+0x30>
 80068c6:	4620      	mov	r0, r4
 80068c8:	e8bd 4010 	ldmia.w	sp!, {r4, lr}
 80068cc:	f001 be40 	b.w	8008550 <_fflush_r>
 80068d0:	bd10      	pop	{r4, pc}
 80068d2:	bf00      	nop
 80068d4:	20003e14 	.word	0x20003e14
 80068d8:	20003e7c 	.word	0x20003e7c
 80068dc:	20003ee4 	.word	0x20003ee4

080068e0 <global_stdio_init.part.0>:
 80068e0:	b510      	push	{r4, lr}
 80068e2:	4b0b      	ldr	r3, [pc, #44]	@ (8006910 <global_stdio_init.part.0+0x30>)
 80068e4:	4c0b      	ldr	r4, [pc, #44]	@ (8006914 <global_stdio_init.part.0+0x34>)
 80068e6:	4a0c      	ldr	r2, [pc, #48]	@ (8006918 <global_stdio_init.part.0+0x38>)
 80068e8:	4620      	mov	r0, r4
 80068ea:	601a      	str	r2, [r3, #0]
 80068ec:	2104      	movs	r1, #4
 80068ee:	2200      	movs	r2, #0
 80068f0:	f7ff ff94 	bl	800681c <std>
 80068f4:	f104 0068 	add.w	r0, r4, #104	@ 0x68
 80068f8:	2201      	movs	r2, #1
 80068fa:	2109      	movs	r1, #9
 80068fc:	f7ff ff8e 	bl	800681c <std>
 8006900:	f104 00d0 	add.w	r0, r4, #208	@ 0xd0
 8006904:	2202      	movs	r2, #2
 8006906:	e8bd 4010 	ldmia.w	sp!, {r4, lr}
 800690a:	2112      	movs	r1, #18
 800690c:	f7ff bf86 	b.w	800681c <std>
 8006910:	20003f4c 	.word	0x20003f4c
 8006914:	20003e14 	.word	0x20003e14
 8006918:	08006889 	.word	0x08006889

0800691c <__sfp_lock_acquire>:
 800691c:	4801      	ldr	r0, [pc, #4]	@ (8006924 <__sfp_lock_acquire+0x8>)
 800691e:	f000 b94c 	b.w	8006bba <__retarget_lock_acquire_recursive>
 8006922:	bf00      	nop
 8006924:	20003f55 	.word	0x20003f55

08006928 <__sfp_lock_release>:
 8006928:	4801      	ldr	r0, [pc, #4]	@ (8006930 <__sfp_lock_release+0x8>)
 800692a:	f000 b947 	b.w	8006bbc <__retarget_lock_release_recursive>
 800692e:	bf00      	nop
 8006930:	20003f55 	.word	0x20003f55

08006934 <__sinit>:
 8006934:	b510      	push	{r4, lr}
 8006936:	4604      	mov	r4, r0
 8006938:	f7ff fff0 	bl	800691c <__sfp_lock_acquire>
 800693c:	6a23      	ldr	r3, [r4, #32]
 800693e:	b11b      	cbz	r3, 8006948 <__sinit+0x14>
 8006940:	e8bd 4010 	ldmia.w	sp!, {r4, lr}
 8006944:	f7ff bff0 	b.w	8006928 <__sfp_lock_release>
 8006948:	4b04      	ldr	r3, [pc, #16]	@ (800695c <__sinit+0x28>)
 800694a:	6223      	str	r3, [r4, #32]
 800694c:	4b04      	ldr	r3, [pc, #16]	@ (8006960 <__sinit+0x2c>)
 800694e:	681b      	ldr	r3, [r3, #0]
 8006950:	2b00      	cmp	r3, #0
 8006952:	d1f5      	bne.n	8006940 <__sinit+0xc>
 8006954:	f7ff ffc4 	bl	80068e0 <global_stdio_init.part.0>
 8006958:	e7f2      	b.n	8006940 <__sinit+0xc>
 800695a:	bf00      	nop
 800695c:	080068a1 	.word	0x080068a1
 8006960:	20003f4c 	.word	0x20003f4c

08006964 <_fwalk_sglue>:
 8006964:	e92d 43f8 	stmdb	sp!, {r3, r4, r5, r6, r7, r8, r9, lr}
 8006968:	4607      	mov	r7, r0
 800696a:	4688      	mov	r8, r1
 800696c:	4614      	mov	r4, r2
 800696e:	2600      	movs	r6, #0
 8006970:	e9d4 9501 	ldrd	r9, r5, [r4, #4]
 8006974:	f1b9 0901 	subs.w	r9, r9, #1
 8006978:	d505      	bpl.n	8006986 <_fwalk_sglue+0x22>
 800697a:	6824      	ldr	r4, [r4, #0]
 800697c:	2c00      	cmp	r4, #0
 800697e:	d1f7      	bne.n	8006970 <_fwalk_sglue+0xc>
 8006980:	4630      	mov	r0, r6
 8006982:	e8bd 83f8 	ldmia.w	sp!, {r3, r4, r5, r6, r7, r8, r9, pc}
 8006986:	89ab      	ldrh	r3, [r5, #12]
 8006988:	2b01      	cmp	r3, #1
 800698a:	d907      	bls.n	800699c <_fwalk_sglue+0x38>
 800698c:	f9b5 300e 	ldrsh.w	r3, [r5, #14]
 8006990:	3301      	adds	r3, #1
 8006992:	d003      	beq.n	800699c <_fwalk_sglue+0x38>
 8006994:	4629      	mov	r1, r5
 8006996:	4638      	mov	r0, r7
 8006998:	47c0      	blx	r8
 800699a:	4306      	orrs	r6, r0
 800699c:	3568      	adds	r5, #104	@ 0x68
 800699e:	e7e9      	b.n	8006974 <_fwalk_sglue+0x10>

080069a0 <__sread>:
 80069a0:	b510      	push	{r4, lr}
 80069a2:	460c      	mov	r4, r1
 80069a4:	f9b1 100e 	ldrsh.w	r1, [r1, #14]
 80069a8:	f000 f8b8 	bl	8006b1c <_read_r>
 80069ac:	2800      	cmp	r0, #0
 80069ae:	bfab      	itete	ge
 80069b0:	6d63      	ldrge	r3, [r4, #84]	@ 0x54
 80069b2:	89a3      	ldrhlt	r3, [r4, #12]
 80069b4:	181b      	addge	r3, r3, r0
 80069b6:	f423 5380 	biclt.w	r3, r3, #4096	@ 0x1000
 80069ba:	bfac      	ite	ge
 80069bc:	6563      	strge	r3, [r4, #84]	@ 0x54
 80069be:	81a3      	strhlt	r3, [r4, #12]
 80069c0:	bd10      	pop	{r4, pc}

080069c2 <__swrite>:
 80069c2:	e92d 41f0 	stmdb	sp!, {r4, r5, r6, r7, r8, lr}
 80069c6:	461f      	mov	r7, r3
 80069c8:	898b      	ldrh	r3, [r1, #12]
 80069ca:	4605      	mov	r5, r0
 80069cc:	05db      	lsls	r3, r3, #23
 80069ce:	460c      	mov	r4, r1
 80069d0:	4616      	mov	r6, r2
 80069d2:	d505      	bpl.n	80069e0 <__swrite+0x1e>
 80069d4:	2302      	movs	r3, #2
 80069d6:	2200      	movs	r2, #0
 80069d8:	f9b1 100e 	ldrsh.w	r1, [r1, #14]
 80069dc:	f000 f88c 	bl	8006af8 <_lseek_r>
 80069e0:	89a3      	ldrh	r3, [r4, #12]
 80069e2:	4632      	mov	r2, r6
 80069e4:	f423 5380 	bic.w	r3, r3, #4096	@ 0x1000
 80069e8:	81a3      	strh	r3, [r4, #12]
 80069ea:	4628      	mov	r0, r5
 80069ec:	463b      	mov	r3, r7
 80069ee:	f9b4 100e 	ldrsh.w	r1, [r4, #14]
 80069f2:	e8bd 41f0 	ldmia.w	sp!, {r4, r5, r6, r7, r8, lr}
 80069f6:	f000 b8a3 	b.w	8006b40 <_write_r>

080069fa <__sseek>:
 80069fa:	b510      	push	{r4, lr}
 80069fc:	460c      	mov	r4, r1
 80069fe:	f9b1 100e 	ldrsh.w	r1, [r1, #14]
 8006a02:	f000 f879 	bl	8006af8 <_lseek_r>
 8006a06:	1c43      	adds	r3, r0, #1
 8006a08:	89a3      	ldrh	r3, [r4, #12]
 8006a0a:	bf15      	itete	ne
 8006a0c:	6560      	strne	r0, [r4, #84]	@ 0x54
 8006a0e:	f423 5380 	biceq.w	r3, r3, #4096	@ 0x1000
 8006a12:	f443 5380 	orrne.w	r3, r3, #4096	@ 0x1000
 8006a16:	81a3      	strheq	r3, [r4, #12]
 8006a18:	bf18      	it	ne
 8006a1a:	81a3      	strhne	r3, [r4, #12]
 8006a1c:	bd10      	pop	{r4, pc}

08006a1e <__sclose>:
 8006a1e:	f9b1 100e 	ldrsh.w	r1, [r1, #14]
 8006a22:	f000 b859 	b.w	8006ad8 <_close_r>

08006a26 <_vsniprintf_r>:
 8006a26:	b530      	push	{r4, r5, lr}
 8006a28:	4614      	mov	r4, r2
 8006a2a:	2c00      	cmp	r4, #0
 8006a2c:	4605      	mov	r5, r0
 8006a2e:	461a      	mov	r2, r3
 8006a30:	b09b      	sub	sp, #108	@ 0x6c
 8006a32:	da05      	bge.n	8006a40 <_vsniprintf_r+0x1a>
 8006a34:	238b      	movs	r3, #139	@ 0x8b
 8006a36:	6003      	str	r3, [r0, #0]
 8006a38:	f04f 30ff 	mov.w	r0, #4294967295
 8006a3c:	b01b      	add	sp, #108	@ 0x6c
 8006a3e:	bd30      	pop	{r4, r5, pc}
 8006a40:	f44f 7302 	mov.w	r3, #520	@ 0x208
 8006a44:	f8ad 300c 	strh.w	r3, [sp, #12]
 8006a48:	f04f 0300 	mov.w	r3, #0
 8006a4c:	9319      	str	r3, [sp, #100]	@ 0x64
 8006a4e:	bf0c      	ite	eq
 8006a50:	4623      	moveq	r3, r4
 8006a52:	f104 33ff 	addne.w	r3, r4, #4294967295
 8006a56:	9302      	str	r3, [sp, #8]
 8006a58:	9305      	str	r3, [sp, #20]
 8006a5a:	f64f 73ff 	movw	r3, #65535	@ 0xffff
 8006a5e:	9100      	str	r1, [sp, #0]
 8006a60:	9104      	str	r1, [sp, #16]
 8006a62:	f8ad 300e 	strh.w	r3, [sp, #14]
 8006a66:	4669      	mov	r1, sp
 8006a68:	9b1e      	ldr	r3, [sp, #120]	@ 0x78
 8006a6a:	f001 fbf5 	bl	8008258 <_svfiprintf_r>
 8006a6e:	1c43      	adds	r3, r0, #1
 8006a70:	bfbc      	itt	lt
 8006a72:	238b      	movlt	r3, #139	@ 0x8b
 8006a74:	602b      	strlt	r3, [r5, #0]
 8006a76:	2c00      	cmp	r4, #0
 8006a78:	d0e0      	beq.n	8006a3c <_vsniprintf_r+0x16>
 8006a7a:	2200      	movs	r2, #0
 8006a7c:	9b00      	ldr	r3, [sp, #0]
 8006a7e:	701a      	strb	r2, [r3, #0]
 8006a80:	e7dc      	b.n	8006a3c <_vsniprintf_r+0x16>
	...

08006a84 <vsniprintf>:
 8006a84:	b507      	push	{r0, r1, r2, lr}
 8006a86:	9300      	str	r3, [sp, #0]
 8006a88:	4613      	mov	r3, r2
 8006a8a:	460a      	mov	r2, r1
 8006a8c:	4601      	mov	r1, r0
 8006a8e:	4803      	ldr	r0, [pc, #12]	@ (8006a9c <vsniprintf+0x18>)
 8006a90:	6800      	ldr	r0, [r0, #0]
 8006a92:	f7ff ffc8 	bl	8006a26 <_vsniprintf_r>
 8006a96:	b003      	add	sp, #12
 8006a98:	f85d fb04 	ldr.w	pc, [sp], #4
 8006a9c:	20000024 	.word	0x20000024

08006aa0 <memcmp>:
 8006aa0:	b510      	push	{r4, lr}
 8006aa2:	3901      	subs	r1, #1
 8006aa4:	4402      	add	r2, r0
 8006aa6:	4290      	cmp	r0, r2
 8006aa8:	d101      	bne.n	8006aae <memcmp+0xe>
 8006aaa:	2000      	movs	r0, #0
 8006aac:	e005      	b.n	8006aba <memcmp+0x1a>
 8006aae:	7803      	ldrb	r3, [r0, #0]
 8006ab0:	f811 4f01 	ldrb.w	r4, [r1, #1]!
 8006ab4:	42a3      	cmp	r3, r4
 8006ab6:	d001      	beq.n	8006abc <memcmp+0x1c>
 8006ab8:	1b18      	subs	r0, r3, r4
 8006aba:	bd10      	pop	{r4, pc}
 8006abc:	3001      	adds	r0, #1
 8006abe:	e7f2      	b.n	8006aa6 <memcmp+0x6>

08006ac0 <memset>:
 8006ac0:	4603      	mov	r3, r0
 8006ac2:	4402      	add	r2, r0
 8006ac4:	4293      	cmp	r3, r2
 8006ac6:	d100      	bne.n	8006aca <memset+0xa>
 8006ac8:	4770      	bx	lr
 8006aca:	f803 1b01 	strb.w	r1, [r3], #1
 8006ace:	e7f9      	b.n	8006ac4 <memset+0x4>

08006ad0 <_localeconv_r>:
 8006ad0:	4800      	ldr	r0, [pc, #0]	@ (8006ad4 <_localeconv_r+0x4>)
 8006ad2:	4770      	bx	lr
 8006ad4:	20000164 	.word	0x20000164

08006ad8 <_close_r>:
 8006ad8:	b538      	push	{r3, r4, r5, lr}
 8006ada:	2300      	movs	r3, #0
 8006adc:	4d05      	ldr	r5, [pc, #20]	@ (8006af4 <_close_r+0x1c>)
 8006ade:	4604      	mov	r4, r0
 8006ae0:	4608      	mov	r0, r1
 8006ae2:	602b      	str	r3, [r5, #0]
 8006ae4:	f7fb fa2c 	bl	8001f40 <_close>
 8006ae8:	1c43      	adds	r3, r0, #1
 8006aea:	d102      	bne.n	8006af2 <_close_r+0x1a>
 8006aec:	682b      	ldr	r3, [r5, #0]
 8006aee:	b103      	cbz	r3, 8006af2 <_close_r+0x1a>
 8006af0:	6023      	str	r3, [r4, #0]
 8006af2:	bd38      	pop	{r3, r4, r5, pc}
 8006af4:	20003f50 	.word	0x20003f50

08006af8 <_lseek_r>:
 8006af8:	b538      	push	{r3, r4, r5, lr}
 8006afa:	4604      	mov	r4, r0
 8006afc:	4608      	mov	r0, r1
 8006afe:	4611      	mov	r1, r2
 8006b00:	2200      	movs	r2, #0
 8006b02:	4d05      	ldr	r5, [pc, #20]	@ (8006b18 <_lseek_r+0x20>)
 8006b04:	602a      	str	r2, [r5, #0]
 8006b06:	461a      	mov	r2, r3
 8006b08:	f7fb fa24 	bl	8001f54 <_lseek>
 8006b0c:	1c43      	adds	r3, r0, #1
 8006b0e:	d102      	bne.n	8006b16 <_lseek_r+0x1e>
 8006b10:	682b      	ldr	r3, [r5, #0]
 8006b12:	b103      	cbz	r3, 8006b16 <_lseek_r+0x1e>
 8006b14:	6023      	str	r3, [r4, #0]
 8006b16:	bd38      	pop	{r3, r4, r5, pc}
 8006b18:	20003f50 	.word	0x20003f50

08006b1c <_read_r>:
 8006b1c:	b538      	push	{r3, r4, r5, lr}
 8006b1e:	4604      	mov	r4, r0
 8006b20:	4608      	mov	r0, r1
 8006b22:	4611      	mov	r1, r2
 8006b24:	2200      	movs	r2, #0
 8006b26:	4d05      	ldr	r5, [pc, #20]	@ (8006b3c <_read_r+0x20>)
 8006b28:	602a      	str	r2, [r5, #0]
 8006b2a:	461a      	mov	r2, r3
 8006b2c:	f7fb f9ec 	bl	8001f08 <_read>
 8006b30:	1c43      	adds	r3, r0, #1
 8006b32:	d102      	bne.n	8006b3a <_read_r+0x1e>
 8006b34:	682b      	ldr	r3, [r5, #0]
 8006b36:	b103      	cbz	r3, 8006b3a <_read_r+0x1e>
 8006b38:	6023      	str	r3, [r4, #0]
 8006b3a:	bd38      	pop	{r3, r4, r5, pc}
 8006b3c:	20003f50 	.word	0x20003f50

08006b40 <_write_r>:
 8006b40:	b538      	push	{r3, r4, r5, lr}
 8006b42:	4604      	mov	r4, r0
 8006b44:	4608      	mov	r0, r1
 8006b46:	4611      	mov	r1, r2
 8006b48:	2200      	movs	r2, #0
 8006b4a:	4d05      	ldr	r5, [pc, #20]	@ (8006b60 <_write_r+0x20>)
 8006b4c:	602a      	str	r2, [r5, #0]
 8006b4e:	461a      	mov	r2, r3
 8006b50:	f7fb f9e8 	bl	8001f24 <_write>
 8006b54:	1c43      	adds	r3, r0, #1
 8006b56:	d102      	bne.n	8006b5e <_write_r+0x1e>
 8006b58:	682b      	ldr	r3, [r5, #0]
 8006b5a:	b103      	cbz	r3, 8006b5e <_write_r+0x1e>
 8006b5c:	6023      	str	r3, [r4, #0]
 8006b5e:	bd38      	pop	{r3, r4, r5, pc}
 8006b60:	20003f50 	.word	0x20003f50

08006b64 <__errno>:
 8006b64:	4b01      	ldr	r3, [pc, #4]	@ (8006b6c <__errno+0x8>)
 8006b66:	6818      	ldr	r0, [r3, #0]
 8006b68:	4770      	bx	lr
 8006b6a:	bf00      	nop
 8006b6c:	20000024 	.word	0x20000024

08006b70 <__libc_init_array>:
 8006b70:	b570      	push	{r4, r5, r6, lr}
 8006b72:	2600      	movs	r6, #0
 8006b74:	4d0c      	ldr	r5, [pc, #48]	@ (8006ba8 <__libc_init_array+0x38>)
 8006b76:	4c0d      	ldr	r4, [pc, #52]	@ (8006bac <__libc_init_array+0x3c>)
 8006b78:	1b64      	subs	r4, r4, r5
 8006b7a:	10a4      	asrs	r4, r4, #2
 8006b7c:	42a6      	cmp	r6, r4
 8006b7e:	d109      	bne.n	8006b94 <__libc_init_array+0x24>
 8006b80:	f002 f874 	bl	8008c6c <_init>
 8006b84:	2600      	movs	r6, #0
 8006b86:	4d0a      	ldr	r5, [pc, #40]	@ (8006bb0 <__libc_init_array+0x40>)
 8006b88:	4c0a      	ldr	r4, [pc, #40]	@ (8006bb4 <__libc_init_array+0x44>)
 8006b8a:	1b64      	subs	r4, r4, r5
 8006b8c:	10a4      	asrs	r4, r4, #2
 8006b8e:	42a6      	cmp	r6, r4
 8006b90:	d105      	bne.n	8006b9e <__libc_init_array+0x2e>
 8006b92:	bd70      	pop	{r4, r5, r6, pc}
 8006b94:	f855 3b04 	ldr.w	r3, [r5], #4
 8006b98:	4798      	blx	r3
 8006b9a:	3601      	adds	r6, #1
 8006b9c:	e7ee      	b.n	8006b7c <__libc_init_array+0xc>
 8006b9e:	f855 3b04 	ldr.w	r3, [r5], #4
 8006ba2:	4798      	blx	r3
 8006ba4:	3601      	adds	r6, #1
 8006ba6:	e7f2      	b.n	8006b8e <__libc_init_array+0x1e>
 8006ba8:	080094c4 	.word	0x080094c4
 8006bac:	080094c4 	.word	0x080094c4
 8006bb0:	080094c4 	.word	0x080094c4
 8006bb4:	080094c8 	.word	0x080094c8

08006bb8 <__retarget_lock_init_recursive>:
 8006bb8:	4770      	bx	lr

08006bba <__retarget_lock_acquire_recursive>:
 8006bba:	4770      	bx	lr

08006bbc <__retarget_lock_release_recursive>:
 8006bbc:	4770      	bx	lr

08006bbe <memchr>:
 8006bbe:	4603      	mov	r3, r0
 8006bc0:	b510      	push	{r4, lr}
 8006bc2:	b2c9      	uxtb	r1, r1
 8006bc4:	4402      	add	r2, r0
 8006bc6:	4293      	cmp	r3, r2
 8006bc8:	4618      	mov	r0, r3
 8006bca:	d101      	bne.n	8006bd0 <memchr+0x12>
 8006bcc:	2000      	movs	r0, #0
 8006bce:	e003      	b.n	8006bd8 <memchr+0x1a>
 8006bd0:	7804      	ldrb	r4, [r0, #0]
 8006bd2:	3301      	adds	r3, #1
 8006bd4:	428c      	cmp	r4, r1
 8006bd6:	d1f6      	bne.n	8006bc6 <memchr+0x8>
 8006bd8:	bd10      	pop	{r4, pc}

08006bda <memcpy>:
 8006bda:	440a      	add	r2, r1
 8006bdc:	4291      	cmp	r1, r2
 8006bde:	f100 33ff 	add.w	r3, r0, #4294967295
 8006be2:	d100      	bne.n	8006be6 <memcpy+0xc>
 8006be4:	4770      	bx	lr
 8006be6:	b510      	push	{r4, lr}
 8006be8:	f811 4b01 	ldrb.w	r4, [r1], #1
 8006bec:	4291      	cmp	r1, r2
 8006bee:	f803 4f01 	strb.w	r4, [r3, #1]!
 8006bf2:	d1f9      	bne.n	8006be8 <memcpy+0xe>
 8006bf4:	bd10      	pop	{r4, pc}

08006bf6 <quorem>:
 8006bf6:	e92d 4ff7 	stmdb	sp!, {r0, r1, r2, r4, r5, r6, r7, r8, r9, sl, fp, lr}
 8006bfa:	6903      	ldr	r3, [r0, #16]
 8006bfc:	690c      	ldr	r4, [r1, #16]
 8006bfe:	4607      	mov	r7, r0
 8006c00:	42a3      	cmp	r3, r4
 8006c02:	db7e      	blt.n	8006d02 <quorem+0x10c>
 8006c04:	3c01      	subs	r4, #1
 8006c06:	00a3      	lsls	r3, r4, #2
 8006c08:	f100 0514 	add.w	r5, r0, #20
 8006c0c:	f101 0814 	add.w	r8, r1, #20
 8006c10:	9300      	str	r3, [sp, #0]
 8006c12:	eb05 0384 	add.w	r3, r5, r4, lsl #2
 8006c16:	9301      	str	r3, [sp, #4]
 8006c18:	f858 3024 	ldr.w	r3, [r8, r4, lsl #2]
 8006c1c:	f855 2024 	ldr.w	r2, [r5, r4, lsl #2]
 8006c20:	3301      	adds	r3, #1
 8006c22:	429a      	cmp	r2, r3
 8006c24:	fbb2 f6f3 	udiv	r6, r2, r3
 8006c28:	eb08 0984 	add.w	r9, r8, r4, lsl #2
 8006c2c:	d32e      	bcc.n	8006c8c <quorem+0x96>
 8006c2e:	f04f 0a00 	mov.w	sl, #0
 8006c32:	46c4      	mov	ip, r8
 8006c34:	46ae      	mov	lr, r5
 8006c36:	46d3      	mov	fp, sl
 8006c38:	f85c 3b04 	ldr.w	r3, [ip], #4
 8006c3c:	b298      	uxth	r0, r3
 8006c3e:	fb06 a000 	mla	r0, r6, r0, sl
 8006c42:	0c1b      	lsrs	r3, r3, #16
 8006c44:	0c02      	lsrs	r2, r0, #16
 8006c46:	fb06 2303 	mla	r3, r6, r3, r2
 8006c4a:	f8de 2000 	ldr.w	r2, [lr]
 8006c4e:	b280      	uxth	r0, r0
 8006c50:	b292      	uxth	r2, r2
 8006c52:	1a12      	subs	r2, r2, r0
 8006c54:	445a      	add	r2, fp
 8006c56:	f8de 0000 	ldr.w	r0, [lr]
 8006c5a:	ea4f 4a13 	mov.w	sl, r3, lsr #16
 8006c5e:	b29b      	uxth	r3, r3
 8006c60:	ebc3 4322 	rsb	r3, r3, r2, asr #16
 8006c64:	eb03 4310 	add.w	r3, r3, r0, lsr #16
 8006c68:	b292      	uxth	r2, r2
 8006c6a:	ea42 4203 	orr.w	r2, r2, r3, lsl #16
 8006c6e:	45e1      	cmp	r9, ip
 8006c70:	ea4f 4b23 	mov.w	fp, r3, asr #16
 8006c74:	f84e 2b04 	str.w	r2, [lr], #4
 8006c78:	d2de      	bcs.n	8006c38 <quorem+0x42>
 8006c7a:	9b00      	ldr	r3, [sp, #0]
 8006c7c:	58eb      	ldr	r3, [r5, r3]
 8006c7e:	b92b      	cbnz	r3, 8006c8c <quorem+0x96>
 8006c80:	9b01      	ldr	r3, [sp, #4]
 8006c82:	3b04      	subs	r3, #4
 8006c84:	429d      	cmp	r5, r3
 8006c86:	461a      	mov	r2, r3
 8006c88:	d32f      	bcc.n	8006cea <quorem+0xf4>
 8006c8a:	613c      	str	r4, [r7, #16]
 8006c8c:	4638      	mov	r0, r7
 8006c8e:	f001 f97f 	bl	8007f90 <__mcmp>
 8006c92:	2800      	cmp	r0, #0
 8006c94:	db25      	blt.n	8006ce2 <quorem+0xec>
 8006c96:	4629      	mov	r1, r5
 8006c98:	2000      	movs	r0, #0
 8006c9a:	f858 2b04 	ldr.w	r2, [r8], #4
 8006c9e:	f8d1 c000 	ldr.w	ip, [r1]
 8006ca2:	fa1f fe82 	uxth.w	lr, r2
 8006ca6:	fa1f f38c 	uxth.w	r3, ip
 8006caa:	eba3 030e 	sub.w	r3, r3, lr
 8006cae:	4403      	add	r3, r0
 8006cb0:	0c12      	lsrs	r2, r2, #16
 8006cb2:	ebc2 4223 	rsb	r2, r2, r3, asr #16
 8006cb6:	eb02 421c 	add.w	r2, r2, ip, lsr #16
 8006cba:	b29b      	uxth	r3, r3
 8006cbc:	ea43 4302 	orr.w	r3, r3, r2, lsl #16
 8006cc0:	45c1      	cmp	r9, r8
 8006cc2:	ea4f 4022 	mov.w	r0, r2, asr #16
 8006cc6:	f841 3b04 	str.w	r3, [r1], #4
 8006cca:	d2e6      	bcs.n	8006c9a <quorem+0xa4>
 8006ccc:	f855 2024 	ldr.w	r2, [r5, r4, lsl #2]
 8006cd0:	eb05 0384 	add.w	r3, r5, r4, lsl #2
 8006cd4:	b922      	cbnz	r2, 8006ce0 <quorem+0xea>
 8006cd6:	3b04      	subs	r3, #4
 8006cd8:	429d      	cmp	r5, r3
 8006cda:	461a      	mov	r2, r3
 8006cdc:	d30b      	bcc.n	8006cf6 <quorem+0x100>
 8006cde:	613c      	str	r4, [r7, #16]
 8006ce0:	3601      	adds	r6, #1
 8006ce2:	4630      	mov	r0, r6
 8006ce4:	b003      	add	sp, #12
 8006ce6:	e8bd 8ff0 	ldmia.w	sp!, {r4, r5, r6, r7, r8, r9, sl, fp, pc}
 8006cea:	6812      	ldr	r2, [r2, #0]
 8006cec:	3b04      	subs	r3, #4
 8006cee:	2a00      	cmp	r2, #0
 8006cf0:	d1cb      	bne.n	8006c8a <quorem+0x94>
 8006cf2:	3c01      	subs	r4, #1
 8006cf4:	e7c6      	b.n	8006c84 <quorem+0x8e>
 8006cf6:	6812      	ldr	r2, [r2, #0]
 8006cf8:	3b04      	subs	r3, #4
 8006cfa:	2a00      	cmp	r2, #0
 8006cfc:	d1ef      	bne.n	8006cde <quorem+0xe8>
 8006cfe:	3c01      	subs	r4, #1
 8006d00:	e7ea      	b.n	8006cd8 <quorem+0xe2>
 8006d02:	2000      	movs	r0, #0
 8006d04:	e7ee      	b.n	8006ce4 <quorem+0xee>
	...

08006d08 <_dtoa_r>:
 8006d08:	e92d 4ff0 	stmdb	sp!, {r4, r5, r6, r7, r8, r9, sl, fp, lr}
 8006d0c:	4614      	mov	r4, r2
 8006d0e:	461d      	mov	r5, r3
 8006d10:	69c7      	ldr	r7, [r0, #28]
 8006d12:	b097      	sub	sp, #92	@ 0x5c
 8006d14:	4681      	mov	r9, r0
 8006d16:	e9cd 4506 	strd	r4, r5, [sp, #24]
 8006d1a:	9e23      	ldr	r6, [sp, #140]	@ 0x8c
 8006d1c:	b97f      	cbnz	r7, 8006d3e <_dtoa_r+0x36>
 8006d1e:	2010      	movs	r0, #16
 8006d20:	f000 fe0e 	bl	8007940 <malloc>
 8006d24:	4602      	mov	r2, r0
 8006d26:	f8c9 001c 	str.w	r0, [r9, #28]
 8006d2a:	b920      	cbnz	r0, 8006d36 <_dtoa_r+0x2e>
 8006d2c:	21ef      	movs	r1, #239	@ 0xef
 8006d2e:	4bac      	ldr	r3, [pc, #688]	@ (8006fe0 <_dtoa_r+0x2d8>)
 8006d30:	48ac      	ldr	r0, [pc, #688]	@ (8006fe4 <_dtoa_r+0x2dc>)
 8006d32:	f001 fc5f 	bl	80085f4 <__assert_func>
 8006d36:	e9c0 7701 	strd	r7, r7, [r0, #4]
 8006d3a:	6007      	str	r7, [r0, #0]
 8006d3c:	60c7      	str	r7, [r0, #12]
 8006d3e:	f8d9 301c 	ldr.w	r3, [r9, #28]
 8006d42:	6819      	ldr	r1, [r3, #0]
 8006d44:	b159      	cbz	r1, 8006d5e <_dtoa_r+0x56>
 8006d46:	685a      	ldr	r2, [r3, #4]
 8006d48:	2301      	movs	r3, #1
 8006d4a:	4093      	lsls	r3, r2
 8006d4c:	604a      	str	r2, [r1, #4]
 8006d4e:	608b      	str	r3, [r1, #8]
 8006d50:	4648      	mov	r0, r9
 8006d52:	f000 feeb 	bl	8007b2c <_Bfree>
 8006d56:	2200      	movs	r2, #0
 8006d58:	f8d9 301c 	ldr.w	r3, [r9, #28]
 8006d5c:	601a      	str	r2, [r3, #0]
 8006d5e:	1e2b      	subs	r3, r5, #0
 8006d60:	bfaf      	iteee	ge
 8006d62:	2300      	movge	r3, #0
 8006d64:	2201      	movlt	r2, #1
 8006d66:	f023 4300 	biclt.w	r3, r3, #2147483648	@ 0x80000000
 8006d6a:	9307      	strlt	r3, [sp, #28]
 8006d6c:	bfa8      	it	ge
 8006d6e:	6033      	strge	r3, [r6, #0]
 8006d70:	f8dd 801c 	ldr.w	r8, [sp, #28]
 8006d74:	4b9c      	ldr	r3, [pc, #624]	@ (8006fe8 <_dtoa_r+0x2e0>)
 8006d76:	bfb8      	it	lt
 8006d78:	6032      	strlt	r2, [r6, #0]
 8006d7a:	ea33 0308 	bics.w	r3, r3, r8
 8006d7e:	d112      	bne.n	8006da6 <_dtoa_r+0x9e>
 8006d80:	f242 730f 	movw	r3, #9999	@ 0x270f
 8006d84:	9a22      	ldr	r2, [sp, #136]	@ 0x88
 8006d86:	6013      	str	r3, [r2, #0]
 8006d88:	f3c8 0313 	ubfx	r3, r8, #0, #20
 8006d8c:	4323      	orrs	r3, r4
 8006d8e:	f000 855e 	beq.w	800784e <_dtoa_r+0xb46>
 8006d92:	9b24      	ldr	r3, [sp, #144]	@ 0x90
 8006d94:	f8df a254 	ldr.w	sl, [pc, #596]	@ 8006fec <_dtoa_r+0x2e4>
 8006d98:	2b00      	cmp	r3, #0
 8006d9a:	f000 8560 	beq.w	800785e <_dtoa_r+0xb56>
 8006d9e:	f10a 0303 	add.w	r3, sl, #3
 8006da2:	f000 bd5a 	b.w	800785a <_dtoa_r+0xb52>
 8006da6:	e9dd 2306 	ldrd	r2, r3, [sp, #24]
 8006daa:	e9cd 230c 	strd	r2, r3, [sp, #48]	@ 0x30
 8006dae:	e9dd 010c 	ldrd	r0, r1, [sp, #48]	@ 0x30
 8006db2:	2200      	movs	r2, #0
 8006db4:	2300      	movs	r3, #0
 8006db6:	f7f9 fdf7 	bl	80009a8 <__aeabi_dcmpeq>
 8006dba:	4607      	mov	r7, r0
 8006dbc:	b158      	cbz	r0, 8006dd6 <_dtoa_r+0xce>
 8006dbe:	2301      	movs	r3, #1
 8006dc0:	9a22      	ldr	r2, [sp, #136]	@ 0x88
 8006dc2:	6013      	str	r3, [r2, #0]
 8006dc4:	9b24      	ldr	r3, [sp, #144]	@ 0x90
 8006dc6:	b113      	cbz	r3, 8006dce <_dtoa_r+0xc6>
 8006dc8:	4b89      	ldr	r3, [pc, #548]	@ (8006ff0 <_dtoa_r+0x2e8>)
 8006dca:	9a24      	ldr	r2, [sp, #144]	@ 0x90
 8006dcc:	6013      	str	r3, [r2, #0]
 8006dce:	f8df a224 	ldr.w	sl, [pc, #548]	@ 8006ff4 <_dtoa_r+0x2ec>
 8006dd2:	f000 bd44 	b.w	800785e <_dtoa_r+0xb56>
 8006dd6:	ab14      	add	r3, sp, #80	@ 0x50
 8006dd8:	9301      	str	r3, [sp, #4]
 8006dda:	ab15      	add	r3, sp, #84	@ 0x54
 8006ddc:	9300      	str	r3, [sp, #0]
 8006dde:	4648      	mov	r0, r9
 8006de0:	e9dd 230c 	ldrd	r2, r3, [sp, #48]	@ 0x30
 8006de4:	f001 f984 	bl	80080f0 <__d2b>
 8006de8:	f3c8 560a 	ubfx	r6, r8, #20, #11
 8006dec:	9003      	str	r0, [sp, #12]
 8006dee:	2e00      	cmp	r6, #0
 8006df0:	d078      	beq.n	8006ee4 <_dtoa_r+0x1dc>
 8006df2:	e9dd 010c 	ldrd	r0, r1, [sp, #48]	@ 0x30
 8006df6:	9b0d      	ldr	r3, [sp, #52]	@ 0x34
 8006df8:	f2a6 36ff 	subw	r6, r6, #1023	@ 0x3ff
 8006dfc:	f3c3 0313 	ubfx	r3, r3, #0, #20
 8006e00:	f043 537f 	orr.w	r3, r3, #1069547520	@ 0x3fc00000
 8006e04:	f443 1340 	orr.w	r3, r3, #3145728	@ 0x300000
 8006e08:	9712      	str	r7, [sp, #72]	@ 0x48
 8006e0a:	4619      	mov	r1, r3
 8006e0c:	2200      	movs	r2, #0
 8006e0e:	4b7a      	ldr	r3, [pc, #488]	@ (8006ff8 <_dtoa_r+0x2f0>)
 8006e10:	f7f9 f9aa 	bl	8000168 <__aeabi_dsub>
 8006e14:	a36c      	add	r3, pc, #432	@ (adr r3, 8006fc8 <_dtoa_r+0x2c0>)
 8006e16:	e9d3 2300 	ldrd	r2, r3, [r3]
 8006e1a:	f7f9 fb5d 	bl	80004d8 <__aeabi_dmul>
 8006e1e:	a36c      	add	r3, pc, #432	@ (adr r3, 8006fd0 <_dtoa_r+0x2c8>)
 8006e20:	e9d3 2300 	ldrd	r2, r3, [r3]
 8006e24:	f7f9 f9a2 	bl	800016c <__adddf3>
 8006e28:	4604      	mov	r4, r0
 8006e2a:	4630      	mov	r0, r6
 8006e2c:	460d      	mov	r5, r1
 8006e2e:	f7f9 fae9 	bl	8000404 <__aeabi_i2d>
 8006e32:	a369      	add	r3, pc, #420	@ (adr r3, 8006fd8 <_dtoa_r+0x2d0>)
 8006e34:	e9d3 2300 	ldrd	r2, r3, [r3]
 8006e38:	f7f9 fb4e 	bl	80004d8 <__aeabi_dmul>
 8006e3c:	4602      	mov	r2, r0
 8006e3e:	460b      	mov	r3, r1
 8006e40:	4620      	mov	r0, r4
 8006e42:	4629      	mov	r1, r5
 8006e44:	f7f9 f992 	bl	800016c <__adddf3>
 8006e48:	4604      	mov	r4, r0
 8006e4a:	460d      	mov	r5, r1
 8006e4c:	f7f9 fdf4 	bl	8000a38 <__aeabi_d2iz>
 8006e50:	2200      	movs	r2, #0
 8006e52:	4607      	mov	r7, r0
 8006e54:	2300      	movs	r3, #0
 8006e56:	4620      	mov	r0, r4
 8006e58:	4629      	mov	r1, r5
 8006e5a:	f7f9 fdaf 	bl	80009bc <__aeabi_dcmplt>
 8006e5e:	b140      	cbz	r0, 8006e72 <_dtoa_r+0x16a>
 8006e60:	4638      	mov	r0, r7
 8006e62:	f7f9 facf 	bl	8000404 <__aeabi_i2d>
 8006e66:	4622      	mov	r2, r4
 8006e68:	462b      	mov	r3, r5
 8006e6a:	f7f9 fd9d 	bl	80009a8 <__aeabi_dcmpeq>
 8006e6e:	b900      	cbnz	r0, 8006e72 <_dtoa_r+0x16a>
 8006e70:	3f01      	subs	r7, #1
 8006e72:	2f16      	cmp	r7, #22
 8006e74:	d854      	bhi.n	8006f20 <_dtoa_r+0x218>
 8006e76:	e9dd 010c 	ldrd	r0, r1, [sp, #48]	@ 0x30
 8006e7a:	4b60      	ldr	r3, [pc, #384]	@ (8006ffc <_dtoa_r+0x2f4>)
 8006e7c:	eb03 03c7 	add.w	r3, r3, r7, lsl #3
 8006e80:	e9d3 2300 	ldrd	r2, r3, [r3]
 8006e84:	f7f9 fd9a 	bl	80009bc <__aeabi_dcmplt>
 8006e88:	2800      	cmp	r0, #0
 8006e8a:	d04b      	beq.n	8006f24 <_dtoa_r+0x21c>
 8006e8c:	2300      	movs	r3, #0
 8006e8e:	3f01      	subs	r7, #1
 8006e90:	930f      	str	r3, [sp, #60]	@ 0x3c
 8006e92:	9b14      	ldr	r3, [sp, #80]	@ 0x50
 8006e94:	1b9b      	subs	r3, r3, r6
 8006e96:	1e5a      	subs	r2, r3, #1
 8006e98:	bf49      	itett	mi
 8006e9a:	f1c3 0301 	rsbmi	r3, r3, #1
 8006e9e:	2300      	movpl	r3, #0
 8006ea0:	9304      	strmi	r3, [sp, #16]
 8006ea2:	2300      	movmi	r3, #0
 8006ea4:	9209      	str	r2, [sp, #36]	@ 0x24
 8006ea6:	bf54      	ite	pl
 8006ea8:	9304      	strpl	r3, [sp, #16]
 8006eaa:	9309      	strmi	r3, [sp, #36]	@ 0x24
 8006eac:	2f00      	cmp	r7, #0
 8006eae:	db3b      	blt.n	8006f28 <_dtoa_r+0x220>
 8006eb0:	9b09      	ldr	r3, [sp, #36]	@ 0x24
 8006eb2:	970e      	str	r7, [sp, #56]	@ 0x38
 8006eb4:	443b      	add	r3, r7
 8006eb6:	9309      	str	r3, [sp, #36]	@ 0x24
 8006eb8:	2300      	movs	r3, #0
 8006eba:	930a      	str	r3, [sp, #40]	@ 0x28
 8006ebc:	9b20      	ldr	r3, [sp, #128]	@ 0x80
 8006ebe:	2b09      	cmp	r3, #9
 8006ec0:	d865      	bhi.n	8006f8e <_dtoa_r+0x286>
 8006ec2:	2b05      	cmp	r3, #5
 8006ec4:	bfc4      	itt	gt
 8006ec6:	3b04      	subgt	r3, #4
 8006ec8:	9320      	strgt	r3, [sp, #128]	@ 0x80
 8006eca:	9b20      	ldr	r3, [sp, #128]	@ 0x80
 8006ecc:	bfc8      	it	gt
 8006ece:	2400      	movgt	r4, #0
 8006ed0:	f1a3 0302 	sub.w	r3, r3, #2
 8006ed4:	bfd8      	it	le
 8006ed6:	2401      	movle	r4, #1
 8006ed8:	2b03      	cmp	r3, #3
 8006eda:	d864      	bhi.n	8006fa6 <_dtoa_r+0x29e>
 8006edc:	e8df f003 	tbb	[pc, r3]
 8006ee0:	2c385553 	.word	0x2c385553
 8006ee4:	e9dd 6314 	ldrd	r6, r3, [sp, #80]	@ 0x50
 8006ee8:	441e      	add	r6, r3
 8006eea:	f206 4332 	addw	r3, r6, #1074	@ 0x432
 8006eee:	2b20      	cmp	r3, #32
 8006ef0:	bfc1      	itttt	gt
 8006ef2:	f1c3 0340 	rsbgt	r3, r3, #64	@ 0x40
 8006ef6:	fa08 f803 	lslgt.w	r8, r8, r3
 8006efa:	f206 4312 	addwgt	r3, r6, #1042	@ 0x412
 8006efe:	fa24 f303 	lsrgt.w	r3, r4, r3
 8006f02:	bfd6      	itet	le
 8006f04:	f1c3 0320 	rsble	r3, r3, #32
 8006f08:	ea48 0003 	orrgt.w	r0, r8, r3
 8006f0c:	fa04 f003 	lslle.w	r0, r4, r3
 8006f10:	f7f9 fa68 	bl	80003e4 <__aeabi_ui2d>
 8006f14:	2201      	movs	r2, #1
 8006f16:	f1a1 73f8 	sub.w	r3, r1, #32505856	@ 0x1f00000
 8006f1a:	3e01      	subs	r6, #1
 8006f1c:	9212      	str	r2, [sp, #72]	@ 0x48
 8006f1e:	e774      	b.n	8006e0a <_dtoa_r+0x102>
 8006f20:	2301      	movs	r3, #1
 8006f22:	e7b5      	b.n	8006e90 <_dtoa_r+0x188>
 8006f24:	900f      	str	r0, [sp, #60]	@ 0x3c
 8006f26:	e7b4      	b.n	8006e92 <_dtoa_r+0x18a>
 8006f28:	9b04      	ldr	r3, [sp, #16]
 8006f2a:	1bdb      	subs	r3, r3, r7
 8006f2c:	9304      	str	r3, [sp, #16]
 8006f2e:	427b      	negs	r3, r7
 8006f30:	930a      	str	r3, [sp, #40]	@ 0x28
 8006f32:	2300      	movs	r3, #0
 8006f34:	930e      	str	r3, [sp, #56]	@ 0x38
 8006f36:	e7c1      	b.n	8006ebc <_dtoa_r+0x1b4>
 8006f38:	2301      	movs	r3, #1
 8006f3a:	930b      	str	r3, [sp, #44]	@ 0x2c
 8006f3c:	9b21      	ldr	r3, [sp, #132]	@ 0x84
 8006f3e:	eb07 0b03 	add.w	fp, r7, r3
 8006f42:	f10b 0301 	add.w	r3, fp, #1
 8006f46:	2b01      	cmp	r3, #1
 8006f48:	9308      	str	r3, [sp, #32]
 8006f4a:	bfb8      	it	lt
 8006f4c:	2301      	movlt	r3, #1
 8006f4e:	e006      	b.n	8006f5e <_dtoa_r+0x256>
 8006f50:	2301      	movs	r3, #1
 8006f52:	930b      	str	r3, [sp, #44]	@ 0x2c
 8006f54:	9b21      	ldr	r3, [sp, #132]	@ 0x84
 8006f56:	2b00      	cmp	r3, #0
 8006f58:	dd28      	ble.n	8006fac <_dtoa_r+0x2a4>
 8006f5a:	469b      	mov	fp, r3
 8006f5c:	9308      	str	r3, [sp, #32]
 8006f5e:	2100      	movs	r1, #0
 8006f60:	2204      	movs	r2, #4
 8006f62:	f8d9 001c 	ldr.w	r0, [r9, #28]
 8006f66:	f102 0514 	add.w	r5, r2, #20
 8006f6a:	429d      	cmp	r5, r3
 8006f6c:	d926      	bls.n	8006fbc <_dtoa_r+0x2b4>
 8006f6e:	6041      	str	r1, [r0, #4]
 8006f70:	4648      	mov	r0, r9
 8006f72:	f000 fd9b 	bl	8007aac <_Balloc>
 8006f76:	4682      	mov	sl, r0
 8006f78:	2800      	cmp	r0, #0
 8006f7a:	d143      	bne.n	8007004 <_dtoa_r+0x2fc>
 8006f7c:	4602      	mov	r2, r0
 8006f7e:	f240 11af 	movw	r1, #431	@ 0x1af
 8006f82:	4b1f      	ldr	r3, [pc, #124]	@ (8007000 <_dtoa_r+0x2f8>)
 8006f84:	e6d4      	b.n	8006d30 <_dtoa_r+0x28>
 8006f86:	2300      	movs	r3, #0
 8006f88:	e7e3      	b.n	8006f52 <_dtoa_r+0x24a>
 8006f8a:	2300      	movs	r3, #0
 8006f8c:	e7d5      	b.n	8006f3a <_dtoa_r+0x232>
 8006f8e:	2401      	movs	r4, #1
 8006f90:	2300      	movs	r3, #0
 8006f92:	940b      	str	r4, [sp, #44]	@ 0x2c
 8006f94:	9320      	str	r3, [sp, #128]	@ 0x80
 8006f96:	f04f 3bff 	mov.w	fp, #4294967295
 8006f9a:	2200      	movs	r2, #0
 8006f9c:	2312      	movs	r3, #18
 8006f9e:	f8cd b020 	str.w	fp, [sp, #32]
 8006fa2:	9221      	str	r2, [sp, #132]	@ 0x84
 8006fa4:	e7db      	b.n	8006f5e <_dtoa_r+0x256>
 8006fa6:	2301      	movs	r3, #1
 8006fa8:	930b      	str	r3, [sp, #44]	@ 0x2c
 8006faa:	e7f4      	b.n	8006f96 <_dtoa_r+0x28e>
 8006fac:	f04f 0b01 	mov.w	fp, #1
 8006fb0:	465b      	mov	r3, fp
 8006fb2:	f8cd b020 	str.w	fp, [sp, #32]
 8006fb6:	f8cd b084 	str.w	fp, [sp, #132]	@ 0x84
 8006fba:	e7d0      	b.n	8006f5e <_dtoa_r+0x256>
 8006fbc:	3101      	adds	r1, #1
 8006fbe:	0052      	lsls	r2, r2, #1
 8006fc0:	e7d1      	b.n	8006f66 <_dtoa_r+0x25e>
 8006fc2:	bf00      	nop
 8006fc4:	f3af 8000 	nop.w
 8006fc8:	636f4361 	.word	0x636f4361
 8006fcc:	3fd287a7 	.word	0x3fd287a7
 8006fd0:	8b60c8b3 	.word	0x8b60c8b3
 8006fd4:	3fc68a28 	.word	0x3fc68a28
 8006fd8:	509f79fb 	.word	0x509f79fb
 8006fdc:	3fd34413 	.word	0x3fd34413
 8006fe0:	08009096 	.word	0x08009096
 8006fe4:	080090ad 	.word	0x080090ad
 8006fe8:	7ff00000 	.word	0x7ff00000
 8006fec:	08009092 	.word	0x08009092
 8006ff0:	08009066 	.word	0x08009066
 8006ff4:	08009065 	.word	0x08009065
 8006ff8:	3ff80000 	.word	0x3ff80000
 8006ffc:	080092f0 	.word	0x080092f0
 8007000:	08009105 	.word	0x08009105
 8007004:	f8d9 301c 	ldr.w	r3, [r9, #28]
 8007008:	6018      	str	r0, [r3, #0]
 800700a:	9b08      	ldr	r3, [sp, #32]
 800700c:	2b0e      	cmp	r3, #14
 800700e:	f200 80a1 	bhi.w	8007154 <_dtoa_r+0x44c>
 8007012:	2c00      	cmp	r4, #0
 8007014:	f000 809e 	beq.w	8007154 <_dtoa_r+0x44c>
 8007018:	2f00      	cmp	r7, #0
 800701a:	dd33      	ble.n	8007084 <_dtoa_r+0x37c>
 800701c:	4b9c      	ldr	r3, [pc, #624]	@ (8007290 <_dtoa_r+0x588>)
 800701e:	f007 020f 	and.w	r2, r7, #15
 8007022:	eb03 03c2 	add.w	r3, r3, r2, lsl #3
 8007026:	05f8      	lsls	r0, r7, #23
 8007028:	e9d3 3400 	ldrd	r3, r4, [r3]
 800702c:	e9cd 3410 	strd	r3, r4, [sp, #64]	@ 0x40
 8007030:	ea4f 1427 	mov.w	r4, r7, asr #4
 8007034:	d516      	bpl.n	8007064 <_dtoa_r+0x35c>
 8007036:	e9dd 010c 	ldrd	r0, r1, [sp, #48]	@ 0x30
 800703a:	4b96      	ldr	r3, [pc, #600]	@ (8007294 <_dtoa_r+0x58c>)
 800703c:	2603      	movs	r6, #3
 800703e:	e9d3 2308 	ldrd	r2, r3, [r3, #32]
 8007042:	f7f9 fb73 	bl	800072c <__aeabi_ddiv>
 8007046:	e9cd 0106 	strd	r0, r1, [sp, #24]
 800704a:	f004 040f 	and.w	r4, r4, #15
 800704e:	4d91      	ldr	r5, [pc, #580]	@ (8007294 <_dtoa_r+0x58c>)
 8007050:	b954      	cbnz	r4, 8007068 <_dtoa_r+0x360>
 8007052:	e9dd 2310 	ldrd	r2, r3, [sp, #64]	@ 0x40
 8007056:	e9dd 0106 	ldrd	r0, r1, [sp, #24]
 800705a:	f7f9 fb67 	bl	800072c <__aeabi_ddiv>
 800705e:	e9cd 0106 	strd	r0, r1, [sp, #24]
 8007062:	e028      	b.n	80070b6 <_dtoa_r+0x3ae>
 8007064:	2602      	movs	r6, #2
 8007066:	e7f2      	b.n	800704e <_dtoa_r+0x346>
 8007068:	07e1      	lsls	r1, r4, #31
 800706a:	d508      	bpl.n	800707e <_dtoa_r+0x376>
 800706c:	e9dd 0110 	ldrd	r0, r1, [sp, #64]	@ 0x40
 8007070:	e9d5 2300 	ldrd	r2, r3, [r5]
 8007074:	f7f9 fa30 	bl	80004d8 <__aeabi_dmul>
 8007078:	e9cd 0110 	strd	r0, r1, [sp, #64]	@ 0x40
 800707c:	3601      	adds	r6, #1
 800707e:	1064      	asrs	r4, r4, #1
 8007080:	3508      	adds	r5, #8
 8007082:	e7e5      	b.n	8007050 <_dtoa_r+0x348>
 8007084:	f000 80af 	beq.w	80071e6 <_dtoa_r+0x4de>
 8007088:	e9dd 010c 	ldrd	r0, r1, [sp, #48]	@ 0x30
 800708c:	427c      	negs	r4, r7
 800708e:	4b80      	ldr	r3, [pc, #512]	@ (8007290 <_dtoa_r+0x588>)
 8007090:	f004 020f 	and.w	r2, r4, #15
 8007094:	eb03 03c2 	add.w	r3, r3, r2, lsl #3
 8007098:	e9d3 2300 	ldrd	r2, r3, [r3]
 800709c:	f7f9 fa1c 	bl	80004d8 <__aeabi_dmul>
 80070a0:	2602      	movs	r6, #2
 80070a2:	2300      	movs	r3, #0
 80070a4:	e9cd 0106 	strd	r0, r1, [sp, #24]
 80070a8:	4d7a      	ldr	r5, [pc, #488]	@ (8007294 <_dtoa_r+0x58c>)
 80070aa:	1124      	asrs	r4, r4, #4
 80070ac:	2c00      	cmp	r4, #0
 80070ae:	f040 808f 	bne.w	80071d0 <_dtoa_r+0x4c8>
 80070b2:	2b00      	cmp	r3, #0
 80070b4:	d1d3      	bne.n	800705e <_dtoa_r+0x356>
 80070b6:	e9dd 4506 	ldrd	r4, r5, [sp, #24]
 80070ba:	9b0f      	ldr	r3, [sp, #60]	@ 0x3c
 80070bc:	2b00      	cmp	r3, #0
 80070be:	f000 8094 	beq.w	80071ea <_dtoa_r+0x4e2>
 80070c2:	2200      	movs	r2, #0
 80070c4:	4620      	mov	r0, r4
 80070c6:	4629      	mov	r1, r5
 80070c8:	4b73      	ldr	r3, [pc, #460]	@ (8007298 <_dtoa_r+0x590>)
 80070ca:	f7f9 fc77 	bl	80009bc <__aeabi_dcmplt>
 80070ce:	2800      	cmp	r0, #0
 80070d0:	f000 808b 	beq.w	80071ea <_dtoa_r+0x4e2>
 80070d4:	9b08      	ldr	r3, [sp, #32]
 80070d6:	2b00      	cmp	r3, #0
 80070d8:	f000 8087 	beq.w	80071ea <_dtoa_r+0x4e2>
 80070dc:	f1bb 0f00 	cmp.w	fp, #0
 80070e0:	dd34      	ble.n	800714c <_dtoa_r+0x444>
 80070e2:	4620      	mov	r0, r4
 80070e4:	2200      	movs	r2, #0
 80070e6:	4629      	mov	r1, r5
 80070e8:	4b6c      	ldr	r3, [pc, #432]	@ (800729c <_dtoa_r+0x594>)
 80070ea:	f7f9 f9f5 	bl	80004d8 <__aeabi_dmul>
 80070ee:	465c      	mov	r4, fp
 80070f0:	e9cd 0106 	strd	r0, r1, [sp, #24]
 80070f4:	f107 38ff 	add.w	r8, r7, #4294967295
 80070f8:	3601      	adds	r6, #1
 80070fa:	4630      	mov	r0, r6
 80070fc:	f7f9 f982 	bl	8000404 <__aeabi_i2d>
 8007100:	e9dd 2306 	ldrd	r2, r3, [sp, #24]
 8007104:	f7f9 f9e8 	bl	80004d8 <__aeabi_dmul>
 8007108:	2200      	movs	r2, #0
 800710a:	4b65      	ldr	r3, [pc, #404]	@ (80072a0 <_dtoa_r+0x598>)
 800710c:	f7f9 f82e 	bl	800016c <__adddf3>
 8007110:	4605      	mov	r5, r0
 8007112:	f1a1 7650 	sub.w	r6, r1, #54525952	@ 0x3400000
 8007116:	2c00      	cmp	r4, #0
 8007118:	d16a      	bne.n	80071f0 <_dtoa_r+0x4e8>
 800711a:	e9dd 0106 	ldrd	r0, r1, [sp, #24]
 800711e:	2200      	movs	r2, #0
 8007120:	4b60      	ldr	r3, [pc, #384]	@ (80072a4 <_dtoa_r+0x59c>)
 8007122:	f7f9 f821 	bl	8000168 <__aeabi_dsub>
 8007126:	4602      	mov	r2, r0
 8007128:	460b      	mov	r3, r1
 800712a:	e9cd 2306 	strd	r2, r3, [sp, #24]
 800712e:	462a      	mov	r2, r5
 8007130:	4633      	mov	r3, r6
 8007132:	f7f9 fc61 	bl	80009f8 <__aeabi_dcmpgt>
 8007136:	2800      	cmp	r0, #0
 8007138:	f040 8298 	bne.w	800766c <_dtoa_r+0x964>
 800713c:	e9dd 0106 	ldrd	r0, r1, [sp, #24]
 8007140:	462a      	mov	r2, r5
 8007142:	f106 4300 	add.w	r3, r6, #2147483648	@ 0x80000000
 8007146:	f7f9 fc39 	bl	80009bc <__aeabi_dcmplt>
 800714a:	bb38      	cbnz	r0, 800719c <_dtoa_r+0x494>
 800714c:	e9dd 340c 	ldrd	r3, r4, [sp, #48]	@ 0x30
 8007150:	e9cd 3406 	strd	r3, r4, [sp, #24]
 8007154:	9b15      	ldr	r3, [sp, #84]	@ 0x54
 8007156:	2b00      	cmp	r3, #0
 8007158:	f2c0 8157 	blt.w	800740a <_dtoa_r+0x702>
 800715c:	2f0e      	cmp	r7, #14
 800715e:	f300 8154 	bgt.w	800740a <_dtoa_r+0x702>
 8007162:	4b4b      	ldr	r3, [pc, #300]	@ (8007290 <_dtoa_r+0x588>)
 8007164:	eb03 03c7 	add.w	r3, r3, r7, lsl #3
 8007168:	e9d3 3400 	ldrd	r3, r4, [r3]
 800716c:	e9cd 3404 	strd	r3, r4, [sp, #16]
 8007170:	9b21      	ldr	r3, [sp, #132]	@ 0x84
 8007172:	2b00      	cmp	r3, #0
 8007174:	f280 80e5 	bge.w	8007342 <_dtoa_r+0x63a>
 8007178:	9b08      	ldr	r3, [sp, #32]
 800717a:	2b00      	cmp	r3, #0
 800717c:	f300 80e1 	bgt.w	8007342 <_dtoa_r+0x63a>
 8007180:	d10c      	bne.n	800719c <_dtoa_r+0x494>
 8007182:	e9dd 0104 	ldrd	r0, r1, [sp, #16]
 8007186:	2200      	movs	r2, #0
 8007188:	4b46      	ldr	r3, [pc, #280]	@ (80072a4 <_dtoa_r+0x59c>)
 800718a:	f7f9 f9a5 	bl	80004d8 <__aeabi_dmul>
 800718e:	e9dd 2306 	ldrd	r2, r3, [sp, #24]
 8007192:	f7f9 fc27 	bl	80009e4 <__aeabi_dcmpge>
 8007196:	2800      	cmp	r0, #0
 8007198:	f000 8266 	beq.w	8007668 <_dtoa_r+0x960>
 800719c:	2400      	movs	r4, #0
 800719e:	4625      	mov	r5, r4
 80071a0:	9b21      	ldr	r3, [sp, #132]	@ 0x84
 80071a2:	4656      	mov	r6, sl
 80071a4:	ea6f 0803 	mvn.w	r8, r3
 80071a8:	2700      	movs	r7, #0
 80071aa:	4621      	mov	r1, r4
 80071ac:	4648      	mov	r0, r9
 80071ae:	f000 fcbd 	bl	8007b2c <_Bfree>
 80071b2:	2d00      	cmp	r5, #0
 80071b4:	f000 80bd 	beq.w	8007332 <_dtoa_r+0x62a>
 80071b8:	b12f      	cbz	r7, 80071c6 <_dtoa_r+0x4be>
 80071ba:	42af      	cmp	r7, r5
 80071bc:	d003      	beq.n	80071c6 <_dtoa_r+0x4be>
 80071be:	4639      	mov	r1, r7
 80071c0:	4648      	mov	r0, r9
 80071c2:	f000 fcb3 	bl	8007b2c <_Bfree>
 80071c6:	4629      	mov	r1, r5
 80071c8:	4648      	mov	r0, r9
 80071ca:	f000 fcaf 	bl	8007b2c <_Bfree>
 80071ce:	e0b0      	b.n	8007332 <_dtoa_r+0x62a>
 80071d0:	07e2      	lsls	r2, r4, #31
 80071d2:	d505      	bpl.n	80071e0 <_dtoa_r+0x4d8>
 80071d4:	e9d5 2300 	ldrd	r2, r3, [r5]
 80071d8:	f7f9 f97e 	bl	80004d8 <__aeabi_dmul>
 80071dc:	2301      	movs	r3, #1
 80071de:	3601      	adds	r6, #1
 80071e0:	1064      	asrs	r4, r4, #1
 80071e2:	3508      	adds	r5, #8
 80071e4:	e762      	b.n	80070ac <_dtoa_r+0x3a4>
 80071e6:	2602      	movs	r6, #2
 80071e8:	e765      	b.n	80070b6 <_dtoa_r+0x3ae>
 80071ea:	46b8      	mov	r8, r7
 80071ec:	9c08      	ldr	r4, [sp, #32]
 80071ee:	e784      	b.n	80070fa <_dtoa_r+0x3f2>
 80071f0:	4b27      	ldr	r3, [pc, #156]	@ (8007290 <_dtoa_r+0x588>)
 80071f2:	990b      	ldr	r1, [sp, #44]	@ 0x2c
 80071f4:	eb03 03c4 	add.w	r3, r3, r4, lsl #3
 80071f8:	e953 2302 	ldrd	r2, r3, [r3, #-8]
 80071fc:	4454      	add	r4, sl
 80071fe:	2900      	cmp	r1, #0
 8007200:	d054      	beq.n	80072ac <_dtoa_r+0x5a4>
 8007202:	2000      	movs	r0, #0
 8007204:	4928      	ldr	r1, [pc, #160]	@ (80072a8 <_dtoa_r+0x5a0>)
 8007206:	f7f9 fa91 	bl	800072c <__aeabi_ddiv>
 800720a:	4633      	mov	r3, r6
 800720c:	462a      	mov	r2, r5
 800720e:	f7f8 ffab 	bl	8000168 <__aeabi_dsub>
 8007212:	4656      	mov	r6, sl
 8007214:	e9cd 0110 	strd	r0, r1, [sp, #64]	@ 0x40
 8007218:	e9dd 0106 	ldrd	r0, r1, [sp, #24]
 800721c:	f7f9 fc0c 	bl	8000a38 <__aeabi_d2iz>
 8007220:	4605      	mov	r5, r0
 8007222:	f7f9 f8ef 	bl	8000404 <__aeabi_i2d>
 8007226:	4602      	mov	r2, r0
 8007228:	460b      	mov	r3, r1
 800722a:	e9dd 0106 	ldrd	r0, r1, [sp, #24]
 800722e:	f7f8 ff9b 	bl	8000168 <__aeabi_dsub>
 8007232:	4602      	mov	r2, r0
 8007234:	460b      	mov	r3, r1
 8007236:	3530      	adds	r5, #48	@ 0x30
 8007238:	e9cd 2306 	strd	r2, r3, [sp, #24]
 800723c:	e9dd 2310 	ldrd	r2, r3, [sp, #64]	@ 0x40
 8007240:	f806 5b01 	strb.w	r5, [r6], #1
 8007244:	f7f9 fbba 	bl	80009bc <__aeabi_dcmplt>
 8007248:	2800      	cmp	r0, #0
 800724a:	d172      	bne.n	8007332 <_dtoa_r+0x62a>
 800724c:	e9dd 2306 	ldrd	r2, r3, [sp, #24]
 8007250:	2000      	movs	r0, #0
 8007252:	4911      	ldr	r1, [pc, #68]	@ (8007298 <_dtoa_r+0x590>)
 8007254:	f7f8 ff88 	bl	8000168 <__aeabi_dsub>
 8007258:	e9dd 2310 	ldrd	r2, r3, [sp, #64]	@ 0x40
 800725c:	f7f9 fbae 	bl	80009bc <__aeabi_dcmplt>
 8007260:	2800      	cmp	r0, #0
 8007262:	f040 80b4 	bne.w	80073ce <_dtoa_r+0x6c6>
 8007266:	42a6      	cmp	r6, r4
 8007268:	f43f af70 	beq.w	800714c <_dtoa_r+0x444>
 800726c:	e9dd 0110 	ldrd	r0, r1, [sp, #64]	@ 0x40
 8007270:	2200      	movs	r2, #0
 8007272:	4b0a      	ldr	r3, [pc, #40]	@ (800729c <_dtoa_r+0x594>)
 8007274:	f7f9 f930 	bl	80004d8 <__aeabi_dmul>
 8007278:	2200      	movs	r2, #0
 800727a:	e9cd 0110 	strd	r0, r1, [sp, #64]	@ 0x40
 800727e:	e9dd 0106 	ldrd	r0, r1, [sp, #24]
 8007282:	4b06      	ldr	r3, [pc, #24]	@ (800729c <_dtoa_r+0x594>)
 8007284:	f7f9 f928 	bl	80004d8 <__aeabi_dmul>
 8007288:	e9cd 0106 	strd	r0, r1, [sp, #24]
 800728c:	e7c4      	b.n	8007218 <_dtoa_r+0x510>
 800728e:	bf00      	nop
 8007290:	080092f0 	.word	0x080092f0
 8007294:	080092c8 	.word	0x080092c8
 8007298:	3ff00000 	.word	0x3ff00000
 800729c:	40240000 	.word	0x40240000
 80072a0:	401c0000 	.word	0x401c0000
 80072a4:	40140000 	.word	0x40140000
 80072a8:	3fe00000 	.word	0x3fe00000
 80072ac:	4631      	mov	r1, r6
 80072ae:	4628      	mov	r0, r5
 80072b0:	f7f9 f912 	bl	80004d8 <__aeabi_dmul>
 80072b4:	4656      	mov	r6, sl
 80072b6:	e9cd 0110 	strd	r0, r1, [sp, #64]	@ 0x40
 80072ba:	9413      	str	r4, [sp, #76]	@ 0x4c
 80072bc:	e9dd 0106 	ldrd	r0, r1, [sp, #24]
 80072c0:	f7f9 fbba 	bl	8000a38 <__aeabi_d2iz>
 80072c4:	4605      	mov	r5, r0
 80072c6:	f7f9 f89d 	bl	8000404 <__aeabi_i2d>
 80072ca:	4602      	mov	r2, r0
 80072cc:	460b      	mov	r3, r1
 80072ce:	e9dd 0106 	ldrd	r0, r1, [sp, #24]
 80072d2:	f7f8 ff49 	bl	8000168 <__aeabi_dsub>
 80072d6:	4602      	mov	r2, r0
 80072d8:	460b      	mov	r3, r1
 80072da:	3530      	adds	r5, #48	@ 0x30
 80072dc:	f806 5b01 	strb.w	r5, [r6], #1
 80072e0:	42a6      	cmp	r6, r4
 80072e2:	e9cd 2306 	strd	r2, r3, [sp, #24]
 80072e6:	f04f 0200 	mov.w	r2, #0
 80072ea:	d124      	bne.n	8007336 <_dtoa_r+0x62e>
 80072ec:	e9dd 0110 	ldrd	r0, r1, [sp, #64]	@ 0x40
 80072f0:	4bae      	ldr	r3, [pc, #696]	@ (80075ac <_dtoa_r+0x8a4>)
 80072f2:	f7f8 ff3b 	bl	800016c <__adddf3>
 80072f6:	4602      	mov	r2, r0
 80072f8:	460b      	mov	r3, r1
 80072fa:	e9dd 0106 	ldrd	r0, r1, [sp, #24]
 80072fe:	f7f9 fb7b 	bl	80009f8 <__aeabi_dcmpgt>
 8007302:	2800      	cmp	r0, #0
 8007304:	d163      	bne.n	80073ce <_dtoa_r+0x6c6>
 8007306:	e9dd 2310 	ldrd	r2, r3, [sp, #64]	@ 0x40
 800730a:	2000      	movs	r0, #0
 800730c:	49a7      	ldr	r1, [pc, #668]	@ (80075ac <_dtoa_r+0x8a4>)
 800730e:	f7f8 ff2b 	bl	8000168 <__aeabi_dsub>
 8007312:	4602      	mov	r2, r0
 8007314:	460b      	mov	r3, r1
 8007316:	e9dd 0106 	ldrd	r0, r1, [sp, #24]
 800731a:	f7f9 fb4f 	bl	80009bc <__aeabi_dcmplt>
 800731e:	2800      	cmp	r0, #0
 8007320:	f43f af14 	beq.w	800714c <_dtoa_r+0x444>
 8007324:	9e13      	ldr	r6, [sp, #76]	@ 0x4c
 8007326:	1e73      	subs	r3, r6, #1
 8007328:	9313      	str	r3, [sp, #76]	@ 0x4c
 800732a:	f816 3c01 	ldrb.w	r3, [r6, #-1]
 800732e:	2b30      	cmp	r3, #48	@ 0x30
 8007330:	d0f8      	beq.n	8007324 <_dtoa_r+0x61c>
 8007332:	4647      	mov	r7, r8
 8007334:	e03b      	b.n	80073ae <_dtoa_r+0x6a6>
 8007336:	4b9e      	ldr	r3, [pc, #632]	@ (80075b0 <_dtoa_r+0x8a8>)
 8007338:	f7f9 f8ce 	bl	80004d8 <__aeabi_dmul>
 800733c:	e9cd 0106 	strd	r0, r1, [sp, #24]
 8007340:	e7bc      	b.n	80072bc <_dtoa_r+0x5b4>
 8007342:	4656      	mov	r6, sl
 8007344:	e9dd 4506 	ldrd	r4, r5, [sp, #24]
 8007348:	e9dd 2304 	ldrd	r2, r3, [sp, #16]
 800734c:	4620      	mov	r0, r4
 800734e:	4629      	mov	r1, r5
 8007350:	f7f9 f9ec 	bl	800072c <__aeabi_ddiv>
 8007354:	f7f9 fb70 	bl	8000a38 <__aeabi_d2iz>
 8007358:	4680      	mov	r8, r0
 800735a:	f7f9 f853 	bl	8000404 <__aeabi_i2d>
 800735e:	e9dd 2304 	ldrd	r2, r3, [sp, #16]
 8007362:	f7f9 f8b9 	bl	80004d8 <__aeabi_dmul>
 8007366:	4602      	mov	r2, r0
 8007368:	460b      	mov	r3, r1
 800736a:	4620      	mov	r0, r4
 800736c:	4629      	mov	r1, r5
 800736e:	f7f8 fefb 	bl	8000168 <__aeabi_dsub>
 8007372:	f108 0430 	add.w	r4, r8, #48	@ 0x30
 8007376:	9d08      	ldr	r5, [sp, #32]
 8007378:	f806 4b01 	strb.w	r4, [r6], #1
 800737c:	eba6 040a 	sub.w	r4, r6, sl
 8007380:	42a5      	cmp	r5, r4
 8007382:	4602      	mov	r2, r0
 8007384:	460b      	mov	r3, r1
 8007386:	d133      	bne.n	80073f0 <_dtoa_r+0x6e8>
 8007388:	f7f8 fef0 	bl	800016c <__adddf3>
 800738c:	e9dd 2304 	ldrd	r2, r3, [sp, #16]
 8007390:	4604      	mov	r4, r0
 8007392:	460d      	mov	r5, r1
 8007394:	f7f9 fb30 	bl	80009f8 <__aeabi_dcmpgt>
 8007398:	b9c0      	cbnz	r0, 80073cc <_dtoa_r+0x6c4>
 800739a:	e9dd 2304 	ldrd	r2, r3, [sp, #16]
 800739e:	4620      	mov	r0, r4
 80073a0:	4629      	mov	r1, r5
 80073a2:	f7f9 fb01 	bl	80009a8 <__aeabi_dcmpeq>
 80073a6:	b110      	cbz	r0, 80073ae <_dtoa_r+0x6a6>
 80073a8:	f018 0f01 	tst.w	r8, #1
 80073ac:	d10e      	bne.n	80073cc <_dtoa_r+0x6c4>
 80073ae:	4648      	mov	r0, r9
 80073b0:	9903      	ldr	r1, [sp, #12]
 80073b2:	f000 fbbb 	bl	8007b2c <_Bfree>
 80073b6:	2300      	movs	r3, #0
 80073b8:	7033      	strb	r3, [r6, #0]
 80073ba:	9b22      	ldr	r3, [sp, #136]	@ 0x88
 80073bc:	3701      	adds	r7, #1
 80073be:	601f      	str	r7, [r3, #0]
 80073c0:	9b24      	ldr	r3, [sp, #144]	@ 0x90
 80073c2:	2b00      	cmp	r3, #0
 80073c4:	f000 824b 	beq.w	800785e <_dtoa_r+0xb56>
 80073c8:	601e      	str	r6, [r3, #0]
 80073ca:	e248      	b.n	800785e <_dtoa_r+0xb56>
 80073cc:	46b8      	mov	r8, r7
 80073ce:	4633      	mov	r3, r6
 80073d0:	461e      	mov	r6, r3
 80073d2:	f813 2d01 	ldrb.w	r2, [r3, #-1]!
 80073d6:	2a39      	cmp	r2, #57	@ 0x39
 80073d8:	d106      	bne.n	80073e8 <_dtoa_r+0x6e0>
 80073da:	459a      	cmp	sl, r3
 80073dc:	d1f8      	bne.n	80073d0 <_dtoa_r+0x6c8>
 80073de:	2230      	movs	r2, #48	@ 0x30
 80073e0:	f108 0801 	add.w	r8, r8, #1
 80073e4:	f88a 2000 	strb.w	r2, [sl]
 80073e8:	781a      	ldrb	r2, [r3, #0]
 80073ea:	3201      	adds	r2, #1
 80073ec:	701a      	strb	r2, [r3, #0]
 80073ee:	e7a0      	b.n	8007332 <_dtoa_r+0x62a>
 80073f0:	2200      	movs	r2, #0
 80073f2:	4b6f      	ldr	r3, [pc, #444]	@ (80075b0 <_dtoa_r+0x8a8>)
 80073f4:	f7f9 f870 	bl	80004d8 <__aeabi_dmul>
 80073f8:	2200      	movs	r2, #0
 80073fa:	2300      	movs	r3, #0
 80073fc:	4604      	mov	r4, r0
 80073fe:	460d      	mov	r5, r1
 8007400:	f7f9 fad2 	bl	80009a8 <__aeabi_dcmpeq>
 8007404:	2800      	cmp	r0, #0
 8007406:	d09f      	beq.n	8007348 <_dtoa_r+0x640>
 8007408:	e7d1      	b.n	80073ae <_dtoa_r+0x6a6>
 800740a:	9a0b      	ldr	r2, [sp, #44]	@ 0x2c
 800740c:	2a00      	cmp	r2, #0
 800740e:	f000 80ea 	beq.w	80075e6 <_dtoa_r+0x8de>
 8007412:	9a20      	ldr	r2, [sp, #128]	@ 0x80
 8007414:	2a01      	cmp	r2, #1
 8007416:	f300 80cd 	bgt.w	80075b4 <_dtoa_r+0x8ac>
 800741a:	9a12      	ldr	r2, [sp, #72]	@ 0x48
 800741c:	2a00      	cmp	r2, #0
 800741e:	f000 80c1 	beq.w	80075a4 <_dtoa_r+0x89c>
 8007422:	f203 4333 	addw	r3, r3, #1075	@ 0x433
 8007426:	9c0a      	ldr	r4, [sp, #40]	@ 0x28
 8007428:	9e04      	ldr	r6, [sp, #16]
 800742a:	9a04      	ldr	r2, [sp, #16]
 800742c:	2101      	movs	r1, #1
 800742e:	441a      	add	r2, r3
 8007430:	9204      	str	r2, [sp, #16]
 8007432:	9a09      	ldr	r2, [sp, #36]	@ 0x24
 8007434:	4648      	mov	r0, r9
 8007436:	441a      	add	r2, r3
 8007438:	9209      	str	r2, [sp, #36]	@ 0x24
 800743a:	f000 fc2b 	bl	8007c94 <__i2b>
 800743e:	4605      	mov	r5, r0
 8007440:	b166      	cbz	r6, 800745c <_dtoa_r+0x754>
 8007442:	9b09      	ldr	r3, [sp, #36]	@ 0x24
 8007444:	2b00      	cmp	r3, #0
 8007446:	dd09      	ble.n	800745c <_dtoa_r+0x754>
 8007448:	42b3      	cmp	r3, r6
 800744a:	bfa8      	it	ge
 800744c:	4633      	movge	r3, r6
 800744e:	9a04      	ldr	r2, [sp, #16]
 8007450:	1af6      	subs	r6, r6, r3
 8007452:	1ad2      	subs	r2, r2, r3
 8007454:	9204      	str	r2, [sp, #16]
 8007456:	9a09      	ldr	r2, [sp, #36]	@ 0x24
 8007458:	1ad3      	subs	r3, r2, r3
 800745a:	9309      	str	r3, [sp, #36]	@ 0x24
 800745c:	9b0a      	ldr	r3, [sp, #40]	@ 0x28
 800745e:	b30b      	cbz	r3, 80074a4 <_dtoa_r+0x79c>
 8007460:	9b0b      	ldr	r3, [sp, #44]	@ 0x2c
 8007462:	2b00      	cmp	r3, #0
 8007464:	f000 80c6 	beq.w	80075f4 <_dtoa_r+0x8ec>
 8007468:	2c00      	cmp	r4, #0
 800746a:	f000 80c0 	beq.w	80075ee <_dtoa_r+0x8e6>
 800746e:	4629      	mov	r1, r5
 8007470:	4622      	mov	r2, r4
 8007472:	4648      	mov	r0, r9
 8007474:	f000 fcc6 	bl	8007e04 <__pow5mult>
 8007478:	9a03      	ldr	r2, [sp, #12]
 800747a:	4601      	mov	r1, r0
 800747c:	4605      	mov	r5, r0
 800747e:	4648      	mov	r0, r9
 8007480:	f000 fc1e 	bl	8007cc0 <__multiply>
 8007484:	9903      	ldr	r1, [sp, #12]
 8007486:	4680      	mov	r8, r0
 8007488:	4648      	mov	r0, r9
 800748a:	f000 fb4f 	bl	8007b2c <_Bfree>
 800748e:	9b0a      	ldr	r3, [sp, #40]	@ 0x28
 8007490:	1b1b      	subs	r3, r3, r4
 8007492:	930a      	str	r3, [sp, #40]	@ 0x28
 8007494:	f000 80b1 	beq.w	80075fa <_dtoa_r+0x8f2>
 8007498:	4641      	mov	r1, r8
 800749a:	9a0a      	ldr	r2, [sp, #40]	@ 0x28
 800749c:	4648      	mov	r0, r9
 800749e:	f000 fcb1 	bl	8007e04 <__pow5mult>
 80074a2:	9003      	str	r0, [sp, #12]
 80074a4:	2101      	movs	r1, #1
 80074a6:	4648      	mov	r0, r9
 80074a8:	f000 fbf4 	bl	8007c94 <__i2b>
 80074ac:	9b0e      	ldr	r3, [sp, #56]	@ 0x38
 80074ae:	4604      	mov	r4, r0
 80074b0:	2b00      	cmp	r3, #0
 80074b2:	f000 81d8 	beq.w	8007866 <_dtoa_r+0xb5e>
 80074b6:	461a      	mov	r2, r3
 80074b8:	4601      	mov	r1, r0
 80074ba:	4648      	mov	r0, r9
 80074bc:	f000 fca2 	bl	8007e04 <__pow5mult>
 80074c0:	9b20      	ldr	r3, [sp, #128]	@ 0x80
 80074c2:	4604      	mov	r4, r0
 80074c4:	2b01      	cmp	r3, #1
 80074c6:	f300 809f 	bgt.w	8007608 <_dtoa_r+0x900>
 80074ca:	9b06      	ldr	r3, [sp, #24]
 80074cc:	2b00      	cmp	r3, #0
 80074ce:	f040 8097 	bne.w	8007600 <_dtoa_r+0x8f8>
 80074d2:	9b07      	ldr	r3, [sp, #28]
 80074d4:	f3c3 0313 	ubfx	r3, r3, #0, #20
 80074d8:	2b00      	cmp	r3, #0
 80074da:	f040 8093 	bne.w	8007604 <_dtoa_r+0x8fc>
 80074de:	9b07      	ldr	r3, [sp, #28]
 80074e0:	f023 4300 	bic.w	r3, r3, #2147483648	@ 0x80000000
 80074e4:	0d1b      	lsrs	r3, r3, #20
 80074e6:	051b      	lsls	r3, r3, #20
 80074e8:	b133      	cbz	r3, 80074f8 <_dtoa_r+0x7f0>
 80074ea:	9b04      	ldr	r3, [sp, #16]
 80074ec:	3301      	adds	r3, #1
 80074ee:	9304      	str	r3, [sp, #16]
 80074f0:	9b09      	ldr	r3, [sp, #36]	@ 0x24
 80074f2:	3301      	adds	r3, #1
 80074f4:	9309      	str	r3, [sp, #36]	@ 0x24
 80074f6:	2301      	movs	r3, #1
 80074f8:	930a      	str	r3, [sp, #40]	@ 0x28
 80074fa:	9b0e      	ldr	r3, [sp, #56]	@ 0x38
 80074fc:	2b00      	cmp	r3, #0
 80074fe:	f000 81b8 	beq.w	8007872 <_dtoa_r+0xb6a>
 8007502:	6923      	ldr	r3, [r4, #16]
 8007504:	eb04 0383 	add.w	r3, r4, r3, lsl #2
 8007508:	6918      	ldr	r0, [r3, #16]
 800750a:	f000 fb77 	bl	8007bfc <__hi0bits>
 800750e:	f1c0 0020 	rsb	r0, r0, #32
 8007512:	9b09      	ldr	r3, [sp, #36]	@ 0x24
 8007514:	4418      	add	r0, r3
 8007516:	f010 001f 	ands.w	r0, r0, #31
 800751a:	f000 8082 	beq.w	8007622 <_dtoa_r+0x91a>
 800751e:	f1c0 0320 	rsb	r3, r0, #32
 8007522:	2b04      	cmp	r3, #4
 8007524:	dd73      	ble.n	800760e <_dtoa_r+0x906>
 8007526:	9b04      	ldr	r3, [sp, #16]
 8007528:	f1c0 001c 	rsb	r0, r0, #28
 800752c:	4403      	add	r3, r0
 800752e:	9304      	str	r3, [sp, #16]
 8007530:	9b09      	ldr	r3, [sp, #36]	@ 0x24
 8007532:	4406      	add	r6, r0
 8007534:	4403      	add	r3, r0
 8007536:	9309      	str	r3, [sp, #36]	@ 0x24
 8007538:	9b04      	ldr	r3, [sp, #16]
 800753a:	2b00      	cmp	r3, #0
 800753c:	dd05      	ble.n	800754a <_dtoa_r+0x842>
 800753e:	461a      	mov	r2, r3
 8007540:	4648      	mov	r0, r9
 8007542:	9903      	ldr	r1, [sp, #12]
 8007544:	f000 fcb8 	bl	8007eb8 <__lshift>
 8007548:	9003      	str	r0, [sp, #12]
 800754a:	9b09      	ldr	r3, [sp, #36]	@ 0x24
 800754c:	2b00      	cmp	r3, #0
 800754e:	dd05      	ble.n	800755c <_dtoa_r+0x854>
 8007550:	4621      	mov	r1, r4
 8007552:	461a      	mov	r2, r3
 8007554:	4648      	mov	r0, r9
 8007556:	f000 fcaf 	bl	8007eb8 <__lshift>
 800755a:	4604      	mov	r4, r0
 800755c:	9b0f      	ldr	r3, [sp, #60]	@ 0x3c
 800755e:	2b00      	cmp	r3, #0
 8007560:	d061      	beq.n	8007626 <_dtoa_r+0x91e>
 8007562:	4621      	mov	r1, r4
 8007564:	9803      	ldr	r0, [sp, #12]
 8007566:	f000 fd13 	bl	8007f90 <__mcmp>
 800756a:	2800      	cmp	r0, #0
 800756c:	da5b      	bge.n	8007626 <_dtoa_r+0x91e>
 800756e:	2300      	movs	r3, #0
 8007570:	220a      	movs	r2, #10
 8007572:	4648      	mov	r0, r9
 8007574:	9903      	ldr	r1, [sp, #12]
 8007576:	f000 fafb 	bl	8007b70 <__multadd>
 800757a:	9b0b      	ldr	r3, [sp, #44]	@ 0x2c
 800757c:	f107 38ff 	add.w	r8, r7, #4294967295
 8007580:	9003      	str	r0, [sp, #12]
 8007582:	2b00      	cmp	r3, #0
 8007584:	f000 8177 	beq.w	8007876 <_dtoa_r+0xb6e>
 8007588:	4629      	mov	r1, r5
 800758a:	2300      	movs	r3, #0
 800758c:	220a      	movs	r2, #10
 800758e:	4648      	mov	r0, r9
 8007590:	f000 faee 	bl	8007b70 <__multadd>
 8007594:	f1bb 0f00 	cmp.w	fp, #0
 8007598:	4605      	mov	r5, r0
 800759a:	dc6f      	bgt.n	800767c <_dtoa_r+0x974>
 800759c:	9b20      	ldr	r3, [sp, #128]	@ 0x80
 800759e:	2b02      	cmp	r3, #2
 80075a0:	dc49      	bgt.n	8007636 <_dtoa_r+0x92e>
 80075a2:	e06b      	b.n	800767c <_dtoa_r+0x974>
 80075a4:	9b14      	ldr	r3, [sp, #80]	@ 0x50
 80075a6:	f1c3 0336 	rsb	r3, r3, #54	@ 0x36
 80075aa:	e73c      	b.n	8007426 <_dtoa_r+0x71e>
 80075ac:	3fe00000 	.word	0x3fe00000
 80075b0:	40240000 	.word	0x40240000
 80075b4:	9b08      	ldr	r3, [sp, #32]
 80075b6:	1e5c      	subs	r4, r3, #1
 80075b8:	9b0a      	ldr	r3, [sp, #40]	@ 0x28
 80075ba:	42a3      	cmp	r3, r4
 80075bc:	db09      	blt.n	80075d2 <_dtoa_r+0x8ca>
 80075be:	1b1c      	subs	r4, r3, r4
 80075c0:	9b08      	ldr	r3, [sp, #32]
 80075c2:	2b00      	cmp	r3, #0
 80075c4:	f6bf af30 	bge.w	8007428 <_dtoa_r+0x720>
 80075c8:	9b04      	ldr	r3, [sp, #16]
 80075ca:	9a08      	ldr	r2, [sp, #32]
 80075cc:	1a9e      	subs	r6, r3, r2
 80075ce:	2300      	movs	r3, #0
 80075d0:	e72b      	b.n	800742a <_dtoa_r+0x722>
 80075d2:	9b0a      	ldr	r3, [sp, #40]	@ 0x28
 80075d4:	9a0e      	ldr	r2, [sp, #56]	@ 0x38
 80075d6:	1ae3      	subs	r3, r4, r3
 80075d8:	441a      	add	r2, r3
 80075da:	940a      	str	r4, [sp, #40]	@ 0x28
 80075dc:	9e04      	ldr	r6, [sp, #16]
 80075de:	2400      	movs	r4, #0
 80075e0:	9b08      	ldr	r3, [sp, #32]
 80075e2:	920e      	str	r2, [sp, #56]	@ 0x38
 80075e4:	e721      	b.n	800742a <_dtoa_r+0x722>
 80075e6:	9c0a      	ldr	r4, [sp, #40]	@ 0x28
 80075e8:	9e04      	ldr	r6, [sp, #16]
 80075ea:	9d0b      	ldr	r5, [sp, #44]	@ 0x2c
 80075ec:	e728      	b.n	8007440 <_dtoa_r+0x738>
 80075ee:	f8dd 800c 	ldr.w	r8, [sp, #12]
 80075f2:	e751      	b.n	8007498 <_dtoa_r+0x790>
 80075f4:	9a0a      	ldr	r2, [sp, #40]	@ 0x28
 80075f6:	9903      	ldr	r1, [sp, #12]
 80075f8:	e750      	b.n	800749c <_dtoa_r+0x794>
 80075fa:	f8cd 800c 	str.w	r8, [sp, #12]
 80075fe:	e751      	b.n	80074a4 <_dtoa_r+0x79c>
 8007600:	2300      	movs	r3, #0
 8007602:	e779      	b.n	80074f8 <_dtoa_r+0x7f0>
 8007604:	9b06      	ldr	r3, [sp, #24]
 8007606:	e777      	b.n	80074f8 <_dtoa_r+0x7f0>
 8007608:	2300      	movs	r3, #0
 800760a:	930a      	str	r3, [sp, #40]	@ 0x28
 800760c:	e779      	b.n	8007502 <_dtoa_r+0x7fa>
 800760e:	d093      	beq.n	8007538 <_dtoa_r+0x830>
 8007610:	9a04      	ldr	r2, [sp, #16]
 8007612:	331c      	adds	r3, #28
 8007614:	441a      	add	r2, r3
 8007616:	9204      	str	r2, [sp, #16]
 8007618:	9a09      	ldr	r2, [sp, #36]	@ 0x24
 800761a:	441e      	add	r6, r3
 800761c:	441a      	add	r2, r3
 800761e:	9209      	str	r2, [sp, #36]	@ 0x24
 8007620:	e78a      	b.n	8007538 <_dtoa_r+0x830>
 8007622:	4603      	mov	r3, r0
 8007624:	e7f4      	b.n	8007610 <_dtoa_r+0x908>
 8007626:	9b08      	ldr	r3, [sp, #32]
 8007628:	46b8      	mov	r8, r7
 800762a:	2b00      	cmp	r3, #0
 800762c:	dc20      	bgt.n	8007670 <_dtoa_r+0x968>
 800762e:	469b      	mov	fp, r3
 8007630:	9b20      	ldr	r3, [sp, #128]	@ 0x80
 8007632:	2b02      	cmp	r3, #2
 8007634:	dd1e      	ble.n	8007674 <_dtoa_r+0x96c>
 8007636:	f1bb 0f00 	cmp.w	fp, #0
 800763a:	f47f adb1 	bne.w	80071a0 <_dtoa_r+0x498>
 800763e:	4621      	mov	r1, r4
 8007640:	465b      	mov	r3, fp
 8007642:	2205      	movs	r2, #5
 8007644:	4648      	mov	r0, r9
 8007646:	f000 fa93 	bl	8007b70 <__multadd>
 800764a:	4601      	mov	r1, r0
 800764c:	4604      	mov	r4, r0
 800764e:	9803      	ldr	r0, [sp, #12]
 8007650:	f000 fc9e 	bl	8007f90 <__mcmp>
 8007654:	2800      	cmp	r0, #0
 8007656:	f77f ada3 	ble.w	80071a0 <_dtoa_r+0x498>
 800765a:	4656      	mov	r6, sl
 800765c:	2331      	movs	r3, #49	@ 0x31
 800765e:	f108 0801 	add.w	r8, r8, #1
 8007662:	f806 3b01 	strb.w	r3, [r6], #1
 8007666:	e59f      	b.n	80071a8 <_dtoa_r+0x4a0>
 8007668:	46b8      	mov	r8, r7
 800766a:	9c08      	ldr	r4, [sp, #32]
 800766c:	4625      	mov	r5, r4
 800766e:	e7f4      	b.n	800765a <_dtoa_r+0x952>
 8007670:	f8dd b020 	ldr.w	fp, [sp, #32]
 8007674:	9b0b      	ldr	r3, [sp, #44]	@ 0x2c
 8007676:	2b00      	cmp	r3, #0
 8007678:	f000 8101 	beq.w	800787e <_dtoa_r+0xb76>
 800767c:	2e00      	cmp	r6, #0
 800767e:	dd05      	ble.n	800768c <_dtoa_r+0x984>
 8007680:	4629      	mov	r1, r5
 8007682:	4632      	mov	r2, r6
 8007684:	4648      	mov	r0, r9
 8007686:	f000 fc17 	bl	8007eb8 <__lshift>
 800768a:	4605      	mov	r5, r0
 800768c:	9b0a      	ldr	r3, [sp, #40]	@ 0x28
 800768e:	2b00      	cmp	r3, #0
 8007690:	d05c      	beq.n	800774c <_dtoa_r+0xa44>
 8007692:	4648      	mov	r0, r9
 8007694:	6869      	ldr	r1, [r5, #4]
 8007696:	f000 fa09 	bl	8007aac <_Balloc>
 800769a:	4606      	mov	r6, r0
 800769c:	b928      	cbnz	r0, 80076aa <_dtoa_r+0x9a2>
 800769e:	4602      	mov	r2, r0
 80076a0:	f240 21ef 	movw	r1, #751	@ 0x2ef
 80076a4:	4b80      	ldr	r3, [pc, #512]	@ (80078a8 <_dtoa_r+0xba0>)
 80076a6:	f7ff bb43 	b.w	8006d30 <_dtoa_r+0x28>
 80076aa:	692a      	ldr	r2, [r5, #16]
 80076ac:	f105 010c 	add.w	r1, r5, #12
 80076b0:	3202      	adds	r2, #2
 80076b2:	0092      	lsls	r2, r2, #2
 80076b4:	300c      	adds	r0, #12
 80076b6:	f7ff fa90 	bl	8006bda <memcpy>
 80076ba:	2201      	movs	r2, #1
 80076bc:	4631      	mov	r1, r6
 80076be:	4648      	mov	r0, r9
 80076c0:	f000 fbfa 	bl	8007eb8 <__lshift>
 80076c4:	462f      	mov	r7, r5
 80076c6:	4605      	mov	r5, r0
 80076c8:	f10a 0301 	add.w	r3, sl, #1
 80076cc:	9304      	str	r3, [sp, #16]
 80076ce:	eb0a 030b 	add.w	r3, sl, fp
 80076d2:	930a      	str	r3, [sp, #40]	@ 0x28
 80076d4:	9b06      	ldr	r3, [sp, #24]
 80076d6:	f003 0301 	and.w	r3, r3, #1
 80076da:	9309      	str	r3, [sp, #36]	@ 0x24
 80076dc:	9b04      	ldr	r3, [sp, #16]
 80076de:	4621      	mov	r1, r4
 80076e0:	9803      	ldr	r0, [sp, #12]
 80076e2:	f103 3bff 	add.w	fp, r3, #4294967295
 80076e6:	f7ff fa86 	bl	8006bf6 <quorem>
 80076ea:	4603      	mov	r3, r0
 80076ec:	4639      	mov	r1, r7
 80076ee:	3330      	adds	r3, #48	@ 0x30
 80076f0:	9006      	str	r0, [sp, #24]
 80076f2:	9803      	ldr	r0, [sp, #12]
 80076f4:	930b      	str	r3, [sp, #44]	@ 0x2c
 80076f6:	f000 fc4b 	bl	8007f90 <__mcmp>
 80076fa:	462a      	mov	r2, r5
 80076fc:	9008      	str	r0, [sp, #32]
 80076fe:	4621      	mov	r1, r4
 8007700:	4648      	mov	r0, r9
 8007702:	f000 fc61 	bl	8007fc8 <__mdiff>
 8007706:	68c2      	ldr	r2, [r0, #12]
 8007708:	4606      	mov	r6, r0
 800770a:	9b0b      	ldr	r3, [sp, #44]	@ 0x2c
 800770c:	bb02      	cbnz	r2, 8007750 <_dtoa_r+0xa48>
 800770e:	4601      	mov	r1, r0
 8007710:	9803      	ldr	r0, [sp, #12]
 8007712:	f000 fc3d 	bl	8007f90 <__mcmp>
 8007716:	4602      	mov	r2, r0
 8007718:	9b0b      	ldr	r3, [sp, #44]	@ 0x2c
 800771a:	4631      	mov	r1, r6
 800771c:	4648      	mov	r0, r9
 800771e:	e9cd 320b 	strd	r3, r2, [sp, #44]	@ 0x2c
 8007722:	f000 fa03 	bl	8007b2c <_Bfree>
 8007726:	9b20      	ldr	r3, [sp, #128]	@ 0x80
 8007728:	9a0c      	ldr	r2, [sp, #48]	@ 0x30
 800772a:	9e04      	ldr	r6, [sp, #16]
 800772c:	ea42 0103 	orr.w	r1, r2, r3
 8007730:	9b09      	ldr	r3, [sp, #36]	@ 0x24
 8007732:	4319      	orrs	r1, r3
 8007734:	9b0b      	ldr	r3, [sp, #44]	@ 0x2c
 8007736:	d10d      	bne.n	8007754 <_dtoa_r+0xa4c>
 8007738:	2b39      	cmp	r3, #57	@ 0x39
 800773a:	d027      	beq.n	800778c <_dtoa_r+0xa84>
 800773c:	9a08      	ldr	r2, [sp, #32]
 800773e:	2a00      	cmp	r2, #0
 8007740:	dd01      	ble.n	8007746 <_dtoa_r+0xa3e>
 8007742:	9b06      	ldr	r3, [sp, #24]
 8007744:	3331      	adds	r3, #49	@ 0x31
 8007746:	f88b 3000 	strb.w	r3, [fp]
 800774a:	e52e      	b.n	80071aa <_dtoa_r+0x4a2>
 800774c:	4628      	mov	r0, r5
 800774e:	e7b9      	b.n	80076c4 <_dtoa_r+0x9bc>
 8007750:	2201      	movs	r2, #1
 8007752:	e7e2      	b.n	800771a <_dtoa_r+0xa12>
 8007754:	9908      	ldr	r1, [sp, #32]
 8007756:	2900      	cmp	r1, #0
 8007758:	db04      	blt.n	8007764 <_dtoa_r+0xa5c>
 800775a:	9820      	ldr	r0, [sp, #128]	@ 0x80
 800775c:	4301      	orrs	r1, r0
 800775e:	9809      	ldr	r0, [sp, #36]	@ 0x24
 8007760:	4301      	orrs	r1, r0
 8007762:	d120      	bne.n	80077a6 <_dtoa_r+0xa9e>
 8007764:	2a00      	cmp	r2, #0
 8007766:	ddee      	ble.n	8007746 <_dtoa_r+0xa3e>
 8007768:	2201      	movs	r2, #1
 800776a:	9903      	ldr	r1, [sp, #12]
 800776c:	4648      	mov	r0, r9
 800776e:	9304      	str	r3, [sp, #16]
 8007770:	f000 fba2 	bl	8007eb8 <__lshift>
 8007774:	4621      	mov	r1, r4
 8007776:	9003      	str	r0, [sp, #12]
 8007778:	f000 fc0a 	bl	8007f90 <__mcmp>
 800777c:	2800      	cmp	r0, #0
 800777e:	9b04      	ldr	r3, [sp, #16]
 8007780:	dc02      	bgt.n	8007788 <_dtoa_r+0xa80>
 8007782:	d1e0      	bne.n	8007746 <_dtoa_r+0xa3e>
 8007784:	07da      	lsls	r2, r3, #31
 8007786:	d5de      	bpl.n	8007746 <_dtoa_r+0xa3e>
 8007788:	2b39      	cmp	r3, #57	@ 0x39
 800778a:	d1da      	bne.n	8007742 <_dtoa_r+0xa3a>
 800778c:	2339      	movs	r3, #57	@ 0x39
 800778e:	f88b 3000 	strb.w	r3, [fp]
 8007792:	4633      	mov	r3, r6
 8007794:	461e      	mov	r6, r3
 8007796:	f816 2c01 	ldrb.w	r2, [r6, #-1]
 800779a:	3b01      	subs	r3, #1
 800779c:	2a39      	cmp	r2, #57	@ 0x39
 800779e:	d04e      	beq.n	800783e <_dtoa_r+0xb36>
 80077a0:	3201      	adds	r2, #1
 80077a2:	701a      	strb	r2, [r3, #0]
 80077a4:	e501      	b.n	80071aa <_dtoa_r+0x4a2>
 80077a6:	2a00      	cmp	r2, #0
 80077a8:	dd03      	ble.n	80077b2 <_dtoa_r+0xaaa>
 80077aa:	2b39      	cmp	r3, #57	@ 0x39
 80077ac:	d0ee      	beq.n	800778c <_dtoa_r+0xa84>
 80077ae:	3301      	adds	r3, #1
 80077b0:	e7c9      	b.n	8007746 <_dtoa_r+0xa3e>
 80077b2:	9a04      	ldr	r2, [sp, #16]
 80077b4:	990a      	ldr	r1, [sp, #40]	@ 0x28
 80077b6:	f802 3c01 	strb.w	r3, [r2, #-1]
 80077ba:	428a      	cmp	r2, r1
 80077bc:	d028      	beq.n	8007810 <_dtoa_r+0xb08>
 80077be:	2300      	movs	r3, #0
 80077c0:	220a      	movs	r2, #10
 80077c2:	9903      	ldr	r1, [sp, #12]
 80077c4:	4648      	mov	r0, r9
 80077c6:	f000 f9d3 	bl	8007b70 <__multadd>
 80077ca:	42af      	cmp	r7, r5
 80077cc:	9003      	str	r0, [sp, #12]
 80077ce:	f04f 0300 	mov.w	r3, #0
 80077d2:	f04f 020a 	mov.w	r2, #10
 80077d6:	4639      	mov	r1, r7
 80077d8:	4648      	mov	r0, r9
 80077da:	d107      	bne.n	80077ec <_dtoa_r+0xae4>
 80077dc:	f000 f9c8 	bl	8007b70 <__multadd>
 80077e0:	4607      	mov	r7, r0
 80077e2:	4605      	mov	r5, r0
 80077e4:	9b04      	ldr	r3, [sp, #16]
 80077e6:	3301      	adds	r3, #1
 80077e8:	9304      	str	r3, [sp, #16]
 80077ea:	e777      	b.n	80076dc <_dtoa_r+0x9d4>
 80077ec:	f000 f9c0 	bl	8007b70 <__multadd>
 80077f0:	4629      	mov	r1, r5
 80077f2:	4607      	mov	r7, r0
 80077f4:	2300      	movs	r3, #0
 80077f6:	220a      	movs	r2, #10
 80077f8:	4648      	mov	r0, r9
 80077fa:	f000 f9b9 	bl	8007b70 <__multadd>
 80077fe:	4605      	mov	r5, r0
 8007800:	e7f0      	b.n	80077e4 <_dtoa_r+0xadc>
 8007802:	f1bb 0f00 	cmp.w	fp, #0
 8007806:	bfcc      	ite	gt
 8007808:	465e      	movgt	r6, fp
 800780a:	2601      	movle	r6, #1
 800780c:	2700      	movs	r7, #0
 800780e:	4456      	add	r6, sl
 8007810:	2201      	movs	r2, #1
 8007812:	9903      	ldr	r1, [sp, #12]
 8007814:	4648      	mov	r0, r9
 8007816:	9304      	str	r3, [sp, #16]
 8007818:	f000 fb4e 	bl	8007eb8 <__lshift>
 800781c:	4621      	mov	r1, r4
 800781e:	9003      	str	r0, [sp, #12]
 8007820:	f000 fbb6 	bl	8007f90 <__mcmp>
 8007824:	2800      	cmp	r0, #0
 8007826:	dcb4      	bgt.n	8007792 <_dtoa_r+0xa8a>
 8007828:	d102      	bne.n	8007830 <_dtoa_r+0xb28>
 800782a:	9b04      	ldr	r3, [sp, #16]
 800782c:	07db      	lsls	r3, r3, #31
 800782e:	d4b0      	bmi.n	8007792 <_dtoa_r+0xa8a>
 8007830:	4633      	mov	r3, r6
 8007832:	461e      	mov	r6, r3
 8007834:	f813 2d01 	ldrb.w	r2, [r3, #-1]!
 8007838:	2a30      	cmp	r2, #48	@ 0x30
 800783a:	d0fa      	beq.n	8007832 <_dtoa_r+0xb2a>
 800783c:	e4b5      	b.n	80071aa <_dtoa_r+0x4a2>
 800783e:	459a      	cmp	sl, r3
 8007840:	d1a8      	bne.n	8007794 <_dtoa_r+0xa8c>
 8007842:	2331      	movs	r3, #49	@ 0x31
 8007844:	f108 0801 	add.w	r8, r8, #1
 8007848:	f88a 3000 	strb.w	r3, [sl]
 800784c:	e4ad      	b.n	80071aa <_dtoa_r+0x4a2>
 800784e:	9b24      	ldr	r3, [sp, #144]	@ 0x90
 8007850:	f8df a058 	ldr.w	sl, [pc, #88]	@ 80078ac <_dtoa_r+0xba4>
 8007854:	b11b      	cbz	r3, 800785e <_dtoa_r+0xb56>
 8007856:	f10a 0308 	add.w	r3, sl, #8
 800785a:	9a24      	ldr	r2, [sp, #144]	@ 0x90
 800785c:	6013      	str	r3, [r2, #0]
 800785e:	4650      	mov	r0, sl
 8007860:	b017      	add	sp, #92	@ 0x5c
 8007862:	e8bd 8ff0 	ldmia.w	sp!, {r4, r5, r6, r7, r8, r9, sl, fp, pc}
 8007866:	9b20      	ldr	r3, [sp, #128]	@ 0x80
 8007868:	2b01      	cmp	r3, #1
 800786a:	f77f ae2e 	ble.w	80074ca <_dtoa_r+0x7c2>
 800786e:	9b0e      	ldr	r3, [sp, #56]	@ 0x38
 8007870:	930a      	str	r3, [sp, #40]	@ 0x28
 8007872:	2001      	movs	r0, #1
 8007874:	e64d      	b.n	8007512 <_dtoa_r+0x80a>
 8007876:	f1bb 0f00 	cmp.w	fp, #0
 800787a:	f77f aed9 	ble.w	8007630 <_dtoa_r+0x928>
 800787e:	4656      	mov	r6, sl
 8007880:	4621      	mov	r1, r4
 8007882:	9803      	ldr	r0, [sp, #12]
 8007884:	f7ff f9b7 	bl	8006bf6 <quorem>
 8007888:	f100 0330 	add.w	r3, r0, #48	@ 0x30
 800788c:	f806 3b01 	strb.w	r3, [r6], #1
 8007890:	eba6 020a 	sub.w	r2, r6, sl
 8007894:	4593      	cmp	fp, r2
 8007896:	ddb4      	ble.n	8007802 <_dtoa_r+0xafa>
 8007898:	2300      	movs	r3, #0
 800789a:	220a      	movs	r2, #10
 800789c:	4648      	mov	r0, r9
 800789e:	9903      	ldr	r1, [sp, #12]
 80078a0:	f000 f966 	bl	8007b70 <__multadd>
 80078a4:	9003      	str	r0, [sp, #12]
 80078a6:	e7eb      	b.n	8007880 <_dtoa_r+0xb78>
 80078a8:	08009105 	.word	0x08009105
 80078ac:	08009089 	.word	0x08009089

080078b0 <_free_r>:
 80078b0:	b538      	push	{r3, r4, r5, lr}
 80078b2:	4605      	mov	r5, r0
 80078b4:	2900      	cmp	r1, #0
 80078b6:	d040      	beq.n	800793a <_free_r+0x8a>
 80078b8:	f851 3c04 	ldr.w	r3, [r1, #-4]
 80078bc:	1f0c      	subs	r4, r1, #4
 80078be:	2b00      	cmp	r3, #0
 80078c0:	bfb8      	it	lt
 80078c2:	18e4      	addlt	r4, r4, r3
 80078c4:	f000 f8e6 	bl	8007a94 <__malloc_lock>
 80078c8:	4a1c      	ldr	r2, [pc, #112]	@ (800793c <_free_r+0x8c>)
 80078ca:	6813      	ldr	r3, [r2, #0]
 80078cc:	b933      	cbnz	r3, 80078dc <_free_r+0x2c>
 80078ce:	6063      	str	r3, [r4, #4]
 80078d0:	6014      	str	r4, [r2, #0]
 80078d2:	4628      	mov	r0, r5
 80078d4:	e8bd 4038 	ldmia.w	sp!, {r3, r4, r5, lr}
 80078d8:	f000 b8e2 	b.w	8007aa0 <__malloc_unlock>
 80078dc:	42a3      	cmp	r3, r4
 80078de:	d908      	bls.n	80078f2 <_free_r+0x42>
 80078e0:	6820      	ldr	r0, [r4, #0]
 80078e2:	1821      	adds	r1, r4, r0
 80078e4:	428b      	cmp	r3, r1
 80078e6:	bf01      	itttt	eq
 80078e8:	6819      	ldreq	r1, [r3, #0]
 80078ea:	685b      	ldreq	r3, [r3, #4]
 80078ec:	1809      	addeq	r1, r1, r0
 80078ee:	6021      	streq	r1, [r4, #0]
 80078f0:	e7ed      	b.n	80078ce <_free_r+0x1e>
 80078f2:	461a      	mov	r2, r3
 80078f4:	685b      	ldr	r3, [r3, #4]
 80078f6:	b10b      	cbz	r3, 80078fc <_free_r+0x4c>
 80078f8:	42a3      	cmp	r3, r4
 80078fa:	d9fa      	bls.n	80078f2 <_free_r+0x42>
 80078fc:	6811      	ldr	r1, [r2, #0]
 80078fe:	1850      	adds	r0, r2, r1
 8007900:	42a0      	cmp	r0, r4
 8007902:	d10b      	bne.n	800791c <_free_r+0x6c>
 8007904:	6820      	ldr	r0, [r4, #0]
 8007906:	4401      	add	r1, r0
 8007908:	1850      	adds	r0, r2, r1
 800790a:	4283      	cmp	r3, r0
 800790c:	6011      	str	r1, [r2, #0]
 800790e:	d1e0      	bne.n	80078d2 <_free_r+0x22>
 8007910:	6818      	ldr	r0, [r3, #0]
 8007912:	685b      	ldr	r3, [r3, #4]
 8007914:	4408      	add	r0, r1
 8007916:	6010      	str	r0, [r2, #0]
 8007918:	6053      	str	r3, [r2, #4]
 800791a:	e7da      	b.n	80078d2 <_free_r+0x22>
 800791c:	d902      	bls.n	8007924 <_free_r+0x74>
 800791e:	230c      	movs	r3, #12
 8007920:	602b      	str	r3, [r5, #0]
 8007922:	e7d6      	b.n	80078d2 <_free_r+0x22>
 8007924:	6820      	ldr	r0, [r4, #0]
 8007926:	1821      	adds	r1, r4, r0
 8007928:	428b      	cmp	r3, r1
 800792a:	bf01      	itttt	eq
 800792c:	6819      	ldreq	r1, [r3, #0]
 800792e:	685b      	ldreq	r3, [r3, #4]
 8007930:	1809      	addeq	r1, r1, r0
 8007932:	6021      	streq	r1, [r4, #0]
 8007934:	6063      	str	r3, [r4, #4]
 8007936:	6054      	str	r4, [r2, #4]
 8007938:	e7cb      	b.n	80078d2 <_free_r+0x22>
 800793a:	bd38      	pop	{r3, r4, r5, pc}
 800793c:	20003f5c 	.word	0x20003f5c

08007940 <malloc>:
 8007940:	4b02      	ldr	r3, [pc, #8]	@ (800794c <malloc+0xc>)
 8007942:	4601      	mov	r1, r0
 8007944:	6818      	ldr	r0, [r3, #0]
 8007946:	f000 b825 	b.w	8007994 <_malloc_r>
 800794a:	bf00      	nop
 800794c:	20000024 	.word	0x20000024

08007950 <sbrk_aligned>:
 8007950:	b570      	push	{r4, r5, r6, lr}
 8007952:	4e0f      	ldr	r6, [pc, #60]	@ (8007990 <sbrk_aligned+0x40>)
 8007954:	460c      	mov	r4, r1
 8007956:	6831      	ldr	r1, [r6, #0]
 8007958:	4605      	mov	r5, r0
 800795a:	b911      	cbnz	r1, 8007962 <sbrk_aligned+0x12>
 800795c:	f000 fe3a 	bl	80085d4 <_sbrk_r>
 8007960:	6030      	str	r0, [r6, #0]
 8007962:	4621      	mov	r1, r4
 8007964:	4628      	mov	r0, r5
 8007966:	f000 fe35 	bl	80085d4 <_sbrk_r>
 800796a:	1c43      	adds	r3, r0, #1
 800796c:	d103      	bne.n	8007976 <sbrk_aligned+0x26>
 800796e:	f04f 34ff 	mov.w	r4, #4294967295
 8007972:	4620      	mov	r0, r4
 8007974:	bd70      	pop	{r4, r5, r6, pc}
 8007976:	1cc4      	adds	r4, r0, #3
 8007978:	f024 0403 	bic.w	r4, r4, #3
 800797c:	42a0      	cmp	r0, r4
 800797e:	d0f8      	beq.n	8007972 <sbrk_aligned+0x22>
 8007980:	1a21      	subs	r1, r4, r0
 8007982:	4628      	mov	r0, r5
 8007984:	f000 fe26 	bl	80085d4 <_sbrk_r>
 8007988:	3001      	adds	r0, #1
 800798a:	d1f2      	bne.n	8007972 <sbrk_aligned+0x22>
 800798c:	e7ef      	b.n	800796e <sbrk_aligned+0x1e>
 800798e:	bf00      	nop
 8007990:	20003f58 	.word	0x20003f58

08007994 <_malloc_r>:
 8007994:	e92d 43f8 	stmdb	sp!, {r3, r4, r5, r6, r7, r8, r9, lr}
 8007998:	1ccd      	adds	r5, r1, #3
 800799a:	f025 0503 	bic.w	r5, r5, #3
 800799e:	3508      	adds	r5, #8
 80079a0:	2d0c      	cmp	r5, #12
 80079a2:	bf38      	it	cc
 80079a4:	250c      	movcc	r5, #12
 80079a6:	2d00      	cmp	r5, #0
 80079a8:	4606      	mov	r6, r0
 80079aa:	db01      	blt.n	80079b0 <_malloc_r+0x1c>
 80079ac:	42a9      	cmp	r1, r5
 80079ae:	d904      	bls.n	80079ba <_malloc_r+0x26>
 80079b0:	230c      	movs	r3, #12
 80079b2:	6033      	str	r3, [r6, #0]
 80079b4:	2000      	movs	r0, #0
 80079b6:	e8bd 83f8 	ldmia.w	sp!, {r3, r4, r5, r6, r7, r8, r9, pc}
 80079ba:	f8df 80d4 	ldr.w	r8, [pc, #212]	@ 8007a90 <_malloc_r+0xfc>
 80079be:	f000 f869 	bl	8007a94 <__malloc_lock>
 80079c2:	f8d8 3000 	ldr.w	r3, [r8]
 80079c6:	461c      	mov	r4, r3
 80079c8:	bb44      	cbnz	r4, 8007a1c <_malloc_r+0x88>
 80079ca:	4629      	mov	r1, r5
 80079cc:	4630      	mov	r0, r6
 80079ce:	f7ff ffbf 	bl	8007950 <sbrk_aligned>
 80079d2:	1c43      	adds	r3, r0, #1
 80079d4:	4604      	mov	r4, r0
 80079d6:	d158      	bne.n	8007a8a <_malloc_r+0xf6>
 80079d8:	f8d8 4000 	ldr.w	r4, [r8]
 80079dc:	4627      	mov	r7, r4
 80079de:	2f00      	cmp	r7, #0
 80079e0:	d143      	bne.n	8007a6a <_malloc_r+0xd6>
 80079e2:	2c00      	cmp	r4, #0
 80079e4:	d04b      	beq.n	8007a7e <_malloc_r+0xea>
 80079e6:	6823      	ldr	r3, [r4, #0]
 80079e8:	4639      	mov	r1, r7
 80079ea:	4630      	mov	r0, r6
 80079ec:	eb04 0903 	add.w	r9, r4, r3
 80079f0:	f000 fdf0 	bl	80085d4 <_sbrk_r>
 80079f4:	4581      	cmp	r9, r0
 80079f6:	d142      	bne.n	8007a7e <_malloc_r+0xea>
 80079f8:	6821      	ldr	r1, [r4, #0]
 80079fa:	4630      	mov	r0, r6
 80079fc:	1a6d      	subs	r5, r5, r1
 80079fe:	4629      	mov	r1, r5
 8007a00:	f7ff ffa6 	bl	8007950 <sbrk_aligned>
 8007a04:	3001      	adds	r0, #1
 8007a06:	d03a      	beq.n	8007a7e <_malloc_r+0xea>
 8007a08:	6823      	ldr	r3, [r4, #0]
 8007a0a:	442b      	add	r3, r5
 8007a0c:	6023      	str	r3, [r4, #0]
 8007a0e:	f8d8 3000 	ldr.w	r3, [r8]
 8007a12:	685a      	ldr	r2, [r3, #4]
 8007a14:	bb62      	cbnz	r2, 8007a70 <_malloc_r+0xdc>
 8007a16:	f8c8 7000 	str.w	r7, [r8]
 8007a1a:	e00f      	b.n	8007a3c <_malloc_r+0xa8>
 8007a1c:	6822      	ldr	r2, [r4, #0]
 8007a1e:	1b52      	subs	r2, r2, r5
 8007a20:	d420      	bmi.n	8007a64 <_malloc_r+0xd0>
 8007a22:	2a0b      	cmp	r2, #11
 8007a24:	d917      	bls.n	8007a56 <_malloc_r+0xc2>
 8007a26:	1961      	adds	r1, r4, r5
 8007a28:	42a3      	cmp	r3, r4
 8007a2a:	6025      	str	r5, [r4, #0]
 8007a2c:	bf18      	it	ne
 8007a2e:	6059      	strne	r1, [r3, #4]
 8007a30:	6863      	ldr	r3, [r4, #4]
 8007a32:	bf08      	it	eq
 8007a34:	f8c8 1000 	streq.w	r1, [r8]
 8007a38:	5162      	str	r2, [r4, r5]
 8007a3a:	604b      	str	r3, [r1, #4]
 8007a3c:	4630      	mov	r0, r6
 8007a3e:	f000 f82f 	bl	8007aa0 <__malloc_unlock>
 8007a42:	f104 000b 	add.w	r0, r4, #11
 8007a46:	1d23      	adds	r3, r4, #4
 8007a48:	f020 0007 	bic.w	r0, r0, #7
 8007a4c:	1ac2      	subs	r2, r0, r3
 8007a4e:	bf1c      	itt	ne
 8007a50:	1a1b      	subne	r3, r3, r0
 8007a52:	50a3      	strne	r3, [r4, r2]
 8007a54:	e7af      	b.n	80079b6 <_malloc_r+0x22>
 8007a56:	6862      	ldr	r2, [r4, #4]
 8007a58:	42a3      	cmp	r3, r4
 8007a5a:	bf0c      	ite	eq
 8007a5c:	f8c8 2000 	streq.w	r2, [r8]
 8007a60:	605a      	strne	r2, [r3, #4]
 8007a62:	e7eb      	b.n	8007a3c <_malloc_r+0xa8>
 8007a64:	4623      	mov	r3, r4
 8007a66:	6864      	ldr	r4, [r4, #4]
 8007a68:	e7ae      	b.n	80079c8 <_malloc_r+0x34>
 8007a6a:	463c      	mov	r4, r7
 8007a6c:	687f      	ldr	r7, [r7, #4]
 8007a6e:	e7b6      	b.n	80079de <_malloc_r+0x4a>
 8007a70:	461a      	mov	r2, r3
 8007a72:	685b      	ldr	r3, [r3, #4]
 8007a74:	42a3      	cmp	r3, r4
 8007a76:	d1fb      	bne.n	8007a70 <_malloc_r+0xdc>
 8007a78:	2300      	movs	r3, #0
 8007a7a:	6053      	str	r3, [r2, #4]
 8007a7c:	e7de      	b.n	8007a3c <_malloc_r+0xa8>
 8007a7e:	230c      	movs	r3, #12
 8007a80:	4630      	mov	r0, r6
 8007a82:	6033      	str	r3, [r6, #0]
 8007a84:	f000 f80c 	bl	8007aa0 <__malloc_unlock>
 8007a88:	e794      	b.n	80079b4 <_malloc_r+0x20>
 8007a8a:	6005      	str	r5, [r0, #0]
 8007a8c:	e7d6      	b.n	8007a3c <_malloc_r+0xa8>
 8007a8e:	bf00      	nop
 8007a90:	20003f5c 	.word	0x20003f5c

08007a94 <__malloc_lock>:
 8007a94:	4801      	ldr	r0, [pc, #4]	@ (8007a9c <__malloc_lock+0x8>)
 8007a96:	f7ff b890 	b.w	8006bba <__retarget_lock_acquire_recursive>
 8007a9a:	bf00      	nop
 8007a9c:	20003f54 	.word	0x20003f54

08007aa0 <__malloc_unlock>:
 8007aa0:	4801      	ldr	r0, [pc, #4]	@ (8007aa8 <__malloc_unlock+0x8>)
 8007aa2:	f7ff b88b 	b.w	8006bbc <__retarget_lock_release_recursive>
 8007aa6:	bf00      	nop
 8007aa8:	20003f54 	.word	0x20003f54

08007aac <_Balloc>:
 8007aac:	b570      	push	{r4, r5, r6, lr}
 8007aae:	69c6      	ldr	r6, [r0, #28]
 8007ab0:	4604      	mov	r4, r0
 8007ab2:	460d      	mov	r5, r1
 8007ab4:	b976      	cbnz	r6, 8007ad4 <_Balloc+0x28>
 8007ab6:	2010      	movs	r0, #16
 8007ab8:	f7ff ff42 	bl	8007940 <malloc>
 8007abc:	4602      	mov	r2, r0
 8007abe:	61e0      	str	r0, [r4, #28]
 8007ac0:	b920      	cbnz	r0, 8007acc <_Balloc+0x20>
 8007ac2:	216b      	movs	r1, #107	@ 0x6b
 8007ac4:	4b17      	ldr	r3, [pc, #92]	@ (8007b24 <_Balloc+0x78>)
 8007ac6:	4818      	ldr	r0, [pc, #96]	@ (8007b28 <_Balloc+0x7c>)
 8007ac8:	f000 fd94 	bl	80085f4 <__assert_func>
 8007acc:	e9c0 6601 	strd	r6, r6, [r0, #4]
 8007ad0:	6006      	str	r6, [r0, #0]
 8007ad2:	60c6      	str	r6, [r0, #12]
 8007ad4:	69e6      	ldr	r6, [r4, #28]
 8007ad6:	68f3      	ldr	r3, [r6, #12]
 8007ad8:	b183      	cbz	r3, 8007afc <_Balloc+0x50>
 8007ada:	69e3      	ldr	r3, [r4, #28]
 8007adc:	68db      	ldr	r3, [r3, #12]
 8007ade:	f853 0025 	ldr.w	r0, [r3, r5, lsl #2]
 8007ae2:	b9b8      	cbnz	r0, 8007b14 <_Balloc+0x68>
 8007ae4:	2101      	movs	r1, #1
 8007ae6:	fa01 f605 	lsl.w	r6, r1, r5
 8007aea:	1d72      	adds	r2, r6, #5
 8007aec:	4620      	mov	r0, r4
 8007aee:	0092      	lsls	r2, r2, #2
 8007af0:	f000 fd9e 	bl	8008630 <_calloc_r>
 8007af4:	b160      	cbz	r0, 8007b10 <_Balloc+0x64>
 8007af6:	e9c0 5601 	strd	r5, r6, [r0, #4]
 8007afa:	e00e      	b.n	8007b1a <_Balloc+0x6e>
 8007afc:	2221      	movs	r2, #33	@ 0x21
 8007afe:	2104      	movs	r1, #4
 8007b00:	4620      	mov	r0, r4
 8007b02:	f000 fd95 	bl	8008630 <_calloc_r>
 8007b06:	69e3      	ldr	r3, [r4, #28]
 8007b08:	60f0      	str	r0, [r6, #12]
 8007b0a:	68db      	ldr	r3, [r3, #12]
 8007b0c:	2b00      	cmp	r3, #0
 8007b0e:	d1e4      	bne.n	8007ada <_Balloc+0x2e>
 8007b10:	2000      	movs	r0, #0
 8007b12:	bd70      	pop	{r4, r5, r6, pc}
 8007b14:	6802      	ldr	r2, [r0, #0]
 8007b16:	f843 2025 	str.w	r2, [r3, r5, lsl #2]
 8007b1a:	2300      	movs	r3, #0
 8007b1c:	e9c0 3303 	strd	r3, r3, [r0, #12]
 8007b20:	e7f7      	b.n	8007b12 <_Balloc+0x66>
 8007b22:	bf00      	nop
 8007b24:	08009096 	.word	0x08009096
 8007b28:	08009116 	.word	0x08009116

08007b2c <_Bfree>:
 8007b2c:	b570      	push	{r4, r5, r6, lr}
 8007b2e:	69c6      	ldr	r6, [r0, #28]
 8007b30:	4605      	mov	r5, r0
 8007b32:	460c      	mov	r4, r1
 8007b34:	b976      	cbnz	r6, 8007b54 <_Bfree+0x28>
 8007b36:	2010      	movs	r0, #16
 8007b38:	f7ff ff02 	bl	8007940 <malloc>
 8007b3c:	4602      	mov	r2, r0
 8007b3e:	61e8      	str	r0, [r5, #28]
 8007b40:	b920      	cbnz	r0, 8007b4c <_Bfree+0x20>
 8007b42:	218f      	movs	r1, #143	@ 0x8f
 8007b44:	4b08      	ldr	r3, [pc, #32]	@ (8007b68 <_Bfree+0x3c>)
 8007b46:	4809      	ldr	r0, [pc, #36]	@ (8007b6c <_Bfree+0x40>)
 8007b48:	f000 fd54 	bl	80085f4 <__assert_func>
 8007b4c:	e9c0 6601 	strd	r6, r6, [r0, #4]
 8007b50:	6006      	str	r6, [r0, #0]
 8007b52:	60c6      	str	r6, [r0, #12]
 8007b54:	b13c      	cbz	r4, 8007b66 <_Bfree+0x3a>
 8007b56:	69eb      	ldr	r3, [r5, #28]
 8007b58:	6862      	ldr	r2, [r4, #4]
 8007b5a:	68db      	ldr	r3, [r3, #12]
 8007b5c:	f853 1022 	ldr.w	r1, [r3, r2, lsl #2]
 8007b60:	6021      	str	r1, [r4, #0]
 8007b62:	f843 4022 	str.w	r4, [r3, r2, lsl #2]
 8007b66:	bd70      	pop	{r4, r5, r6, pc}
 8007b68:	08009096 	.word	0x08009096
 8007b6c:	08009116 	.word	0x08009116

08007b70 <__multadd>:
 8007b70:	e92d 41f0 	stmdb	sp!, {r4, r5, r6, r7, r8, lr}
 8007b74:	4607      	mov	r7, r0
 8007b76:	460c      	mov	r4, r1
 8007b78:	461e      	mov	r6, r3
 8007b7a:	2000      	movs	r0, #0
 8007b7c:	690d      	ldr	r5, [r1, #16]
 8007b7e:	f101 0c14 	add.w	ip, r1, #20
 8007b82:	f8dc 3000 	ldr.w	r3, [ip]
 8007b86:	3001      	adds	r0, #1
 8007b88:	b299      	uxth	r1, r3
 8007b8a:	fb02 6101 	mla	r1, r2, r1, r6
 8007b8e:	0c1e      	lsrs	r6, r3, #16
 8007b90:	0c0b      	lsrs	r3, r1, #16
 8007b92:	fb02 3306 	mla	r3, r2, r6, r3
 8007b96:	b289      	uxth	r1, r1
 8007b98:	eb01 4103 	add.w	r1, r1, r3, lsl #16
 8007b9c:	4285      	cmp	r5, r0
 8007b9e:	ea4f 4613 	mov.w	r6, r3, lsr #16
 8007ba2:	f84c 1b04 	str.w	r1, [ip], #4
 8007ba6:	dcec      	bgt.n	8007b82 <__multadd+0x12>
 8007ba8:	b30e      	cbz	r6, 8007bee <__multadd+0x7e>
 8007baa:	68a3      	ldr	r3, [r4, #8]
 8007bac:	42ab      	cmp	r3, r5
 8007bae:	dc19      	bgt.n	8007be4 <__multadd+0x74>
 8007bb0:	6861      	ldr	r1, [r4, #4]
 8007bb2:	4638      	mov	r0, r7
 8007bb4:	3101      	adds	r1, #1
 8007bb6:	f7ff ff79 	bl	8007aac <_Balloc>
 8007bba:	4680      	mov	r8, r0
 8007bbc:	b928      	cbnz	r0, 8007bca <__multadd+0x5a>
 8007bbe:	4602      	mov	r2, r0
 8007bc0:	21ba      	movs	r1, #186	@ 0xba
 8007bc2:	4b0c      	ldr	r3, [pc, #48]	@ (8007bf4 <__multadd+0x84>)
 8007bc4:	480c      	ldr	r0, [pc, #48]	@ (8007bf8 <__multadd+0x88>)
 8007bc6:	f000 fd15 	bl	80085f4 <__assert_func>
 8007bca:	6922      	ldr	r2, [r4, #16]
 8007bcc:	f104 010c 	add.w	r1, r4, #12
 8007bd0:	3202      	adds	r2, #2
 8007bd2:	0092      	lsls	r2, r2, #2
 8007bd4:	300c      	adds	r0, #12
 8007bd6:	f7ff f800 	bl	8006bda <memcpy>
 8007bda:	4621      	mov	r1, r4
 8007bdc:	4638      	mov	r0, r7
 8007bde:	f7ff ffa5 	bl	8007b2c <_Bfree>
 8007be2:	4644      	mov	r4, r8
 8007be4:	eb04 0385 	add.w	r3, r4, r5, lsl #2
 8007be8:	3501      	adds	r5, #1
 8007bea:	615e      	str	r6, [r3, #20]
 8007bec:	6125      	str	r5, [r4, #16]
 8007bee:	4620      	mov	r0, r4
 8007bf0:	e8bd 81f0 	ldmia.w	sp!, {r4, r5, r6, r7, r8, pc}
 8007bf4:	08009105 	.word	0x08009105
 8007bf8:	08009116 	.word	0x08009116

08007bfc <__hi0bits>:
 8007bfc:	4603      	mov	r3, r0
 8007bfe:	f5b0 3f80 	cmp.w	r0, #65536	@ 0x10000
 8007c02:	bf3a      	itte	cc
 8007c04:	0403      	lslcc	r3, r0, #16
 8007c06:	2010      	movcc	r0, #16
 8007c08:	2000      	movcs	r0, #0
 8007c0a:	f1b3 7f80 	cmp.w	r3, #16777216	@ 0x1000000
 8007c0e:	bf3c      	itt	cc
 8007c10:	021b      	lslcc	r3, r3, #8
 8007c12:	3008      	addcc	r0, #8
 8007c14:	f1b3 5f80 	cmp.w	r3, #268435456	@ 0x10000000
 8007c18:	bf3c      	itt	cc
 8007c1a:	011b      	lslcc	r3, r3, #4
 8007c1c:	3004      	addcc	r0, #4
 8007c1e:	f1b3 4f80 	cmp.w	r3, #1073741824	@ 0x40000000
 8007c22:	bf3c      	itt	cc
 8007c24:	009b      	lslcc	r3, r3, #2
 8007c26:	3002      	addcc	r0, #2
 8007c28:	2b00      	cmp	r3, #0
 8007c2a:	db05      	blt.n	8007c38 <__hi0bits+0x3c>
 8007c2c:	f013 4f80 	tst.w	r3, #1073741824	@ 0x40000000
 8007c30:	f100 0001 	add.w	r0, r0, #1
 8007c34:	bf08      	it	eq
 8007c36:	2020      	moveq	r0, #32
 8007c38:	4770      	bx	lr

08007c3a <__lo0bits>:
 8007c3a:	6803      	ldr	r3, [r0, #0]
 8007c3c:	4602      	mov	r2, r0
 8007c3e:	f013 0007 	ands.w	r0, r3, #7
 8007c42:	d00b      	beq.n	8007c5c <__lo0bits+0x22>
 8007c44:	07d9      	lsls	r1, r3, #31
 8007c46:	d421      	bmi.n	8007c8c <__lo0bits+0x52>
 8007c48:	0798      	lsls	r0, r3, #30
 8007c4a:	bf49      	itett	mi
 8007c4c:	085b      	lsrmi	r3, r3, #1
 8007c4e:	089b      	lsrpl	r3, r3, #2
 8007c50:	2001      	movmi	r0, #1
 8007c52:	6013      	strmi	r3, [r2, #0]
 8007c54:	bf5c      	itt	pl
 8007c56:	2002      	movpl	r0, #2
 8007c58:	6013      	strpl	r3, [r2, #0]
 8007c5a:	4770      	bx	lr
 8007c5c:	b299      	uxth	r1, r3
 8007c5e:	b909      	cbnz	r1, 8007c64 <__lo0bits+0x2a>
 8007c60:	2010      	movs	r0, #16
 8007c62:	0c1b      	lsrs	r3, r3, #16
 8007c64:	b2d9      	uxtb	r1, r3
 8007c66:	b909      	cbnz	r1, 8007c6c <__lo0bits+0x32>
 8007c68:	3008      	adds	r0, #8
 8007c6a:	0a1b      	lsrs	r3, r3, #8
 8007c6c:	0719      	lsls	r1, r3, #28
 8007c6e:	bf04      	itt	eq
 8007c70:	091b      	lsreq	r3, r3, #4
 8007c72:	3004      	addeq	r0, #4
 8007c74:	0799      	lsls	r1, r3, #30
 8007c76:	bf04      	itt	eq
 8007c78:	089b      	lsreq	r3, r3, #2
 8007c7a:	3002      	addeq	r0, #2
 8007c7c:	07d9      	lsls	r1, r3, #31
 8007c7e:	d403      	bmi.n	8007c88 <__lo0bits+0x4e>
 8007c80:	085b      	lsrs	r3, r3, #1
 8007c82:	f100 0001 	add.w	r0, r0, #1
 8007c86:	d003      	beq.n	8007c90 <__lo0bits+0x56>
 8007c88:	6013      	str	r3, [r2, #0]
 8007c8a:	4770      	bx	lr
 8007c8c:	2000      	movs	r0, #0
 8007c8e:	4770      	bx	lr
 8007c90:	2020      	movs	r0, #32
 8007c92:	4770      	bx	lr

08007c94 <__i2b>:
 8007c94:	b510      	push	{r4, lr}
 8007c96:	460c      	mov	r4, r1
 8007c98:	2101      	movs	r1, #1
 8007c9a:	f7ff ff07 	bl	8007aac <_Balloc>
 8007c9e:	4602      	mov	r2, r0
 8007ca0:	b928      	cbnz	r0, 8007cae <__i2b+0x1a>
 8007ca2:	f240 1145 	movw	r1, #325	@ 0x145
 8007ca6:	4b04      	ldr	r3, [pc, #16]	@ (8007cb8 <__i2b+0x24>)
 8007ca8:	4804      	ldr	r0, [pc, #16]	@ (8007cbc <__i2b+0x28>)
 8007caa:	f000 fca3 	bl	80085f4 <__assert_func>
 8007cae:	2301      	movs	r3, #1
 8007cb0:	6144      	str	r4, [r0, #20]
 8007cb2:	6103      	str	r3, [r0, #16]
 8007cb4:	bd10      	pop	{r4, pc}
 8007cb6:	bf00      	nop
 8007cb8:	08009105 	.word	0x08009105
 8007cbc:	08009116 	.word	0x08009116

08007cc0 <__multiply>:
 8007cc0:	e92d 4ff0 	stmdb	sp!, {r4, r5, r6, r7, r8, r9, sl, fp, lr}
 8007cc4:	4617      	mov	r7, r2
 8007cc6:	690a      	ldr	r2, [r1, #16]
 8007cc8:	693b      	ldr	r3, [r7, #16]
 8007cca:	4689      	mov	r9, r1
 8007ccc:	429a      	cmp	r2, r3
 8007cce:	bfa2      	ittt	ge
 8007cd0:	463b      	movge	r3, r7
 8007cd2:	460f      	movge	r7, r1
 8007cd4:	4699      	movge	r9, r3
 8007cd6:	693d      	ldr	r5, [r7, #16]
 8007cd8:	f8d9 a010 	ldr.w	sl, [r9, #16]
 8007cdc:	68bb      	ldr	r3, [r7, #8]
 8007cde:	6879      	ldr	r1, [r7, #4]
 8007ce0:	eb05 060a 	add.w	r6, r5, sl
 8007ce4:	42b3      	cmp	r3, r6
 8007ce6:	b085      	sub	sp, #20
 8007ce8:	bfb8      	it	lt
 8007cea:	3101      	addlt	r1, #1
 8007cec:	f7ff fede 	bl	8007aac <_Balloc>
 8007cf0:	b930      	cbnz	r0, 8007d00 <__multiply+0x40>
 8007cf2:	4602      	mov	r2, r0
 8007cf4:	f44f 71b1 	mov.w	r1, #354	@ 0x162
 8007cf8:	4b40      	ldr	r3, [pc, #256]	@ (8007dfc <__multiply+0x13c>)
 8007cfa:	4841      	ldr	r0, [pc, #260]	@ (8007e00 <__multiply+0x140>)
 8007cfc:	f000 fc7a 	bl	80085f4 <__assert_func>
 8007d00:	f100 0414 	add.w	r4, r0, #20
 8007d04:	4623      	mov	r3, r4
 8007d06:	2200      	movs	r2, #0
 8007d08:	eb04 0e86 	add.w	lr, r4, r6, lsl #2
 8007d0c:	4573      	cmp	r3, lr
 8007d0e:	d320      	bcc.n	8007d52 <__multiply+0x92>
 8007d10:	f107 0814 	add.w	r8, r7, #20
 8007d14:	f109 0114 	add.w	r1, r9, #20
 8007d18:	eb08 0585 	add.w	r5, r8, r5, lsl #2
 8007d1c:	eb01 038a 	add.w	r3, r1, sl, lsl #2
 8007d20:	9302      	str	r3, [sp, #8]
 8007d22:	1beb      	subs	r3, r5, r7
 8007d24:	3b15      	subs	r3, #21
 8007d26:	f023 0303 	bic.w	r3, r3, #3
 8007d2a:	3304      	adds	r3, #4
 8007d2c:	3715      	adds	r7, #21
 8007d2e:	42bd      	cmp	r5, r7
 8007d30:	bf38      	it	cc
 8007d32:	2304      	movcc	r3, #4
 8007d34:	9301      	str	r3, [sp, #4]
 8007d36:	9b02      	ldr	r3, [sp, #8]
 8007d38:	9103      	str	r1, [sp, #12]
 8007d3a:	428b      	cmp	r3, r1
 8007d3c:	d80c      	bhi.n	8007d58 <__multiply+0x98>
 8007d3e:	2e00      	cmp	r6, #0
 8007d40:	dd03      	ble.n	8007d4a <__multiply+0x8a>
 8007d42:	f85e 3d04 	ldr.w	r3, [lr, #-4]!
 8007d46:	2b00      	cmp	r3, #0
 8007d48:	d055      	beq.n	8007df6 <__multiply+0x136>
 8007d4a:	6106      	str	r6, [r0, #16]
 8007d4c:	b005      	add	sp, #20
 8007d4e:	e8bd 8ff0 	ldmia.w	sp!, {r4, r5, r6, r7, r8, r9, sl, fp, pc}
 8007d52:	f843 2b04 	str.w	r2, [r3], #4
 8007d56:	e7d9      	b.n	8007d0c <__multiply+0x4c>
 8007d58:	f8b1 a000 	ldrh.w	sl, [r1]
 8007d5c:	f1ba 0f00 	cmp.w	sl, #0
 8007d60:	d01f      	beq.n	8007da2 <__multiply+0xe2>
 8007d62:	46c4      	mov	ip, r8
 8007d64:	46a1      	mov	r9, r4
 8007d66:	2700      	movs	r7, #0
 8007d68:	f85c 2b04 	ldr.w	r2, [ip], #4
 8007d6c:	f8d9 3000 	ldr.w	r3, [r9]
 8007d70:	fa1f fb82 	uxth.w	fp, r2
 8007d74:	b29b      	uxth	r3, r3
 8007d76:	fb0a 330b 	mla	r3, sl, fp, r3
 8007d7a:	443b      	add	r3, r7
 8007d7c:	f8d9 7000 	ldr.w	r7, [r9]
 8007d80:	0c12      	lsrs	r2, r2, #16
 8007d82:	0c3f      	lsrs	r7, r7, #16
 8007d84:	fb0a 7202 	mla	r2, sl, r2, r7
 8007d88:	eb02 4213 	add.w	r2, r2, r3, lsr #16
 8007d8c:	b29b      	uxth	r3, r3
 8007d8e:	ea43 4302 	orr.w	r3, r3, r2, lsl #16
 8007d92:	4565      	cmp	r5, ip
 8007d94:	ea4f 4712 	mov.w	r7, r2, lsr #16
 8007d98:	f849 3b04 	str.w	r3, [r9], #4
 8007d9c:	d8e4      	bhi.n	8007d68 <__multiply+0xa8>
 8007d9e:	9b01      	ldr	r3, [sp, #4]
 8007da0:	50e7      	str	r7, [r4, r3]
 8007da2:	9b03      	ldr	r3, [sp, #12]
 8007da4:	3104      	adds	r1, #4
 8007da6:	f8b3 9002 	ldrh.w	r9, [r3, #2]
 8007daa:	f1b9 0f00 	cmp.w	r9, #0
 8007dae:	d020      	beq.n	8007df2 <__multiply+0x132>
 8007db0:	4647      	mov	r7, r8
 8007db2:	46a4      	mov	ip, r4
 8007db4:	f04f 0a00 	mov.w	sl, #0
 8007db8:	6823      	ldr	r3, [r4, #0]
 8007dba:	f8b7 b000 	ldrh.w	fp, [r7]
 8007dbe:	f8bc 2002 	ldrh.w	r2, [ip, #2]
 8007dc2:	b29b      	uxth	r3, r3
 8007dc4:	fb09 220b 	mla	r2, r9, fp, r2
 8007dc8:	4452      	add	r2, sl
 8007dca:	ea43 4302 	orr.w	r3, r3, r2, lsl #16
 8007dce:	f84c 3b04 	str.w	r3, [ip], #4
 8007dd2:	f857 3b04 	ldr.w	r3, [r7], #4
 8007dd6:	ea4f 4a13 	mov.w	sl, r3, lsr #16
 8007dda:	f8bc 3000 	ldrh.w	r3, [ip]
 8007dde:	42bd      	cmp	r5, r7
 8007de0:	fb09 330a 	mla	r3, r9, sl, r3
 8007de4:	eb03 4312 	add.w	r3, r3, r2, lsr #16
 8007de8:	ea4f 4a13 	mov.w	sl, r3, lsr #16
 8007dec:	d8e5      	bhi.n	8007dba <__multiply+0xfa>
 8007dee:	9a01      	ldr	r2, [sp, #4]
 8007df0:	50a3      	str	r3, [r4, r2]
 8007df2:	3404      	adds	r4, #4
 8007df4:	e79f      	b.n	8007d36 <__multiply+0x76>
 8007df6:	3e01      	subs	r6, #1
 8007df8:	e7a1      	b.n	8007d3e <__multiply+0x7e>
 8007dfa:	bf00      	nop
 8007dfc:	08009105 	.word	0x08009105
 8007e00:	08009116 	.word	0x08009116

08007e04 <__pow5mult>:
 8007e04:	e92d 43f8 	stmdb	sp!, {r3, r4, r5, r6, r7, r8, r9, lr}
 8007e08:	4615      	mov	r5, r2
 8007e0a:	f012 0203 	ands.w	r2, r2, #3
 8007e0e:	4607      	mov	r7, r0
 8007e10:	460e      	mov	r6, r1
 8007e12:	d007      	beq.n	8007e24 <__pow5mult+0x20>
 8007e14:	4c25      	ldr	r4, [pc, #148]	@ (8007eac <__pow5mult+0xa8>)
 8007e16:	3a01      	subs	r2, #1
 8007e18:	2300      	movs	r3, #0
 8007e1a:	f854 2022 	ldr.w	r2, [r4, r2, lsl #2]
 8007e1e:	f7ff fea7 	bl	8007b70 <__multadd>
 8007e22:	4606      	mov	r6, r0
 8007e24:	10ad      	asrs	r5, r5, #2
 8007e26:	d03d      	beq.n	8007ea4 <__pow5mult+0xa0>
 8007e28:	69fc      	ldr	r4, [r7, #28]
 8007e2a:	b97c      	cbnz	r4, 8007e4c <__pow5mult+0x48>
 8007e2c:	2010      	movs	r0, #16
 8007e2e:	f7ff fd87 	bl	8007940 <malloc>
 8007e32:	4602      	mov	r2, r0
 8007e34:	61f8      	str	r0, [r7, #28]
 8007e36:	b928      	cbnz	r0, 8007e44 <__pow5mult+0x40>
 8007e38:	f240 11b3 	movw	r1, #435	@ 0x1b3
 8007e3c:	4b1c      	ldr	r3, [pc, #112]	@ (8007eb0 <__pow5mult+0xac>)
 8007e3e:	481d      	ldr	r0, [pc, #116]	@ (8007eb4 <__pow5mult+0xb0>)
 8007e40:	f000 fbd8 	bl	80085f4 <__assert_func>
 8007e44:	e9c0 4401 	strd	r4, r4, [r0, #4]
 8007e48:	6004      	str	r4, [r0, #0]
 8007e4a:	60c4      	str	r4, [r0, #12]
 8007e4c:	f8d7 801c 	ldr.w	r8, [r7, #28]
 8007e50:	f8d8 4008 	ldr.w	r4, [r8, #8]
 8007e54:	b94c      	cbnz	r4, 8007e6a <__pow5mult+0x66>
 8007e56:	f240 2171 	movw	r1, #625	@ 0x271
 8007e5a:	4638      	mov	r0, r7
 8007e5c:	f7ff ff1a 	bl	8007c94 <__i2b>
 8007e60:	2300      	movs	r3, #0
 8007e62:	4604      	mov	r4, r0
 8007e64:	f8c8 0008 	str.w	r0, [r8, #8]
 8007e68:	6003      	str	r3, [r0, #0]
 8007e6a:	f04f 0900 	mov.w	r9, #0
 8007e6e:	07eb      	lsls	r3, r5, #31
 8007e70:	d50a      	bpl.n	8007e88 <__pow5mult+0x84>
 8007e72:	4631      	mov	r1, r6
 8007e74:	4622      	mov	r2, r4
 8007e76:	4638      	mov	r0, r7
 8007e78:	f7ff ff22 	bl	8007cc0 <__multiply>
 8007e7c:	4680      	mov	r8, r0
 8007e7e:	4631      	mov	r1, r6
 8007e80:	4638      	mov	r0, r7
 8007e82:	f7ff fe53 	bl	8007b2c <_Bfree>
 8007e86:	4646      	mov	r6, r8
 8007e88:	106d      	asrs	r5, r5, #1
 8007e8a:	d00b      	beq.n	8007ea4 <__pow5mult+0xa0>
 8007e8c:	6820      	ldr	r0, [r4, #0]
 8007e8e:	b938      	cbnz	r0, 8007ea0 <__pow5mult+0x9c>
 8007e90:	4622      	mov	r2, r4
 8007e92:	4621      	mov	r1, r4
 8007e94:	4638      	mov	r0, r7
 8007e96:	f7ff ff13 	bl	8007cc0 <__multiply>
 8007e9a:	6020      	str	r0, [r4, #0]
 8007e9c:	f8c0 9000 	str.w	r9, [r0]
 8007ea0:	4604      	mov	r4, r0
 8007ea2:	e7e4      	b.n	8007e6e <__pow5mult+0x6a>
 8007ea4:	4630      	mov	r0, r6
 8007ea6:	e8bd 83f8 	ldmia.w	sp!, {r3, r4, r5, r6, r7, r8, r9, pc}
 8007eaa:	bf00      	nop
 8007eac:	080092bc 	.word	0x080092bc
 8007eb0:	08009096 	.word	0x08009096
 8007eb4:	08009116 	.word	0x08009116

08007eb8 <__lshift>:
 8007eb8:	e92d 47f0 	stmdb	sp!, {r4, r5, r6, r7, r8, r9, sl, lr}
 8007ebc:	460c      	mov	r4, r1
 8007ebe:	4607      	mov	r7, r0
 8007ec0:	4691      	mov	r9, r2
 8007ec2:	6923      	ldr	r3, [r4, #16]
 8007ec4:	6849      	ldr	r1, [r1, #4]
 8007ec6:	eb03 1862 	add.w	r8, r3, r2, asr #5
 8007eca:	68a3      	ldr	r3, [r4, #8]
 8007ecc:	ea4f 1a62 	mov.w	sl, r2, asr #5
 8007ed0:	f108 0601 	add.w	r6, r8, #1
 8007ed4:	42b3      	cmp	r3, r6
 8007ed6:	db0b      	blt.n	8007ef0 <__lshift+0x38>
 8007ed8:	4638      	mov	r0, r7
 8007eda:	f7ff fde7 	bl	8007aac <_Balloc>
 8007ede:	4605      	mov	r5, r0
 8007ee0:	b948      	cbnz	r0, 8007ef6 <__lshift+0x3e>
 8007ee2:	4602      	mov	r2, r0
 8007ee4:	f44f 71ef 	mov.w	r1, #478	@ 0x1de
 8007ee8:	4b27      	ldr	r3, [pc, #156]	@ (8007f88 <__lshift+0xd0>)
 8007eea:	4828      	ldr	r0, [pc, #160]	@ (8007f8c <__lshift+0xd4>)
 8007eec:	f000 fb82 	bl	80085f4 <__assert_func>
 8007ef0:	3101      	adds	r1, #1
 8007ef2:	005b      	lsls	r3, r3, #1
 8007ef4:	e7ee      	b.n	8007ed4 <__lshift+0x1c>
 8007ef6:	2300      	movs	r3, #0
 8007ef8:	f100 0114 	add.w	r1, r0, #20
 8007efc:	f100 0210 	add.w	r2, r0, #16
 8007f00:	4618      	mov	r0, r3
 8007f02:	4553      	cmp	r3, sl
 8007f04:	db33      	blt.n	8007f6e <__lshift+0xb6>
 8007f06:	6920      	ldr	r0, [r4, #16]
 8007f08:	ea2a 7aea 	bic.w	sl, sl, sl, asr #31
 8007f0c:	f104 0314 	add.w	r3, r4, #20
 8007f10:	f019 091f 	ands.w	r9, r9, #31
 8007f14:	eb01 018a 	add.w	r1, r1, sl, lsl #2
 8007f18:	eb03 0c80 	add.w	ip, r3, r0, lsl #2
 8007f1c:	d02b      	beq.n	8007f76 <__lshift+0xbe>
 8007f1e:	468a      	mov	sl, r1
 8007f20:	2200      	movs	r2, #0
 8007f22:	f1c9 0e20 	rsb	lr, r9, #32
 8007f26:	6818      	ldr	r0, [r3, #0]
 8007f28:	fa00 f009 	lsl.w	r0, r0, r9
 8007f2c:	4310      	orrs	r0, r2
 8007f2e:	f84a 0b04 	str.w	r0, [sl], #4
 8007f32:	f853 2b04 	ldr.w	r2, [r3], #4
 8007f36:	459c      	cmp	ip, r3
 8007f38:	fa22 f20e 	lsr.w	r2, r2, lr
 8007f3c:	d8f3      	bhi.n	8007f26 <__lshift+0x6e>
 8007f3e:	ebac 0304 	sub.w	r3, ip, r4
 8007f42:	3b15      	subs	r3, #21
 8007f44:	f023 0303 	bic.w	r3, r3, #3
 8007f48:	3304      	adds	r3, #4
 8007f4a:	f104 0015 	add.w	r0, r4, #21
 8007f4e:	4560      	cmp	r0, ip
 8007f50:	bf88      	it	hi
 8007f52:	2304      	movhi	r3, #4
 8007f54:	50ca      	str	r2, [r1, r3]
 8007f56:	b10a      	cbz	r2, 8007f5c <__lshift+0xa4>
 8007f58:	f108 0602 	add.w	r6, r8, #2
 8007f5c:	3e01      	subs	r6, #1
 8007f5e:	4638      	mov	r0, r7
 8007f60:	4621      	mov	r1, r4
 8007f62:	612e      	str	r6, [r5, #16]
 8007f64:	f7ff fde2 	bl	8007b2c <_Bfree>
 8007f68:	4628      	mov	r0, r5
 8007f6a:	e8bd 87f0 	ldmia.w	sp!, {r4, r5, r6, r7, r8, r9, sl, pc}
 8007f6e:	f842 0f04 	str.w	r0, [r2, #4]!
 8007f72:	3301      	adds	r3, #1
 8007f74:	e7c5      	b.n	8007f02 <__lshift+0x4a>
 8007f76:	3904      	subs	r1, #4
 8007f78:	f853 2b04 	ldr.w	r2, [r3], #4
 8007f7c:	459c      	cmp	ip, r3
 8007f7e:	f841 2f04 	str.w	r2, [r1, #4]!
 8007f82:	d8f9      	bhi.n	8007f78 <__lshift+0xc0>
 8007f84:	e7ea      	b.n	8007f5c <__lshift+0xa4>
 8007f86:	bf00      	nop
 8007f88:	08009105 	.word	0x08009105
 8007f8c:	08009116 	.word	0x08009116

08007f90 <__mcmp>:
 8007f90:	4603      	mov	r3, r0
 8007f92:	690a      	ldr	r2, [r1, #16]
 8007f94:	6900      	ldr	r0, [r0, #16]
 8007f96:	b530      	push	{r4, r5, lr}
 8007f98:	1a80      	subs	r0, r0, r2
 8007f9a:	d10e      	bne.n	8007fba <__mcmp+0x2a>
 8007f9c:	3314      	adds	r3, #20
 8007f9e:	3114      	adds	r1, #20
 8007fa0:	eb03 0482 	add.w	r4, r3, r2, lsl #2
 8007fa4:	eb01 0182 	add.w	r1, r1, r2, lsl #2
 8007fa8:	f854 5d04 	ldr.w	r5, [r4, #-4]!
 8007fac:	f851 2d04 	ldr.w	r2, [r1, #-4]!
 8007fb0:	4295      	cmp	r5, r2
 8007fb2:	d003      	beq.n	8007fbc <__mcmp+0x2c>
 8007fb4:	d205      	bcs.n	8007fc2 <__mcmp+0x32>
 8007fb6:	f04f 30ff 	mov.w	r0, #4294967295
 8007fba:	bd30      	pop	{r4, r5, pc}
 8007fbc:	42a3      	cmp	r3, r4
 8007fbe:	d3f3      	bcc.n	8007fa8 <__mcmp+0x18>
 8007fc0:	e7fb      	b.n	8007fba <__mcmp+0x2a>
 8007fc2:	2001      	movs	r0, #1
 8007fc4:	e7f9      	b.n	8007fba <__mcmp+0x2a>
	...

08007fc8 <__mdiff>:
 8007fc8:	e92d 4ff7 	stmdb	sp!, {r0, r1, r2, r4, r5, r6, r7, r8, r9, sl, fp, lr}
 8007fcc:	4689      	mov	r9, r1
 8007fce:	4606      	mov	r6, r0
 8007fd0:	4611      	mov	r1, r2
 8007fd2:	4648      	mov	r0, r9
 8007fd4:	4614      	mov	r4, r2
 8007fd6:	f7ff ffdb 	bl	8007f90 <__mcmp>
 8007fda:	1e05      	subs	r5, r0, #0
 8007fdc:	d112      	bne.n	8008004 <__mdiff+0x3c>
 8007fde:	4629      	mov	r1, r5
 8007fe0:	4630      	mov	r0, r6
 8007fe2:	f7ff fd63 	bl	8007aac <_Balloc>
 8007fe6:	4602      	mov	r2, r0
 8007fe8:	b928      	cbnz	r0, 8007ff6 <__mdiff+0x2e>
 8007fea:	f240 2137 	movw	r1, #567	@ 0x237
 8007fee:	4b3e      	ldr	r3, [pc, #248]	@ (80080e8 <__mdiff+0x120>)
 8007ff0:	483e      	ldr	r0, [pc, #248]	@ (80080ec <__mdiff+0x124>)
 8007ff2:	f000 faff 	bl	80085f4 <__assert_func>
 8007ff6:	2301      	movs	r3, #1
 8007ff8:	e9c0 3504 	strd	r3, r5, [r0, #16]
 8007ffc:	4610      	mov	r0, r2
 8007ffe:	b003      	add	sp, #12
 8008000:	e8bd 8ff0 	ldmia.w	sp!, {r4, r5, r6, r7, r8, r9, sl, fp, pc}
 8008004:	bfbc      	itt	lt
 8008006:	464b      	movlt	r3, r9
 8008008:	46a1      	movlt	r9, r4
 800800a:	4630      	mov	r0, r6
 800800c:	f8d9 1004 	ldr.w	r1, [r9, #4]
 8008010:	bfba      	itte	lt
 8008012:	461c      	movlt	r4, r3
 8008014:	2501      	movlt	r5, #1
 8008016:	2500      	movge	r5, #0
 8008018:	f7ff fd48 	bl	8007aac <_Balloc>
 800801c:	4602      	mov	r2, r0
 800801e:	b918      	cbnz	r0, 8008028 <__mdiff+0x60>
 8008020:	f240 2145 	movw	r1, #581	@ 0x245
 8008024:	4b30      	ldr	r3, [pc, #192]	@ (80080e8 <__mdiff+0x120>)
 8008026:	e7e3      	b.n	8007ff0 <__mdiff+0x28>
 8008028:	f100 0b14 	add.w	fp, r0, #20
 800802c:	f8d9 7010 	ldr.w	r7, [r9, #16]
 8008030:	f109 0310 	add.w	r3, r9, #16
 8008034:	60c5      	str	r5, [r0, #12]
 8008036:	f04f 0c00 	mov.w	ip, #0
 800803a:	f109 0514 	add.w	r5, r9, #20
 800803e:	46d9      	mov	r9, fp
 8008040:	6926      	ldr	r6, [r4, #16]
 8008042:	f104 0e14 	add.w	lr, r4, #20
 8008046:	eb05 0887 	add.w	r8, r5, r7, lsl #2
 800804a:	eb0e 0686 	add.w	r6, lr, r6, lsl #2
 800804e:	9301      	str	r3, [sp, #4]
 8008050:	9b01      	ldr	r3, [sp, #4]
 8008052:	f85e 0b04 	ldr.w	r0, [lr], #4
 8008056:	f853 af04 	ldr.w	sl, [r3, #4]!
 800805a:	b281      	uxth	r1, r0
 800805c:	9301      	str	r3, [sp, #4]
 800805e:	fa1f f38a 	uxth.w	r3, sl
 8008062:	1a5b      	subs	r3, r3, r1
 8008064:	0c00      	lsrs	r0, r0, #16
 8008066:	4463      	add	r3, ip
 8008068:	ebc0 401a 	rsb	r0, r0, sl, lsr #16
 800806c:	eb00 4023 	add.w	r0, r0, r3, asr #16
 8008070:	b29b      	uxth	r3, r3
 8008072:	ea43 4300 	orr.w	r3, r3, r0, lsl #16
 8008076:	4576      	cmp	r6, lr
 8008078:	ea4f 4c20 	mov.w	ip, r0, asr #16
 800807c:	f849 3b04 	str.w	r3, [r9], #4
 8008080:	d8e6      	bhi.n	8008050 <__mdiff+0x88>
 8008082:	1b33      	subs	r3, r6, r4
 8008084:	3b15      	subs	r3, #21
 8008086:	f023 0303 	bic.w	r3, r3, #3
 800808a:	3415      	adds	r4, #21
 800808c:	3304      	adds	r3, #4
 800808e:	42a6      	cmp	r6, r4
 8008090:	bf38      	it	cc
 8008092:	2304      	movcc	r3, #4
 8008094:	441d      	add	r5, r3
 8008096:	445b      	add	r3, fp
 8008098:	461e      	mov	r6, r3
 800809a:	462c      	mov	r4, r5
 800809c:	4544      	cmp	r4, r8
 800809e:	d30e      	bcc.n	80080be <__mdiff+0xf6>
 80080a0:	f108 0103 	add.w	r1, r8, #3
 80080a4:	1b49      	subs	r1, r1, r5
 80080a6:	f021 0103 	bic.w	r1, r1, #3
 80080aa:	3d03      	subs	r5, #3
 80080ac:	45a8      	cmp	r8, r5
 80080ae:	bf38      	it	cc
 80080b0:	2100      	movcc	r1, #0
 80080b2:	440b      	add	r3, r1
 80080b4:	f853 1d04 	ldr.w	r1, [r3, #-4]!
 80080b8:	b199      	cbz	r1, 80080e2 <__mdiff+0x11a>
 80080ba:	6117      	str	r7, [r2, #16]
 80080bc:	e79e      	b.n	8007ffc <__mdiff+0x34>
 80080be:	46e6      	mov	lr, ip
 80080c0:	f854 1b04 	ldr.w	r1, [r4], #4
 80080c4:	fa1f fc81 	uxth.w	ip, r1
 80080c8:	44f4      	add	ip, lr
 80080ca:	0c08      	lsrs	r0, r1, #16
 80080cc:	4471      	add	r1, lr
 80080ce:	eb00 402c 	add.w	r0, r0, ip, asr #16
 80080d2:	b289      	uxth	r1, r1
 80080d4:	ea41 4100 	orr.w	r1, r1, r0, lsl #16
 80080d8:	ea4f 4c20 	mov.w	ip, r0, asr #16
 80080dc:	f846 1b04 	str.w	r1, [r6], #4
 80080e0:	e7dc      	b.n	800809c <__mdiff+0xd4>
 80080e2:	3f01      	subs	r7, #1
 80080e4:	e7e6      	b.n	80080b4 <__mdiff+0xec>
 80080e6:	bf00      	nop
 80080e8:	08009105 	.word	0x08009105
 80080ec:	08009116 	.word	0x08009116

080080f0 <__d2b>:
 80080f0:	e92d 4373 	stmdb	sp!, {r0, r1, r4, r5, r6, r8, r9, lr}
 80080f4:	2101      	movs	r1, #1
 80080f6:	4690      	mov	r8, r2
 80080f8:	4699      	mov	r9, r3
 80080fa:	9e08      	ldr	r6, [sp, #32]
 80080fc:	f7ff fcd6 	bl	8007aac <_Balloc>
 8008100:	4604      	mov	r4, r0
 8008102:	b930      	cbnz	r0, 8008112 <__d2b+0x22>
 8008104:	4602      	mov	r2, r0
 8008106:	f240 310f 	movw	r1, #783	@ 0x30f
 800810a:	4b23      	ldr	r3, [pc, #140]	@ (8008198 <__d2b+0xa8>)
 800810c:	4823      	ldr	r0, [pc, #140]	@ (800819c <__d2b+0xac>)
 800810e:	f000 fa71 	bl	80085f4 <__assert_func>
 8008112:	f3c9 550a 	ubfx	r5, r9, #20, #11
 8008116:	f3c9 0313 	ubfx	r3, r9, #0, #20
 800811a:	b10d      	cbz	r5, 8008120 <__d2b+0x30>
 800811c:	f443 1380 	orr.w	r3, r3, #1048576	@ 0x100000
 8008120:	9301      	str	r3, [sp, #4]
 8008122:	f1b8 0300 	subs.w	r3, r8, #0
 8008126:	d024      	beq.n	8008172 <__d2b+0x82>
 8008128:	4668      	mov	r0, sp
 800812a:	9300      	str	r3, [sp, #0]
 800812c:	f7ff fd85 	bl	8007c3a <__lo0bits>
 8008130:	e9dd 1200 	ldrd	r1, r2, [sp]
 8008134:	b1d8      	cbz	r0, 800816e <__d2b+0x7e>
 8008136:	f1c0 0320 	rsb	r3, r0, #32
 800813a:	fa02 f303 	lsl.w	r3, r2, r3
 800813e:	430b      	orrs	r3, r1
 8008140:	40c2      	lsrs	r2, r0
 8008142:	6163      	str	r3, [r4, #20]
 8008144:	9201      	str	r2, [sp, #4]
 8008146:	9b01      	ldr	r3, [sp, #4]
 8008148:	2b00      	cmp	r3, #0
 800814a:	bf0c      	ite	eq
 800814c:	2201      	moveq	r2, #1
 800814e:	2202      	movne	r2, #2
 8008150:	61a3      	str	r3, [r4, #24]
 8008152:	6122      	str	r2, [r4, #16]
 8008154:	b1ad      	cbz	r5, 8008182 <__d2b+0x92>
 8008156:	f2a5 4533 	subw	r5, r5, #1075	@ 0x433
 800815a:	4405      	add	r5, r0
 800815c:	6035      	str	r5, [r6, #0]
 800815e:	f1c0 0035 	rsb	r0, r0, #53	@ 0x35
 8008162:	9b09      	ldr	r3, [sp, #36]	@ 0x24
 8008164:	6018      	str	r0, [r3, #0]
 8008166:	4620      	mov	r0, r4
 8008168:	b002      	add	sp, #8
 800816a:	e8bd 8370 	ldmia.w	sp!, {r4, r5, r6, r8, r9, pc}
 800816e:	6161      	str	r1, [r4, #20]
 8008170:	e7e9      	b.n	8008146 <__d2b+0x56>
 8008172:	a801      	add	r0, sp, #4
 8008174:	f7ff fd61 	bl	8007c3a <__lo0bits>
 8008178:	9b01      	ldr	r3, [sp, #4]
 800817a:	2201      	movs	r2, #1
 800817c:	6163      	str	r3, [r4, #20]
 800817e:	3020      	adds	r0, #32
 8008180:	e7e7      	b.n	8008152 <__d2b+0x62>
 8008182:	f2a0 4032 	subw	r0, r0, #1074	@ 0x432
 8008186:	eb04 0382 	add.w	r3, r4, r2, lsl #2
 800818a:	6030      	str	r0, [r6, #0]
 800818c:	6918      	ldr	r0, [r3, #16]
 800818e:	f7ff fd35 	bl	8007bfc <__hi0bits>
 8008192:	ebc0 1042 	rsb	r0, r0, r2, lsl #5
 8008196:	e7e4      	b.n	8008162 <__d2b+0x72>
 8008198:	08009105 	.word	0x08009105
 800819c:	08009116 	.word	0x08009116

080081a0 <__ssputs_r>:
 80081a0:	e92d 47f0 	stmdb	sp!, {r4, r5, r6, r7, r8, r9, sl, lr}
 80081a4:	461f      	mov	r7, r3
 80081a6:	688e      	ldr	r6, [r1, #8]
 80081a8:	4682      	mov	sl, r0
 80081aa:	42be      	cmp	r6, r7
 80081ac:	460c      	mov	r4, r1
 80081ae:	4690      	mov	r8, r2
 80081b0:	680b      	ldr	r3, [r1, #0]
 80081b2:	d82d      	bhi.n	8008210 <__ssputs_r+0x70>
 80081b4:	f9b1 200c 	ldrsh.w	r2, [r1, #12]
 80081b8:	f412 6f90 	tst.w	r2, #1152	@ 0x480
 80081bc:	d026      	beq.n	800820c <__ssputs_r+0x6c>
 80081be:	6965      	ldr	r5, [r4, #20]
 80081c0:	6909      	ldr	r1, [r1, #16]
 80081c2:	eb05 0545 	add.w	r5, r5, r5, lsl #1
 80081c6:	eba3 0901 	sub.w	r9, r3, r1
 80081ca:	eb05 75d5 	add.w	r5, r5, r5, lsr #31
 80081ce:	1c7b      	adds	r3, r7, #1
 80081d0:	444b      	add	r3, r9
 80081d2:	106d      	asrs	r5, r5, #1
 80081d4:	429d      	cmp	r5, r3
 80081d6:	bf38      	it	cc
 80081d8:	461d      	movcc	r5, r3
 80081da:	0553      	lsls	r3, r2, #21
 80081dc:	d527      	bpl.n	800822e <__ssputs_r+0x8e>
 80081de:	4629      	mov	r1, r5
 80081e0:	f7ff fbd8 	bl	8007994 <_malloc_r>
 80081e4:	4606      	mov	r6, r0
 80081e6:	b360      	cbz	r0, 8008242 <__ssputs_r+0xa2>
 80081e8:	464a      	mov	r2, r9
 80081ea:	6921      	ldr	r1, [r4, #16]
 80081ec:	f7fe fcf5 	bl	8006bda <memcpy>
 80081f0:	89a3      	ldrh	r3, [r4, #12]
 80081f2:	f423 6390 	bic.w	r3, r3, #1152	@ 0x480
 80081f6:	f043 0380 	orr.w	r3, r3, #128	@ 0x80
 80081fa:	81a3      	strh	r3, [r4, #12]
 80081fc:	6126      	str	r6, [r4, #16]
 80081fe:	444e      	add	r6, r9
 8008200:	6026      	str	r6, [r4, #0]
 8008202:	463e      	mov	r6, r7
 8008204:	6165      	str	r5, [r4, #20]
 8008206:	eba5 0509 	sub.w	r5, r5, r9
 800820a:	60a5      	str	r5, [r4, #8]
 800820c:	42be      	cmp	r6, r7
 800820e:	d900      	bls.n	8008212 <__ssputs_r+0x72>
 8008210:	463e      	mov	r6, r7
 8008212:	4632      	mov	r2, r6
 8008214:	4641      	mov	r1, r8
 8008216:	6820      	ldr	r0, [r4, #0]
 8008218:	f000 f9c2 	bl	80085a0 <memmove>
 800821c:	2000      	movs	r0, #0
 800821e:	68a3      	ldr	r3, [r4, #8]
 8008220:	1b9b      	subs	r3, r3, r6
 8008222:	60a3      	str	r3, [r4, #8]
 8008224:	6823      	ldr	r3, [r4, #0]
 8008226:	4433      	add	r3, r6
 8008228:	6023      	str	r3, [r4, #0]
 800822a:	e8bd 87f0 	ldmia.w	sp!, {r4, r5, r6, r7, r8, r9, sl, pc}
 800822e:	462a      	mov	r2, r5
 8008230:	f000 fa24 	bl	800867c <_realloc_r>
 8008234:	4606      	mov	r6, r0
 8008236:	2800      	cmp	r0, #0
 8008238:	d1e0      	bne.n	80081fc <__ssputs_r+0x5c>
 800823a:	4650      	mov	r0, sl
 800823c:	6921      	ldr	r1, [r4, #16]
 800823e:	f7ff fb37 	bl	80078b0 <_free_r>
 8008242:	230c      	movs	r3, #12
 8008244:	f8ca 3000 	str.w	r3, [sl]
 8008248:	89a3      	ldrh	r3, [r4, #12]
 800824a:	f04f 30ff 	mov.w	r0, #4294967295
 800824e:	f043 0340 	orr.w	r3, r3, #64	@ 0x40
 8008252:	81a3      	strh	r3, [r4, #12]
 8008254:	e7e9      	b.n	800822a <__ssputs_r+0x8a>
	...

08008258 <_svfiprintf_r>:
 8008258:	e92d 4ff0 	stmdb	sp!, {r4, r5, r6, r7, r8, r9, sl, fp, lr}
 800825c:	4698      	mov	r8, r3
 800825e:	898b      	ldrh	r3, [r1, #12]
 8008260:	4607      	mov	r7, r0
 8008262:	061b      	lsls	r3, r3, #24
 8008264:	460d      	mov	r5, r1
 8008266:	4614      	mov	r4, r2
 8008268:	b09d      	sub	sp, #116	@ 0x74
 800826a:	d510      	bpl.n	800828e <_svfiprintf_r+0x36>
 800826c:	690b      	ldr	r3, [r1, #16]
 800826e:	b973      	cbnz	r3, 800828e <_svfiprintf_r+0x36>
 8008270:	2140      	movs	r1, #64	@ 0x40
 8008272:	f7ff fb8f 	bl	8007994 <_malloc_r>
 8008276:	6028      	str	r0, [r5, #0]
 8008278:	6128      	str	r0, [r5, #16]
 800827a:	b930      	cbnz	r0, 800828a <_svfiprintf_r+0x32>
 800827c:	230c      	movs	r3, #12
 800827e:	603b      	str	r3, [r7, #0]
 8008280:	f04f 30ff 	mov.w	r0, #4294967295
 8008284:	b01d      	add	sp, #116	@ 0x74
 8008286:	e8bd 8ff0 	ldmia.w	sp!, {r4, r5, r6, r7, r8, r9, sl, fp, pc}
 800828a:	2340      	movs	r3, #64	@ 0x40
 800828c:	616b      	str	r3, [r5, #20]
 800828e:	2300      	movs	r3, #0
 8008290:	9309      	str	r3, [sp, #36]	@ 0x24
 8008292:	2320      	movs	r3, #32
 8008294:	f88d 3029 	strb.w	r3, [sp, #41]	@ 0x29
 8008298:	2330      	movs	r3, #48	@ 0x30
 800829a:	f04f 0901 	mov.w	r9, #1
 800829e:	f8cd 800c 	str.w	r8, [sp, #12]
 80082a2:	f8df 8198 	ldr.w	r8, [pc, #408]	@ 800843c <_svfiprintf_r+0x1e4>
 80082a6:	f88d 302a 	strb.w	r3, [sp, #42]	@ 0x2a
 80082aa:	4623      	mov	r3, r4
 80082ac:	469a      	mov	sl, r3
 80082ae:	f813 2b01 	ldrb.w	r2, [r3], #1
 80082b2:	b10a      	cbz	r2, 80082b8 <_svfiprintf_r+0x60>
 80082b4:	2a25      	cmp	r2, #37	@ 0x25
 80082b6:	d1f9      	bne.n	80082ac <_svfiprintf_r+0x54>
 80082b8:	ebba 0b04 	subs.w	fp, sl, r4
 80082bc:	d00b      	beq.n	80082d6 <_svfiprintf_r+0x7e>
 80082be:	465b      	mov	r3, fp
 80082c0:	4622      	mov	r2, r4
 80082c2:	4629      	mov	r1, r5
 80082c4:	4638      	mov	r0, r7
 80082c6:	f7ff ff6b 	bl	80081a0 <__ssputs_r>
 80082ca:	3001      	adds	r0, #1
 80082cc:	f000 80a7 	beq.w	800841e <_svfiprintf_r+0x1c6>
 80082d0:	9a09      	ldr	r2, [sp, #36]	@ 0x24
 80082d2:	445a      	add	r2, fp
 80082d4:	9209      	str	r2, [sp, #36]	@ 0x24
 80082d6:	f89a 3000 	ldrb.w	r3, [sl]
 80082da:	2b00      	cmp	r3, #0
 80082dc:	f000 809f 	beq.w	800841e <_svfiprintf_r+0x1c6>
 80082e0:	2300      	movs	r3, #0
 80082e2:	f04f 32ff 	mov.w	r2, #4294967295
 80082e6:	e9cd 2305 	strd	r2, r3, [sp, #20]
 80082ea:	f10a 0a01 	add.w	sl, sl, #1
 80082ee:	9304      	str	r3, [sp, #16]
 80082f0:	9307      	str	r3, [sp, #28]
 80082f2:	f88d 3053 	strb.w	r3, [sp, #83]	@ 0x53
 80082f6:	931a      	str	r3, [sp, #104]	@ 0x68
 80082f8:	4654      	mov	r4, sl
 80082fa:	2205      	movs	r2, #5
 80082fc:	f814 1b01 	ldrb.w	r1, [r4], #1
 8008300:	484e      	ldr	r0, [pc, #312]	@ (800843c <_svfiprintf_r+0x1e4>)
 8008302:	f7fe fc5c 	bl	8006bbe <memchr>
 8008306:	9a04      	ldr	r2, [sp, #16]
 8008308:	b9d8      	cbnz	r0, 8008342 <_svfiprintf_r+0xea>
 800830a:	06d0      	lsls	r0, r2, #27
 800830c:	bf44      	itt	mi
 800830e:	2320      	movmi	r3, #32
 8008310:	f88d 3053 	strbmi.w	r3, [sp, #83]	@ 0x53
 8008314:	0711      	lsls	r1, r2, #28
 8008316:	bf44      	itt	mi
 8008318:	232b      	movmi	r3, #43	@ 0x2b
 800831a:	f88d 3053 	strbmi.w	r3, [sp, #83]	@ 0x53
 800831e:	f89a 3000 	ldrb.w	r3, [sl]
 8008322:	2b2a      	cmp	r3, #42	@ 0x2a
 8008324:	d015      	beq.n	8008352 <_svfiprintf_r+0xfa>
 8008326:	4654      	mov	r4, sl
 8008328:	2000      	movs	r0, #0
 800832a:	f04f 0c0a 	mov.w	ip, #10
 800832e:	9a07      	ldr	r2, [sp, #28]
 8008330:	4621      	mov	r1, r4
 8008332:	f811 3b01 	ldrb.w	r3, [r1], #1
 8008336:	3b30      	subs	r3, #48	@ 0x30
 8008338:	2b09      	cmp	r3, #9
 800833a:	d94b      	bls.n	80083d4 <_svfiprintf_r+0x17c>
 800833c:	b1b0      	cbz	r0, 800836c <_svfiprintf_r+0x114>
 800833e:	9207      	str	r2, [sp, #28]
 8008340:	e014      	b.n	800836c <_svfiprintf_r+0x114>
 8008342:	eba0 0308 	sub.w	r3, r0, r8
 8008346:	fa09 f303 	lsl.w	r3, r9, r3
 800834a:	4313      	orrs	r3, r2
 800834c:	46a2      	mov	sl, r4
 800834e:	9304      	str	r3, [sp, #16]
 8008350:	e7d2      	b.n	80082f8 <_svfiprintf_r+0xa0>
 8008352:	9b03      	ldr	r3, [sp, #12]
 8008354:	1d19      	adds	r1, r3, #4
 8008356:	681b      	ldr	r3, [r3, #0]
 8008358:	9103      	str	r1, [sp, #12]
 800835a:	2b00      	cmp	r3, #0
 800835c:	bfbb      	ittet	lt
 800835e:	425b      	neglt	r3, r3
 8008360:	f042 0202 	orrlt.w	r2, r2, #2
 8008364:	9307      	strge	r3, [sp, #28]
 8008366:	9307      	strlt	r3, [sp, #28]
 8008368:	bfb8      	it	lt
 800836a:	9204      	strlt	r2, [sp, #16]
 800836c:	7823      	ldrb	r3, [r4, #0]
 800836e:	2b2e      	cmp	r3, #46	@ 0x2e
 8008370:	d10a      	bne.n	8008388 <_svfiprintf_r+0x130>
 8008372:	7863      	ldrb	r3, [r4, #1]
 8008374:	2b2a      	cmp	r3, #42	@ 0x2a
 8008376:	d132      	bne.n	80083de <_svfiprintf_r+0x186>
 8008378:	9b03      	ldr	r3, [sp, #12]
 800837a:	3402      	adds	r4, #2
 800837c:	1d1a      	adds	r2, r3, #4
 800837e:	681b      	ldr	r3, [r3, #0]
 8008380:	9203      	str	r2, [sp, #12]
 8008382:	ea43 73e3 	orr.w	r3, r3, r3, asr #31
 8008386:	9305      	str	r3, [sp, #20]
 8008388:	f8df a0b4 	ldr.w	sl, [pc, #180]	@ 8008440 <_svfiprintf_r+0x1e8>
 800838c:	2203      	movs	r2, #3
 800838e:	4650      	mov	r0, sl
 8008390:	7821      	ldrb	r1, [r4, #0]
 8008392:	f7fe fc14 	bl	8006bbe <memchr>
 8008396:	b138      	cbz	r0, 80083a8 <_svfiprintf_r+0x150>
 8008398:	2240      	movs	r2, #64	@ 0x40
 800839a:	9b04      	ldr	r3, [sp, #16]
 800839c:	eba0 000a 	sub.w	r0, r0, sl
 80083a0:	4082      	lsls	r2, r0
 80083a2:	4313      	orrs	r3, r2
 80083a4:	3401      	adds	r4, #1
 80083a6:	9304      	str	r3, [sp, #16]
 80083a8:	f814 1b01 	ldrb.w	r1, [r4], #1
 80083ac:	2206      	movs	r2, #6
 80083ae:	4825      	ldr	r0, [pc, #148]	@ (8008444 <_svfiprintf_r+0x1ec>)
 80083b0:	f88d 1028 	strb.w	r1, [sp, #40]	@ 0x28
 80083b4:	f7fe fc03 	bl	8006bbe <memchr>
 80083b8:	2800      	cmp	r0, #0
 80083ba:	d036      	beq.n	800842a <_svfiprintf_r+0x1d2>
 80083bc:	4b22      	ldr	r3, [pc, #136]	@ (8008448 <_svfiprintf_r+0x1f0>)
 80083be:	bb1b      	cbnz	r3, 8008408 <_svfiprintf_r+0x1b0>
 80083c0:	9b03      	ldr	r3, [sp, #12]
 80083c2:	3307      	adds	r3, #7
 80083c4:	f023 0307 	bic.w	r3, r3, #7
 80083c8:	3308      	adds	r3, #8
 80083ca:	9303      	str	r3, [sp, #12]
 80083cc:	9b09      	ldr	r3, [sp, #36]	@ 0x24
 80083ce:	4433      	add	r3, r6
 80083d0:	9309      	str	r3, [sp, #36]	@ 0x24
 80083d2:	e76a      	b.n	80082aa <_svfiprintf_r+0x52>
 80083d4:	460c      	mov	r4, r1
 80083d6:	2001      	movs	r0, #1
 80083d8:	fb0c 3202 	mla	r2, ip, r2, r3
 80083dc:	e7a8      	b.n	8008330 <_svfiprintf_r+0xd8>
 80083de:	2300      	movs	r3, #0
 80083e0:	f04f 0c0a 	mov.w	ip, #10
 80083e4:	4619      	mov	r1, r3
 80083e6:	3401      	adds	r4, #1
 80083e8:	9305      	str	r3, [sp, #20]
 80083ea:	4620      	mov	r0, r4
 80083ec:	f810 2b01 	ldrb.w	r2, [r0], #1
 80083f0:	3a30      	subs	r2, #48	@ 0x30
 80083f2:	2a09      	cmp	r2, #9
 80083f4:	d903      	bls.n	80083fe <_svfiprintf_r+0x1a6>
 80083f6:	2b00      	cmp	r3, #0
 80083f8:	d0c6      	beq.n	8008388 <_svfiprintf_r+0x130>
 80083fa:	9105      	str	r1, [sp, #20]
 80083fc:	e7c4      	b.n	8008388 <_svfiprintf_r+0x130>
 80083fe:	4604      	mov	r4, r0
 8008400:	2301      	movs	r3, #1
 8008402:	fb0c 2101 	mla	r1, ip, r1, r2
 8008406:	e7f0      	b.n	80083ea <_svfiprintf_r+0x192>
 8008408:	ab03      	add	r3, sp, #12
 800840a:	9300      	str	r3, [sp, #0]
 800840c:	462a      	mov	r2, r5
 800840e:	4638      	mov	r0, r7
 8008410:	4b0e      	ldr	r3, [pc, #56]	@ (800844c <_svfiprintf_r+0x1f4>)
 8008412:	a904      	add	r1, sp, #16
 8008414:	f7fd fe46 	bl	80060a4 <_printf_float>
 8008418:	1c42      	adds	r2, r0, #1
 800841a:	4606      	mov	r6, r0
 800841c:	d1d6      	bne.n	80083cc <_svfiprintf_r+0x174>
 800841e:	89ab      	ldrh	r3, [r5, #12]
 8008420:	065b      	lsls	r3, r3, #25
 8008422:	f53f af2d 	bmi.w	8008280 <_svfiprintf_r+0x28>
 8008426:	9809      	ldr	r0, [sp, #36]	@ 0x24
 8008428:	e72c      	b.n	8008284 <_svfiprintf_r+0x2c>
 800842a:	ab03      	add	r3, sp, #12
 800842c:	9300      	str	r3, [sp, #0]
 800842e:	462a      	mov	r2, r5
 8008430:	4638      	mov	r0, r7
 8008432:	4b06      	ldr	r3, [pc, #24]	@ (800844c <_svfiprintf_r+0x1f4>)
 8008434:	a904      	add	r1, sp, #16
 8008436:	f7fe f8d3 	bl	80065e0 <_printf_i>
 800843a:	e7ed      	b.n	8008418 <_svfiprintf_r+0x1c0>
 800843c:	0800916f 	.word	0x0800916f
 8008440:	08009175 	.word	0x08009175
 8008444:	08009179 	.word	0x08009179
 8008448:	080060a5 	.word	0x080060a5
 800844c:	080081a1 	.word	0x080081a1

08008450 <__sflush_r>:
 8008450:	f9b1 200c 	ldrsh.w	r2, [r1, #12]
 8008454:	b5f8      	push	{r3, r4, r5, r6, r7, lr}
 8008456:	0716      	lsls	r6, r2, #28
 8008458:	4605      	mov	r5, r0
 800845a:	460c      	mov	r4, r1
 800845c:	d454      	bmi.n	8008508 <__sflush_r+0xb8>
 800845e:	684b      	ldr	r3, [r1, #4]
 8008460:	2b00      	cmp	r3, #0
 8008462:	dc02      	bgt.n	800846a <__sflush_r+0x1a>
 8008464:	6c0b      	ldr	r3, [r1, #64]	@ 0x40
 8008466:	2b00      	cmp	r3, #0
 8008468:	dd48      	ble.n	80084fc <__sflush_r+0xac>
 800846a:	6ae6      	ldr	r6, [r4, #44]	@ 0x2c
 800846c:	2e00      	cmp	r6, #0
 800846e:	d045      	beq.n	80084fc <__sflush_r+0xac>
 8008470:	2300      	movs	r3, #0
 8008472:	f412 5280 	ands.w	r2, r2, #4096	@ 0x1000
 8008476:	682f      	ldr	r7, [r5, #0]
 8008478:	6a21      	ldr	r1, [r4, #32]
 800847a:	602b      	str	r3, [r5, #0]
 800847c:	d030      	beq.n	80084e0 <__sflush_r+0x90>
 800847e:	6d62      	ldr	r2, [r4, #84]	@ 0x54
 8008480:	89a3      	ldrh	r3, [r4, #12]
 8008482:	0759      	lsls	r1, r3, #29
 8008484:	d505      	bpl.n	8008492 <__sflush_r+0x42>
 8008486:	6863      	ldr	r3, [r4, #4]
 8008488:	1ad2      	subs	r2, r2, r3
 800848a:	6b63      	ldr	r3, [r4, #52]	@ 0x34
 800848c:	b10b      	cbz	r3, 8008492 <__sflush_r+0x42>
 800848e:	6c23      	ldr	r3, [r4, #64]	@ 0x40
 8008490:	1ad2      	subs	r2, r2, r3
 8008492:	2300      	movs	r3, #0
 8008494:	4628      	mov	r0, r5
 8008496:	6ae6      	ldr	r6, [r4, #44]	@ 0x2c
 8008498:	6a21      	ldr	r1, [r4, #32]
 800849a:	47b0      	blx	r6
 800849c:	1c43      	adds	r3, r0, #1
 800849e:	89a3      	ldrh	r3, [r4, #12]
 80084a0:	d106      	bne.n	80084b0 <__sflush_r+0x60>
 80084a2:	6829      	ldr	r1, [r5, #0]
 80084a4:	291d      	cmp	r1, #29
 80084a6:	d82b      	bhi.n	8008500 <__sflush_r+0xb0>
 80084a8:	4a28      	ldr	r2, [pc, #160]	@ (800854c <__sflush_r+0xfc>)
 80084aa:	40ca      	lsrs	r2, r1
 80084ac:	07d6      	lsls	r6, r2, #31
 80084ae:	d527      	bpl.n	8008500 <__sflush_r+0xb0>
 80084b0:	2200      	movs	r2, #0
 80084b2:	6062      	str	r2, [r4, #4]
 80084b4:	6922      	ldr	r2, [r4, #16]
 80084b6:	04d9      	lsls	r1, r3, #19
 80084b8:	6022      	str	r2, [r4, #0]
 80084ba:	d504      	bpl.n	80084c6 <__sflush_r+0x76>
 80084bc:	1c42      	adds	r2, r0, #1
 80084be:	d101      	bne.n	80084c4 <__sflush_r+0x74>
 80084c0:	682b      	ldr	r3, [r5, #0]
 80084c2:	b903      	cbnz	r3, 80084c6 <__sflush_r+0x76>
 80084c4:	6560      	str	r0, [r4, #84]	@ 0x54
 80084c6:	6b61      	ldr	r1, [r4, #52]	@ 0x34
 80084c8:	602f      	str	r7, [r5, #0]
 80084ca:	b1b9      	cbz	r1, 80084fc <__sflush_r+0xac>
 80084cc:	f104 0344 	add.w	r3, r4, #68	@ 0x44
 80084d0:	4299      	cmp	r1, r3
 80084d2:	d002      	beq.n	80084da <__sflush_r+0x8a>
 80084d4:	4628      	mov	r0, r5
 80084d6:	f7ff f9eb 	bl	80078b0 <_free_r>
 80084da:	2300      	movs	r3, #0
 80084dc:	6363      	str	r3, [r4, #52]	@ 0x34
 80084de:	e00d      	b.n	80084fc <__sflush_r+0xac>
 80084e0:	2301      	movs	r3, #1
 80084e2:	4628      	mov	r0, r5
 80084e4:	47b0      	blx	r6
 80084e6:	4602      	mov	r2, r0
 80084e8:	1c50      	adds	r0, r2, #1
 80084ea:	d1c9      	bne.n	8008480 <__sflush_r+0x30>
 80084ec:	682b      	ldr	r3, [r5, #0]
 80084ee:	2b00      	cmp	r3, #0
 80084f0:	d0c6      	beq.n	8008480 <__sflush_r+0x30>
 80084f2:	2b1d      	cmp	r3, #29
 80084f4:	d001      	beq.n	80084fa <__sflush_r+0xaa>
 80084f6:	2b16      	cmp	r3, #22
 80084f8:	d11d      	bne.n	8008536 <__sflush_r+0xe6>
 80084fa:	602f      	str	r7, [r5, #0]
 80084fc:	2000      	movs	r0, #0
 80084fe:	e021      	b.n	8008544 <__sflush_r+0xf4>
 8008500:	f043 0340 	orr.w	r3, r3, #64	@ 0x40
 8008504:	b21b      	sxth	r3, r3
 8008506:	e01a      	b.n	800853e <__sflush_r+0xee>
 8008508:	690f      	ldr	r7, [r1, #16]
 800850a:	2f00      	cmp	r7, #0
 800850c:	d0f6      	beq.n	80084fc <__sflush_r+0xac>
 800850e:	0793      	lsls	r3, r2, #30
 8008510:	bf18      	it	ne
 8008512:	2300      	movne	r3, #0
 8008514:	680e      	ldr	r6, [r1, #0]
 8008516:	bf08      	it	eq
 8008518:	694b      	ldreq	r3, [r1, #20]
 800851a:	1bf6      	subs	r6, r6, r7
 800851c:	600f      	str	r7, [r1, #0]
 800851e:	608b      	str	r3, [r1, #8]
 8008520:	2e00      	cmp	r6, #0
 8008522:	ddeb      	ble.n	80084fc <__sflush_r+0xac>
 8008524:	4633      	mov	r3, r6
 8008526:	463a      	mov	r2, r7
 8008528:	4628      	mov	r0, r5
 800852a:	6a21      	ldr	r1, [r4, #32]
 800852c:	f8d4 c028 	ldr.w	ip, [r4, #40]	@ 0x28
 8008530:	47e0      	blx	ip
 8008532:	2800      	cmp	r0, #0
 8008534:	dc07      	bgt.n	8008546 <__sflush_r+0xf6>
 8008536:	f9b4 300c 	ldrsh.w	r3, [r4, #12]
 800853a:	f043 0340 	orr.w	r3, r3, #64	@ 0x40
 800853e:	f04f 30ff 	mov.w	r0, #4294967295
 8008542:	81a3      	strh	r3, [r4, #12]
 8008544:	bdf8      	pop	{r3, r4, r5, r6, r7, pc}
 8008546:	4407      	add	r7, r0
 8008548:	1a36      	subs	r6, r6, r0
 800854a:	e7e9      	b.n	8008520 <__sflush_r+0xd0>
 800854c:	20400001 	.word	0x20400001

08008550 <_fflush_r>:
 8008550:	b538      	push	{r3, r4, r5, lr}
 8008552:	690b      	ldr	r3, [r1, #16]
 8008554:	4605      	mov	r5, r0
 8008556:	460c      	mov	r4, r1
 8008558:	b913      	cbnz	r3, 8008560 <_fflush_r+0x10>
 800855a:	2500      	movs	r5, #0
 800855c:	4628      	mov	r0, r5
 800855e:	bd38      	pop	{r3, r4, r5, pc}
 8008560:	b118      	cbz	r0, 800856a <_fflush_r+0x1a>
 8008562:	6a03      	ldr	r3, [r0, #32]
 8008564:	b90b      	cbnz	r3, 800856a <_fflush_r+0x1a>
 8008566:	f7fe f9e5 	bl	8006934 <__sinit>
 800856a:	f9b4 300c 	ldrsh.w	r3, [r4, #12]
 800856e:	2b00      	cmp	r3, #0
 8008570:	d0f3      	beq.n	800855a <_fflush_r+0xa>
 8008572:	6e62      	ldr	r2, [r4, #100]	@ 0x64
 8008574:	07d0      	lsls	r0, r2, #31
 8008576:	d404      	bmi.n	8008582 <_fflush_r+0x32>
 8008578:	0599      	lsls	r1, r3, #22
 800857a:	d402      	bmi.n	8008582 <_fflush_r+0x32>
 800857c:	6da0      	ldr	r0, [r4, #88]	@ 0x58
 800857e:	f7fe fb1c 	bl	8006bba <__retarget_lock_acquire_recursive>
 8008582:	4628      	mov	r0, r5
 8008584:	4621      	mov	r1, r4
 8008586:	f7ff ff63 	bl	8008450 <__sflush_r>
 800858a:	6e63      	ldr	r3, [r4, #100]	@ 0x64
 800858c:	4605      	mov	r5, r0
 800858e:	07da      	lsls	r2, r3, #31
 8008590:	d4e4      	bmi.n	800855c <_fflush_r+0xc>
 8008592:	89a3      	ldrh	r3, [r4, #12]
 8008594:	059b      	lsls	r3, r3, #22
 8008596:	d4e1      	bmi.n	800855c <_fflush_r+0xc>
 8008598:	6da0      	ldr	r0, [r4, #88]	@ 0x58
 800859a:	f7fe fb0f 	bl	8006bbc <__retarget_lock_release_recursive>
 800859e:	e7dd      	b.n	800855c <_fflush_r+0xc>

080085a0 <memmove>:
 80085a0:	4288      	cmp	r0, r1
 80085a2:	b510      	push	{r4, lr}
 80085a4:	eb01 0402 	add.w	r4, r1, r2
 80085a8:	d902      	bls.n	80085b0 <memmove+0x10>
 80085aa:	4284      	cmp	r4, r0
 80085ac:	4623      	mov	r3, r4
 80085ae:	d807      	bhi.n	80085c0 <memmove+0x20>
 80085b0:	1e43      	subs	r3, r0, #1
 80085b2:	42a1      	cmp	r1, r4
 80085b4:	d008      	beq.n	80085c8 <memmove+0x28>
 80085b6:	f811 2b01 	ldrb.w	r2, [r1], #1
 80085ba:	f803 2f01 	strb.w	r2, [r3, #1]!
 80085be:	e7f8      	b.n	80085b2 <memmove+0x12>
 80085c0:	4601      	mov	r1, r0
 80085c2:	4402      	add	r2, r0
 80085c4:	428a      	cmp	r2, r1
 80085c6:	d100      	bne.n	80085ca <memmove+0x2a>
 80085c8:	bd10      	pop	{r4, pc}
 80085ca:	f813 4d01 	ldrb.w	r4, [r3, #-1]!
 80085ce:	f802 4d01 	strb.w	r4, [r2, #-1]!
 80085d2:	e7f7      	b.n	80085c4 <memmove+0x24>

080085d4 <_sbrk_r>:
 80085d4:	b538      	push	{r3, r4, r5, lr}
 80085d6:	2300      	movs	r3, #0
 80085d8:	4d05      	ldr	r5, [pc, #20]	@ (80085f0 <_sbrk_r+0x1c>)
 80085da:	4604      	mov	r4, r0
 80085dc:	4608      	mov	r0, r1
 80085de:	602b      	str	r3, [r5, #0]
 80085e0:	f7f9 fcba 	bl	8001f58 <_sbrk>
 80085e4:	1c43      	adds	r3, r0, #1
 80085e6:	d102      	bne.n	80085ee <_sbrk_r+0x1a>
 80085e8:	682b      	ldr	r3, [r5, #0]
 80085ea:	b103      	cbz	r3, 80085ee <_sbrk_r+0x1a>
 80085ec:	6023      	str	r3, [r4, #0]
 80085ee:	bd38      	pop	{r3, r4, r5, pc}
 80085f0:	20003f50 	.word	0x20003f50

080085f4 <__assert_func>:
 80085f4:	b51f      	push	{r0, r1, r2, r3, r4, lr}
 80085f6:	4614      	mov	r4, r2
 80085f8:	461a      	mov	r2, r3
 80085fa:	4b09      	ldr	r3, [pc, #36]	@ (8008620 <__assert_func+0x2c>)
 80085fc:	4605      	mov	r5, r0
 80085fe:	681b      	ldr	r3, [r3, #0]
 8008600:	68d8      	ldr	r0, [r3, #12]
 8008602:	b14c      	cbz	r4, 8008618 <__assert_func+0x24>
 8008604:	4b07      	ldr	r3, [pc, #28]	@ (8008624 <__assert_func+0x30>)
 8008606:	e9cd 3401 	strd	r3, r4, [sp, #4]
 800860a:	9100      	str	r1, [sp, #0]
 800860c:	462b      	mov	r3, r5
 800860e:	4906      	ldr	r1, [pc, #24]	@ (8008628 <__assert_func+0x34>)
 8008610:	f000 f870 	bl	80086f4 <fiprintf>
 8008614:	f000 f880 	bl	8008718 <abort>
 8008618:	4b04      	ldr	r3, [pc, #16]	@ (800862c <__assert_func+0x38>)
 800861a:	461c      	mov	r4, r3
 800861c:	e7f3      	b.n	8008606 <__assert_func+0x12>
 800861e:	bf00      	nop
 8008620:	20000024 	.word	0x20000024
 8008624:	0800918a 	.word	0x0800918a
 8008628:	08009197 	.word	0x08009197
 800862c:	08008fd8 	.word	0x08008fd8

08008630 <_calloc_r>:
 8008630:	b570      	push	{r4, r5, r6, lr}
 8008632:	fba1 5402 	umull	r5, r4, r1, r2
 8008636:	b934      	cbnz	r4, 8008646 <_calloc_r+0x16>
 8008638:	4629      	mov	r1, r5
 800863a:	f7ff f9ab 	bl	8007994 <_malloc_r>
 800863e:	4606      	mov	r6, r0
 8008640:	b928      	cbnz	r0, 800864e <_calloc_r+0x1e>
 8008642:	4630      	mov	r0, r6
 8008644:	bd70      	pop	{r4, r5, r6, pc}
 8008646:	220c      	movs	r2, #12
 8008648:	2600      	movs	r6, #0
 800864a:	6002      	str	r2, [r0, #0]
 800864c:	e7f9      	b.n	8008642 <_calloc_r+0x12>
 800864e:	462a      	mov	r2, r5
 8008650:	4621      	mov	r1, r4
 8008652:	f7fe fa35 	bl	8006ac0 <memset>
 8008656:	e7f4      	b.n	8008642 <_calloc_r+0x12>

08008658 <__ascii_mbtowc>:
 8008658:	b082      	sub	sp, #8
 800865a:	b901      	cbnz	r1, 800865e <__ascii_mbtowc+0x6>
 800865c:	a901      	add	r1, sp, #4
 800865e:	b142      	cbz	r2, 8008672 <__ascii_mbtowc+0x1a>
 8008660:	b14b      	cbz	r3, 8008676 <__ascii_mbtowc+0x1e>
 8008662:	7813      	ldrb	r3, [r2, #0]
 8008664:	600b      	str	r3, [r1, #0]
 8008666:	7812      	ldrb	r2, [r2, #0]
 8008668:	1e10      	subs	r0, r2, #0
 800866a:	bf18      	it	ne
 800866c:	2001      	movne	r0, #1
 800866e:	b002      	add	sp, #8
 8008670:	4770      	bx	lr
 8008672:	4610      	mov	r0, r2
 8008674:	e7fb      	b.n	800866e <__ascii_mbtowc+0x16>
 8008676:	f06f 0001 	mvn.w	r0, #1
 800867a:	e7f8      	b.n	800866e <__ascii_mbtowc+0x16>

0800867c <_realloc_r>:
 800867c:	e92d 41f0 	stmdb	sp!, {r4, r5, r6, r7, r8, lr}
 8008680:	4607      	mov	r7, r0
 8008682:	4614      	mov	r4, r2
 8008684:	460d      	mov	r5, r1
 8008686:	b921      	cbnz	r1, 8008692 <_realloc_r+0x16>
 8008688:	4611      	mov	r1, r2
 800868a:	e8bd 41f0 	ldmia.w	sp!, {r4, r5, r6, r7, r8, lr}
 800868e:	f7ff b981 	b.w	8007994 <_malloc_r>
 8008692:	b92a      	cbnz	r2, 80086a0 <_realloc_r+0x24>
 8008694:	f7ff f90c 	bl	80078b0 <_free_r>
 8008698:	4625      	mov	r5, r4
 800869a:	4628      	mov	r0, r5
 800869c:	e8bd 81f0 	ldmia.w	sp!, {r4, r5, r6, r7, r8, pc}
 80086a0:	f000 f841 	bl	8008726 <_malloc_usable_size_r>
 80086a4:	4284      	cmp	r4, r0
 80086a6:	4606      	mov	r6, r0
 80086a8:	d802      	bhi.n	80086b0 <_realloc_r+0x34>
 80086aa:	ebb4 0f50 	cmp.w	r4, r0, lsr #1
 80086ae:	d8f4      	bhi.n	800869a <_realloc_r+0x1e>
 80086b0:	4621      	mov	r1, r4
 80086b2:	4638      	mov	r0, r7
 80086b4:	f7ff f96e 	bl	8007994 <_malloc_r>
 80086b8:	4680      	mov	r8, r0
 80086ba:	b908      	cbnz	r0, 80086c0 <_realloc_r+0x44>
 80086bc:	4645      	mov	r5, r8
 80086be:	e7ec      	b.n	800869a <_realloc_r+0x1e>
 80086c0:	42b4      	cmp	r4, r6
 80086c2:	4622      	mov	r2, r4
 80086c4:	4629      	mov	r1, r5
 80086c6:	bf28      	it	cs
 80086c8:	4632      	movcs	r2, r6
 80086ca:	f7fe fa86 	bl	8006bda <memcpy>
 80086ce:	4629      	mov	r1, r5
 80086d0:	4638      	mov	r0, r7
 80086d2:	f7ff f8ed 	bl	80078b0 <_free_r>
 80086d6:	e7f1      	b.n	80086bc <_realloc_r+0x40>

080086d8 <__ascii_wctomb>:
 80086d8:	4603      	mov	r3, r0
 80086da:	4608      	mov	r0, r1
 80086dc:	b141      	cbz	r1, 80086f0 <__ascii_wctomb+0x18>
 80086de:	2aff      	cmp	r2, #255	@ 0xff
 80086e0:	d904      	bls.n	80086ec <__ascii_wctomb+0x14>
 80086e2:	228a      	movs	r2, #138	@ 0x8a
 80086e4:	f04f 30ff 	mov.w	r0, #4294967295
 80086e8:	601a      	str	r2, [r3, #0]
 80086ea:	4770      	bx	lr
 80086ec:	2001      	movs	r0, #1
 80086ee:	700a      	strb	r2, [r1, #0]
 80086f0:	4770      	bx	lr
	...

080086f4 <fiprintf>:
 80086f4:	b40e      	push	{r1, r2, r3}
 80086f6:	b503      	push	{r0, r1, lr}
 80086f8:	4601      	mov	r1, r0
 80086fa:	ab03      	add	r3, sp, #12
 80086fc:	4805      	ldr	r0, [pc, #20]	@ (8008714 <fiprintf+0x20>)
 80086fe:	f853 2b04 	ldr.w	r2, [r3], #4
 8008702:	6800      	ldr	r0, [r0, #0]
 8008704:	9301      	str	r3, [sp, #4]
 8008706:	f000 f83d 	bl	8008784 <_vfiprintf_r>
 800870a:	b002      	add	sp, #8
 800870c:	f85d eb04 	ldr.w	lr, [sp], #4
 8008710:	b003      	add	sp, #12
 8008712:	4770      	bx	lr
 8008714:	20000024 	.word	0x20000024

08008718 <abort>:
 8008718:	2006      	movs	r0, #6
 800871a:	b508      	push	{r3, lr}
 800871c:	f000 fa06 	bl	8008b2c <raise>
 8008720:	2001      	movs	r0, #1
 8008722:	f7f9 fbeb 	bl	8001efc <_exit>

08008726 <_malloc_usable_size_r>:
 8008726:	f851 3c04 	ldr.w	r3, [r1, #-4]
 800872a:	1f18      	subs	r0, r3, #4
 800872c:	2b00      	cmp	r3, #0
 800872e:	bfbc      	itt	lt
 8008730:	580b      	ldrlt	r3, [r1, r0]
 8008732:	18c0      	addlt	r0, r0, r3
 8008734:	4770      	bx	lr

08008736 <__sfputc_r>:
 8008736:	6893      	ldr	r3, [r2, #8]
 8008738:	b410      	push	{r4}
 800873a:	3b01      	subs	r3, #1
 800873c:	2b00      	cmp	r3, #0
 800873e:	6093      	str	r3, [r2, #8]
 8008740:	da07      	bge.n	8008752 <__sfputc_r+0x1c>
 8008742:	6994      	ldr	r4, [r2, #24]
 8008744:	42a3      	cmp	r3, r4
 8008746:	db01      	blt.n	800874c <__sfputc_r+0x16>
 8008748:	290a      	cmp	r1, #10
 800874a:	d102      	bne.n	8008752 <__sfputc_r+0x1c>
 800874c:	bc10      	pop	{r4}
 800874e:	f000 b931 	b.w	80089b4 <__swbuf_r>
 8008752:	6813      	ldr	r3, [r2, #0]
 8008754:	1c58      	adds	r0, r3, #1
 8008756:	6010      	str	r0, [r2, #0]
 8008758:	7019      	strb	r1, [r3, #0]
 800875a:	4608      	mov	r0, r1
 800875c:	bc10      	pop	{r4}
 800875e:	4770      	bx	lr

08008760 <__sfputs_r>:
 8008760:	b5f8      	push	{r3, r4, r5, r6, r7, lr}
 8008762:	4606      	mov	r6, r0
 8008764:	460f      	mov	r7, r1
 8008766:	4614      	mov	r4, r2
 8008768:	18d5      	adds	r5, r2, r3
 800876a:	42ac      	cmp	r4, r5
 800876c:	d101      	bne.n	8008772 <__sfputs_r+0x12>
 800876e:	2000      	movs	r0, #0
 8008770:	e007      	b.n	8008782 <__sfputs_r+0x22>
 8008772:	463a      	mov	r2, r7
 8008774:	4630      	mov	r0, r6
 8008776:	f814 1b01 	ldrb.w	r1, [r4], #1
 800877a:	f7ff ffdc 	bl	8008736 <__sfputc_r>
 800877e:	1c43      	adds	r3, r0, #1
 8008780:	d1f3      	bne.n	800876a <__sfputs_r+0xa>
 8008782:	bdf8      	pop	{r3, r4, r5, r6, r7, pc}

08008784 <_vfiprintf_r>:
 8008784:	e92d 4ff0 	stmdb	sp!, {r4, r5, r6, r7, r8, r9, sl, fp, lr}
 8008788:	460d      	mov	r5, r1
 800878a:	4614      	mov	r4, r2
 800878c:	4698      	mov	r8, r3
 800878e:	4606      	mov	r6, r0
 8008790:	b09d      	sub	sp, #116	@ 0x74
 8008792:	b118      	cbz	r0, 800879c <_vfiprintf_r+0x18>
 8008794:	6a03      	ldr	r3, [r0, #32]
 8008796:	b90b      	cbnz	r3, 800879c <_vfiprintf_r+0x18>
 8008798:	f7fe f8cc 	bl	8006934 <__sinit>
 800879c:	6e6b      	ldr	r3, [r5, #100]	@ 0x64
 800879e:	07d9      	lsls	r1, r3, #31
 80087a0:	d405      	bmi.n	80087ae <_vfiprintf_r+0x2a>
 80087a2:	89ab      	ldrh	r3, [r5, #12]
 80087a4:	059a      	lsls	r2, r3, #22
 80087a6:	d402      	bmi.n	80087ae <_vfiprintf_r+0x2a>
 80087a8:	6da8      	ldr	r0, [r5, #88]	@ 0x58
 80087aa:	f7fe fa06 	bl	8006bba <__retarget_lock_acquire_recursive>
 80087ae:	89ab      	ldrh	r3, [r5, #12]
 80087b0:	071b      	lsls	r3, r3, #28
 80087b2:	d501      	bpl.n	80087b8 <_vfiprintf_r+0x34>
 80087b4:	692b      	ldr	r3, [r5, #16]
 80087b6:	b99b      	cbnz	r3, 80087e0 <_vfiprintf_r+0x5c>
 80087b8:	4629      	mov	r1, r5
 80087ba:	4630      	mov	r0, r6
 80087bc:	f000 f938 	bl	8008a30 <__swsetup_r>
 80087c0:	b170      	cbz	r0, 80087e0 <_vfiprintf_r+0x5c>
 80087c2:	6e6b      	ldr	r3, [r5, #100]	@ 0x64
 80087c4:	07dc      	lsls	r4, r3, #31
 80087c6:	d504      	bpl.n	80087d2 <_vfiprintf_r+0x4e>
 80087c8:	f04f 30ff 	mov.w	r0, #4294967295
 80087cc:	b01d      	add	sp, #116	@ 0x74
 80087ce:	e8bd 8ff0 	ldmia.w	sp!, {r4, r5, r6, r7, r8, r9, sl, fp, pc}
 80087d2:	89ab      	ldrh	r3, [r5, #12]
 80087d4:	0598      	lsls	r0, r3, #22
 80087d6:	d4f7      	bmi.n	80087c8 <_vfiprintf_r+0x44>
 80087d8:	6da8      	ldr	r0, [r5, #88]	@ 0x58
 80087da:	f7fe f9ef 	bl	8006bbc <__retarget_lock_release_recursive>
 80087de:	e7f3      	b.n	80087c8 <_vfiprintf_r+0x44>
 80087e0:	2300      	movs	r3, #0
 80087e2:	9309      	str	r3, [sp, #36]	@ 0x24
 80087e4:	2320      	movs	r3, #32
 80087e6:	f88d 3029 	strb.w	r3, [sp, #41]	@ 0x29
 80087ea:	2330      	movs	r3, #48	@ 0x30
 80087ec:	f04f 0901 	mov.w	r9, #1
 80087f0:	f8cd 800c 	str.w	r8, [sp, #12]
 80087f4:	f8df 81a8 	ldr.w	r8, [pc, #424]	@ 80089a0 <_vfiprintf_r+0x21c>
 80087f8:	f88d 302a 	strb.w	r3, [sp, #42]	@ 0x2a
 80087fc:	4623      	mov	r3, r4
 80087fe:	469a      	mov	sl, r3
 8008800:	f813 2b01 	ldrb.w	r2, [r3], #1
 8008804:	b10a      	cbz	r2, 800880a <_vfiprintf_r+0x86>
 8008806:	2a25      	cmp	r2, #37	@ 0x25
 8008808:	d1f9      	bne.n	80087fe <_vfiprintf_r+0x7a>
 800880a:	ebba 0b04 	subs.w	fp, sl, r4
 800880e:	d00b      	beq.n	8008828 <_vfiprintf_r+0xa4>
 8008810:	465b      	mov	r3, fp
 8008812:	4622      	mov	r2, r4
 8008814:	4629      	mov	r1, r5
 8008816:	4630      	mov	r0, r6
 8008818:	f7ff ffa2 	bl	8008760 <__sfputs_r>
 800881c:	3001      	adds	r0, #1
 800881e:	f000 80a7 	beq.w	8008970 <_vfiprintf_r+0x1ec>
 8008822:	9a09      	ldr	r2, [sp, #36]	@ 0x24
 8008824:	445a      	add	r2, fp
 8008826:	9209      	str	r2, [sp, #36]	@ 0x24
 8008828:	f89a 3000 	ldrb.w	r3, [sl]
 800882c:	2b00      	cmp	r3, #0
 800882e:	f000 809f 	beq.w	8008970 <_vfiprintf_r+0x1ec>
 8008832:	2300      	movs	r3, #0
 8008834:	f04f 32ff 	mov.w	r2, #4294967295
 8008838:	e9cd 2305 	strd	r2, r3, [sp, #20]
 800883c:	f10a 0a01 	add.w	sl, sl, #1
 8008840:	9304      	str	r3, [sp, #16]
 8008842:	9307      	str	r3, [sp, #28]
 8008844:	f88d 3053 	strb.w	r3, [sp, #83]	@ 0x53
 8008848:	931a      	str	r3, [sp, #104]	@ 0x68
 800884a:	4654      	mov	r4, sl
 800884c:	2205      	movs	r2, #5
 800884e:	f814 1b01 	ldrb.w	r1, [r4], #1
 8008852:	4853      	ldr	r0, [pc, #332]	@ (80089a0 <_vfiprintf_r+0x21c>)
 8008854:	f7fe f9b3 	bl	8006bbe <memchr>
 8008858:	9a04      	ldr	r2, [sp, #16]
 800885a:	b9d8      	cbnz	r0, 8008894 <_vfiprintf_r+0x110>
 800885c:	06d1      	lsls	r1, r2, #27
 800885e:	bf44      	itt	mi
 8008860:	2320      	movmi	r3, #32
 8008862:	f88d 3053 	strbmi.w	r3, [sp, #83]	@ 0x53
 8008866:	0713      	lsls	r3, r2, #28
 8008868:	bf44      	itt	mi
 800886a:	232b      	movmi	r3, #43	@ 0x2b
 800886c:	f88d 3053 	strbmi.w	r3, [sp, #83]	@ 0x53
 8008870:	f89a 3000 	ldrb.w	r3, [sl]
 8008874:	2b2a      	cmp	r3, #42	@ 0x2a
 8008876:	d015      	beq.n	80088a4 <_vfiprintf_r+0x120>
 8008878:	4654      	mov	r4, sl
 800887a:	2000      	movs	r0, #0
 800887c:	f04f 0c0a 	mov.w	ip, #10
 8008880:	9a07      	ldr	r2, [sp, #28]
 8008882:	4621      	mov	r1, r4
 8008884:	f811 3b01 	ldrb.w	r3, [r1], #1
 8008888:	3b30      	subs	r3, #48	@ 0x30
 800888a:	2b09      	cmp	r3, #9
 800888c:	d94b      	bls.n	8008926 <_vfiprintf_r+0x1a2>
 800888e:	b1b0      	cbz	r0, 80088be <_vfiprintf_r+0x13a>
 8008890:	9207      	str	r2, [sp, #28]
 8008892:	e014      	b.n	80088be <_vfiprintf_r+0x13a>
 8008894:	eba0 0308 	sub.w	r3, r0, r8
 8008898:	fa09 f303 	lsl.w	r3, r9, r3
 800889c:	4313      	orrs	r3, r2
 800889e:	46a2      	mov	sl, r4
 80088a0:	9304      	str	r3, [sp, #16]
 80088a2:	e7d2      	b.n	800884a <_vfiprintf_r+0xc6>
 80088a4:	9b03      	ldr	r3, [sp, #12]
 80088a6:	1d19      	adds	r1, r3, #4
 80088a8:	681b      	ldr	r3, [r3, #0]
 80088aa:	9103      	str	r1, [sp, #12]
 80088ac:	2b00      	cmp	r3, #0
 80088ae:	bfbb      	ittet	lt
 80088b0:	425b      	neglt	r3, r3
 80088b2:	f042 0202 	orrlt.w	r2, r2, #2
 80088b6:	9307      	strge	r3, [sp, #28]
 80088b8:	9307      	strlt	r3, [sp, #28]
 80088ba:	bfb8      	it	lt
 80088bc:	9204      	strlt	r2, [sp, #16]
 80088be:	7823      	ldrb	r3, [r4, #0]
 80088c0:	2b2e      	cmp	r3, #46	@ 0x2e
 80088c2:	d10a      	bne.n	80088da <_vfiprintf_r+0x156>
 80088c4:	7863      	ldrb	r3, [r4, #1]
 80088c6:	2b2a      	cmp	r3, #42	@ 0x2a
 80088c8:	d132      	bne.n	8008930 <_vfiprintf_r+0x1ac>
 80088ca:	9b03      	ldr	r3, [sp, #12]
 80088cc:	3402      	adds	r4, #2
 80088ce:	1d1a      	adds	r2, r3, #4
 80088d0:	681b      	ldr	r3, [r3, #0]
 80088d2:	9203      	str	r2, [sp, #12]
 80088d4:	ea43 73e3 	orr.w	r3, r3, r3, asr #31
 80088d8:	9305      	str	r3, [sp, #20]
 80088da:	f8df a0c8 	ldr.w	sl, [pc, #200]	@ 80089a4 <_vfiprintf_r+0x220>
 80088de:	2203      	movs	r2, #3
 80088e0:	4650      	mov	r0, sl
 80088e2:	7821      	ldrb	r1, [r4, #0]
 80088e4:	f7fe f96b 	bl	8006bbe <memchr>
 80088e8:	b138      	cbz	r0, 80088fa <_vfiprintf_r+0x176>
 80088ea:	2240      	movs	r2, #64	@ 0x40
 80088ec:	9b04      	ldr	r3, [sp, #16]
 80088ee:	eba0 000a 	sub.w	r0, r0, sl
 80088f2:	4082      	lsls	r2, r0
 80088f4:	4313      	orrs	r3, r2
 80088f6:	3401      	adds	r4, #1
 80088f8:	9304      	str	r3, [sp, #16]
 80088fa:	f814 1b01 	ldrb.w	r1, [r4], #1
 80088fe:	2206      	movs	r2, #6
 8008900:	4829      	ldr	r0, [pc, #164]	@ (80089a8 <_vfiprintf_r+0x224>)
 8008902:	f88d 1028 	strb.w	r1, [sp, #40]	@ 0x28
 8008906:	f7fe f95a 	bl	8006bbe <memchr>
 800890a:	2800      	cmp	r0, #0
 800890c:	d03f      	beq.n	800898e <_vfiprintf_r+0x20a>
 800890e:	4b27      	ldr	r3, [pc, #156]	@ (80089ac <_vfiprintf_r+0x228>)
 8008910:	bb1b      	cbnz	r3, 800895a <_vfiprintf_r+0x1d6>
 8008912:	9b03      	ldr	r3, [sp, #12]
 8008914:	3307      	adds	r3, #7
 8008916:	f023 0307 	bic.w	r3, r3, #7
 800891a:	3308      	adds	r3, #8
 800891c:	9303      	str	r3, [sp, #12]
 800891e:	9b09      	ldr	r3, [sp, #36]	@ 0x24
 8008920:	443b      	add	r3, r7
 8008922:	9309      	str	r3, [sp, #36]	@ 0x24
 8008924:	e76a      	b.n	80087fc <_vfiprintf_r+0x78>
 8008926:	460c      	mov	r4, r1
 8008928:	2001      	movs	r0, #1
 800892a:	fb0c 3202 	mla	r2, ip, r2, r3
 800892e:	e7a8      	b.n	8008882 <_vfiprintf_r+0xfe>
 8008930:	2300      	movs	r3, #0
 8008932:	f04f 0c0a 	mov.w	ip, #10
 8008936:	4619      	mov	r1, r3
 8008938:	3401      	adds	r4, #1
 800893a:	9305      	str	r3, [sp, #20]
 800893c:	4620      	mov	r0, r4
 800893e:	f810 2b01 	ldrb.w	r2, [r0], #1
 8008942:	3a30      	subs	r2, #48	@ 0x30
 8008944:	2a09      	cmp	r2, #9
 8008946:	d903      	bls.n	8008950 <_vfiprintf_r+0x1cc>
 8008948:	2b00      	cmp	r3, #0
 800894a:	d0c6      	beq.n	80088da <_vfiprintf_r+0x156>
 800894c:	9105      	str	r1, [sp, #20]
 800894e:	e7c4      	b.n	80088da <_vfiprintf_r+0x156>
 8008950:	4604      	mov	r4, r0
 8008952:	2301      	movs	r3, #1
 8008954:	fb0c 2101 	mla	r1, ip, r1, r2
 8008958:	e7f0      	b.n	800893c <_vfiprintf_r+0x1b8>
 800895a:	ab03      	add	r3, sp, #12
 800895c:	9300      	str	r3, [sp, #0]
 800895e:	462a      	mov	r2, r5
 8008960:	4630      	mov	r0, r6
 8008962:	4b13      	ldr	r3, [pc, #76]	@ (80089b0 <_vfiprintf_r+0x22c>)
 8008964:	a904      	add	r1, sp, #16
 8008966:	f7fd fb9d 	bl	80060a4 <_printf_float>
 800896a:	4607      	mov	r7, r0
 800896c:	1c78      	adds	r0, r7, #1
 800896e:	d1d6      	bne.n	800891e <_vfiprintf_r+0x19a>
 8008970:	6e6b      	ldr	r3, [r5, #100]	@ 0x64
 8008972:	07d9      	lsls	r1, r3, #31
 8008974:	d405      	bmi.n	8008982 <_vfiprintf_r+0x1fe>
 8008976:	89ab      	ldrh	r3, [r5, #12]
 8008978:	059a      	lsls	r2, r3, #22
 800897a:	d402      	bmi.n	8008982 <_vfiprintf_r+0x1fe>
 800897c:	6da8      	ldr	r0, [r5, #88]	@ 0x58
 800897e:	f7fe f91d 	bl	8006bbc <__retarget_lock_release_recursive>
 8008982:	89ab      	ldrh	r3, [r5, #12]
 8008984:	065b      	lsls	r3, r3, #25
 8008986:	f53f af1f 	bmi.w	80087c8 <_vfiprintf_r+0x44>
 800898a:	9809      	ldr	r0, [sp, #36]	@ 0x24
 800898c:	e71e      	b.n	80087cc <_vfiprintf_r+0x48>
 800898e:	ab03      	add	r3, sp, #12
 8008990:	9300      	str	r3, [sp, #0]
 8008992:	462a      	mov	r2, r5
 8008994:	4630      	mov	r0, r6
 8008996:	4b06      	ldr	r3, [pc, #24]	@ (80089b0 <_vfiprintf_r+0x22c>)
 8008998:	a904      	add	r1, sp, #16
 800899a:	f7fd fe21 	bl	80065e0 <_printf_i>
 800899e:	e7e4      	b.n	800896a <_vfiprintf_r+0x1e6>
 80089a0:	0800916f 	.word	0x0800916f
 80089a4:	08009175 	.word	0x08009175
 80089a8:	08009179 	.word	0x08009179
 80089ac:	080060a5 	.word	0x080060a5
 80089b0:	08008761 	.word	0x08008761

080089b4 <__swbuf_r>:
 80089b4:	b5f8      	push	{r3, r4, r5, r6, r7, lr}
 80089b6:	460e      	mov	r6, r1
 80089b8:	4614      	mov	r4, r2
 80089ba:	4605      	mov	r5, r0
 80089bc:	b118      	cbz	r0, 80089c6 <__swbuf_r+0x12>
 80089be:	6a03      	ldr	r3, [r0, #32]
 80089c0:	b90b      	cbnz	r3, 80089c6 <__swbuf_r+0x12>
 80089c2:	f7fd ffb7 	bl	8006934 <__sinit>
 80089c6:	69a3      	ldr	r3, [r4, #24]
 80089c8:	60a3      	str	r3, [r4, #8]
 80089ca:	89a3      	ldrh	r3, [r4, #12]
 80089cc:	071a      	lsls	r2, r3, #28
 80089ce:	d501      	bpl.n	80089d4 <__swbuf_r+0x20>
 80089d0:	6923      	ldr	r3, [r4, #16]
 80089d2:	b943      	cbnz	r3, 80089e6 <__swbuf_r+0x32>
 80089d4:	4621      	mov	r1, r4
 80089d6:	4628      	mov	r0, r5
 80089d8:	f000 f82a 	bl	8008a30 <__swsetup_r>
 80089dc:	b118      	cbz	r0, 80089e6 <__swbuf_r+0x32>
 80089de:	f04f 37ff 	mov.w	r7, #4294967295
 80089e2:	4638      	mov	r0, r7
 80089e4:	bdf8      	pop	{r3, r4, r5, r6, r7, pc}
 80089e6:	6823      	ldr	r3, [r4, #0]
 80089e8:	6922      	ldr	r2, [r4, #16]
 80089ea:	b2f6      	uxtb	r6, r6
 80089ec:	1a98      	subs	r0, r3, r2
 80089ee:	6963      	ldr	r3, [r4, #20]
 80089f0:	4637      	mov	r7, r6
 80089f2:	4283      	cmp	r3, r0
 80089f4:	dc05      	bgt.n	8008a02 <__swbuf_r+0x4e>
 80089f6:	4621      	mov	r1, r4
 80089f8:	4628      	mov	r0, r5
 80089fa:	f7ff fda9 	bl	8008550 <_fflush_r>
 80089fe:	2800      	cmp	r0, #0
 8008a00:	d1ed      	bne.n	80089de <__swbuf_r+0x2a>
 8008a02:	68a3      	ldr	r3, [r4, #8]
 8008a04:	3b01      	subs	r3, #1
 8008a06:	60a3      	str	r3, [r4, #8]
 8008a08:	6823      	ldr	r3, [r4, #0]
 8008a0a:	1c5a      	adds	r2, r3, #1
 8008a0c:	6022      	str	r2, [r4, #0]
 8008a0e:	701e      	strb	r6, [r3, #0]
 8008a10:	6962      	ldr	r2, [r4, #20]
 8008a12:	1c43      	adds	r3, r0, #1
 8008a14:	429a      	cmp	r2, r3
 8008a16:	d004      	beq.n	8008a22 <__swbuf_r+0x6e>
 8008a18:	89a3      	ldrh	r3, [r4, #12]
 8008a1a:	07db      	lsls	r3, r3, #31
 8008a1c:	d5e1      	bpl.n	80089e2 <__swbuf_r+0x2e>
 8008a1e:	2e0a      	cmp	r6, #10
 8008a20:	d1df      	bne.n	80089e2 <__swbuf_r+0x2e>
 8008a22:	4621      	mov	r1, r4
 8008a24:	4628      	mov	r0, r5
 8008a26:	f7ff fd93 	bl	8008550 <_fflush_r>
 8008a2a:	2800      	cmp	r0, #0
 8008a2c:	d0d9      	beq.n	80089e2 <__swbuf_r+0x2e>
 8008a2e:	e7d6      	b.n	80089de <__swbuf_r+0x2a>

08008a30 <__swsetup_r>:
 8008a30:	b538      	push	{r3, r4, r5, lr}
 8008a32:	4b29      	ldr	r3, [pc, #164]	@ (8008ad8 <__swsetup_r+0xa8>)
 8008a34:	4605      	mov	r5, r0
 8008a36:	6818      	ldr	r0, [r3, #0]
 8008a38:	460c      	mov	r4, r1
 8008a3a:	b118      	cbz	r0, 8008a44 <__swsetup_r+0x14>
 8008a3c:	6a03      	ldr	r3, [r0, #32]
 8008a3e:	b90b      	cbnz	r3, 8008a44 <__swsetup_r+0x14>
 8008a40:	f7fd ff78 	bl	8006934 <__sinit>
 8008a44:	f9b4 300c 	ldrsh.w	r3, [r4, #12]
 8008a48:	0719      	lsls	r1, r3, #28
 8008a4a:	d422      	bmi.n	8008a92 <__swsetup_r+0x62>
 8008a4c:	06da      	lsls	r2, r3, #27
 8008a4e:	d407      	bmi.n	8008a60 <__swsetup_r+0x30>
 8008a50:	2209      	movs	r2, #9
 8008a52:	602a      	str	r2, [r5, #0]
 8008a54:	f043 0340 	orr.w	r3, r3, #64	@ 0x40
 8008a58:	f04f 30ff 	mov.w	r0, #4294967295
 8008a5c:	81a3      	strh	r3, [r4, #12]
 8008a5e:	e033      	b.n	8008ac8 <__swsetup_r+0x98>
 8008a60:	0758      	lsls	r0, r3, #29
 8008a62:	d512      	bpl.n	8008a8a <__swsetup_r+0x5a>
 8008a64:	6b61      	ldr	r1, [r4, #52]	@ 0x34
 8008a66:	b141      	cbz	r1, 8008a7a <__swsetup_r+0x4a>
 8008a68:	f104 0344 	add.w	r3, r4, #68	@ 0x44
 8008a6c:	4299      	cmp	r1, r3
 8008a6e:	d002      	beq.n	8008a76 <__swsetup_r+0x46>
 8008a70:	4628      	mov	r0, r5
 8008a72:	f7fe ff1d 	bl	80078b0 <_free_r>
 8008a76:	2300      	movs	r3, #0
 8008a78:	6363      	str	r3, [r4, #52]	@ 0x34
 8008a7a:	89a3      	ldrh	r3, [r4, #12]
 8008a7c:	f023 0324 	bic.w	r3, r3, #36	@ 0x24
 8008a80:	81a3      	strh	r3, [r4, #12]
 8008a82:	2300      	movs	r3, #0
 8008a84:	6063      	str	r3, [r4, #4]
 8008a86:	6923      	ldr	r3, [r4, #16]
 8008a88:	6023      	str	r3, [r4, #0]
 8008a8a:	89a3      	ldrh	r3, [r4, #12]
 8008a8c:	f043 0308 	orr.w	r3, r3, #8
 8008a90:	81a3      	strh	r3, [r4, #12]
 8008a92:	6923      	ldr	r3, [r4, #16]
 8008a94:	b94b      	cbnz	r3, 8008aaa <__swsetup_r+0x7a>
 8008a96:	89a3      	ldrh	r3, [r4, #12]
 8008a98:	f403 7320 	and.w	r3, r3, #640	@ 0x280
 8008a9c:	f5b3 7f00 	cmp.w	r3, #512	@ 0x200
 8008aa0:	d003      	beq.n	8008aaa <__swsetup_r+0x7a>
 8008aa2:	4621      	mov	r1, r4
 8008aa4:	4628      	mov	r0, r5
 8008aa6:	f000 f882 	bl	8008bae <__smakebuf_r>
 8008aaa:	f9b4 300c 	ldrsh.w	r3, [r4, #12]
 8008aae:	f013 0201 	ands.w	r2, r3, #1
 8008ab2:	d00a      	beq.n	8008aca <__swsetup_r+0x9a>
 8008ab4:	2200      	movs	r2, #0
 8008ab6:	60a2      	str	r2, [r4, #8]
 8008ab8:	6962      	ldr	r2, [r4, #20]
 8008aba:	4252      	negs	r2, r2
 8008abc:	61a2      	str	r2, [r4, #24]
 8008abe:	6922      	ldr	r2, [r4, #16]
 8008ac0:	b942      	cbnz	r2, 8008ad4 <__swsetup_r+0xa4>
 8008ac2:	f013 0080 	ands.w	r0, r3, #128	@ 0x80
 8008ac6:	d1c5      	bne.n	8008a54 <__swsetup_r+0x24>
 8008ac8:	bd38      	pop	{r3, r4, r5, pc}
 8008aca:	0799      	lsls	r1, r3, #30
 8008acc:	bf58      	it	pl
 8008ace:	6962      	ldrpl	r2, [r4, #20]
 8008ad0:	60a2      	str	r2, [r4, #8]
 8008ad2:	e7f4      	b.n	8008abe <__swsetup_r+0x8e>
 8008ad4:	2000      	movs	r0, #0
 8008ad6:	e7f7      	b.n	8008ac8 <__swsetup_r+0x98>
 8008ad8:	20000024 	.word	0x20000024

08008adc <_raise_r>:
 8008adc:	291f      	cmp	r1, #31
 8008ade:	b538      	push	{r3, r4, r5, lr}
 8008ae0:	4605      	mov	r5, r0
 8008ae2:	460c      	mov	r4, r1
 8008ae4:	d904      	bls.n	8008af0 <_raise_r+0x14>
 8008ae6:	2316      	movs	r3, #22
 8008ae8:	6003      	str	r3, [r0, #0]
 8008aea:	f04f 30ff 	mov.w	r0, #4294967295
 8008aee:	bd38      	pop	{r3, r4, r5, pc}
 8008af0:	6bc2      	ldr	r2, [r0, #60]	@ 0x3c
 8008af2:	b112      	cbz	r2, 8008afa <_raise_r+0x1e>
 8008af4:	f852 3021 	ldr.w	r3, [r2, r1, lsl #2]
 8008af8:	b94b      	cbnz	r3, 8008b0e <_raise_r+0x32>
 8008afa:	4628      	mov	r0, r5
 8008afc:	f000 f830 	bl	8008b60 <_getpid_r>
 8008b00:	4622      	mov	r2, r4
 8008b02:	4601      	mov	r1, r0
 8008b04:	4628      	mov	r0, r5
 8008b06:	e8bd 4038 	ldmia.w	sp!, {r3, r4, r5, lr}
 8008b0a:	f000 b817 	b.w	8008b3c <_kill_r>
 8008b0e:	2b01      	cmp	r3, #1
 8008b10:	d00a      	beq.n	8008b28 <_raise_r+0x4c>
 8008b12:	1c59      	adds	r1, r3, #1
 8008b14:	d103      	bne.n	8008b1e <_raise_r+0x42>
 8008b16:	2316      	movs	r3, #22
 8008b18:	6003      	str	r3, [r0, #0]
 8008b1a:	2001      	movs	r0, #1
 8008b1c:	e7e7      	b.n	8008aee <_raise_r+0x12>
 8008b1e:	2100      	movs	r1, #0
 8008b20:	4620      	mov	r0, r4
 8008b22:	f842 1024 	str.w	r1, [r2, r4, lsl #2]
 8008b26:	4798      	blx	r3
 8008b28:	2000      	movs	r0, #0
 8008b2a:	e7e0      	b.n	8008aee <_raise_r+0x12>

08008b2c <raise>:
 8008b2c:	4b02      	ldr	r3, [pc, #8]	@ (8008b38 <raise+0xc>)
 8008b2e:	4601      	mov	r1, r0
 8008b30:	6818      	ldr	r0, [r3, #0]
 8008b32:	f7ff bfd3 	b.w	8008adc <_raise_r>
 8008b36:	bf00      	nop
 8008b38:	20000024 	.word	0x20000024

08008b3c <_kill_r>:
 8008b3c:	b538      	push	{r3, r4, r5, lr}
 8008b3e:	2300      	movs	r3, #0
 8008b40:	4d06      	ldr	r5, [pc, #24]	@ (8008b5c <_kill_r+0x20>)
 8008b42:	4604      	mov	r4, r0
 8008b44:	4608      	mov	r0, r1
 8008b46:	4611      	mov	r1, r2
 8008b48:	602b      	str	r3, [r5, #0]
 8008b4a:	f7f9 f9cf 	bl	8001eec <_kill>
 8008b4e:	1c43      	adds	r3, r0, #1
 8008b50:	d102      	bne.n	8008b58 <_kill_r+0x1c>
 8008b52:	682b      	ldr	r3, [r5, #0]
 8008b54:	b103      	cbz	r3, 8008b58 <_kill_r+0x1c>
 8008b56:	6023      	str	r3, [r4, #0]
 8008b58:	bd38      	pop	{r3, r4, r5, pc}
 8008b5a:	bf00      	nop
 8008b5c:	20003f50 	.word	0x20003f50

08008b60 <_getpid_r>:
 8008b60:	f7f9 b9c2 	b.w	8001ee8 <_getpid>

08008b64 <__swhatbuf_r>:
 8008b64:	b570      	push	{r4, r5, r6, lr}
 8008b66:	460c      	mov	r4, r1
 8008b68:	f9b1 100e 	ldrsh.w	r1, [r1, #14]
 8008b6c:	4615      	mov	r5, r2
 8008b6e:	2900      	cmp	r1, #0
 8008b70:	461e      	mov	r6, r3
 8008b72:	b096      	sub	sp, #88	@ 0x58
 8008b74:	da0c      	bge.n	8008b90 <__swhatbuf_r+0x2c>
 8008b76:	89a3      	ldrh	r3, [r4, #12]
 8008b78:	2100      	movs	r1, #0
 8008b7a:	f013 0f80 	tst.w	r3, #128	@ 0x80
 8008b7e:	bf14      	ite	ne
 8008b80:	2340      	movne	r3, #64	@ 0x40
 8008b82:	f44f 6380 	moveq.w	r3, #1024	@ 0x400
 8008b86:	2000      	movs	r0, #0
 8008b88:	6031      	str	r1, [r6, #0]
 8008b8a:	602b      	str	r3, [r5, #0]
 8008b8c:	b016      	add	sp, #88	@ 0x58
 8008b8e:	bd70      	pop	{r4, r5, r6, pc}
 8008b90:	466a      	mov	r2, sp
 8008b92:	f000 f849 	bl	8008c28 <_fstat_r>
 8008b96:	2800      	cmp	r0, #0
 8008b98:	dbed      	blt.n	8008b76 <__swhatbuf_r+0x12>
 8008b9a:	9901      	ldr	r1, [sp, #4]
 8008b9c:	f401 4170 	and.w	r1, r1, #61440	@ 0xf000
 8008ba0:	f5a1 5300 	sub.w	r3, r1, #8192	@ 0x2000
 8008ba4:	4259      	negs	r1, r3
 8008ba6:	4159      	adcs	r1, r3
 8008ba8:	f44f 6380 	mov.w	r3, #1024	@ 0x400
 8008bac:	e7eb      	b.n	8008b86 <__swhatbuf_r+0x22>

08008bae <__smakebuf_r>:
 8008bae:	898b      	ldrh	r3, [r1, #12]
 8008bb0:	b5f7      	push	{r0, r1, r2, r4, r5, r6, r7, lr}
 8008bb2:	079d      	lsls	r5, r3, #30
 8008bb4:	4606      	mov	r6, r0
 8008bb6:	460c      	mov	r4, r1
 8008bb8:	d507      	bpl.n	8008bca <__smakebuf_r+0x1c>
 8008bba:	f104 0347 	add.w	r3, r4, #71	@ 0x47
 8008bbe:	6023      	str	r3, [r4, #0]
 8008bc0:	6123      	str	r3, [r4, #16]
 8008bc2:	2301      	movs	r3, #1
 8008bc4:	6163      	str	r3, [r4, #20]
 8008bc6:	b003      	add	sp, #12
 8008bc8:	bdf0      	pop	{r4, r5, r6, r7, pc}
 8008bca:	466a      	mov	r2, sp
 8008bcc:	ab01      	add	r3, sp, #4
 8008bce:	f7ff ffc9 	bl	8008b64 <__swhatbuf_r>
 8008bd2:	9f00      	ldr	r7, [sp, #0]
 8008bd4:	4605      	mov	r5, r0
 8008bd6:	4639      	mov	r1, r7
 8008bd8:	4630      	mov	r0, r6
 8008bda:	f7fe fedb 	bl	8007994 <_malloc_r>
 8008bde:	b948      	cbnz	r0, 8008bf4 <__smakebuf_r+0x46>
 8008be0:	f9b4 300c 	ldrsh.w	r3, [r4, #12]
 8008be4:	059a      	lsls	r2, r3, #22
 8008be6:	d4ee      	bmi.n	8008bc6 <__smakebuf_r+0x18>
 8008be8:	f023 0303 	bic.w	r3, r3, #3
 8008bec:	f043 0302 	orr.w	r3, r3, #2
 8008bf0:	81a3      	strh	r3, [r4, #12]
 8008bf2:	e7e2      	b.n	8008bba <__smakebuf_r+0xc>
 8008bf4:	89a3      	ldrh	r3, [r4, #12]
 8008bf6:	e9c4 0704 	strd	r0, r7, [r4, #16]
 8008bfa:	f043 0380 	orr.w	r3, r3, #128	@ 0x80
 8008bfe:	81a3      	strh	r3, [r4, #12]
 8008c00:	9b01      	ldr	r3, [sp, #4]
 8008c02:	6020      	str	r0, [r4, #0]
 8008c04:	b15b      	cbz	r3, 8008c1e <__smakebuf_r+0x70>
 8008c06:	4630      	mov	r0, r6
 8008c08:	f9b4 100e 	ldrsh.w	r1, [r4, #14]
 8008c0c:	f000 f81e 	bl	8008c4c <_isatty_r>
 8008c10:	b128      	cbz	r0, 8008c1e <__smakebuf_r+0x70>
 8008c12:	89a3      	ldrh	r3, [r4, #12]
 8008c14:	f023 0303 	bic.w	r3, r3, #3
 8008c18:	f043 0301 	orr.w	r3, r3, #1
 8008c1c:	81a3      	strh	r3, [r4, #12]
 8008c1e:	89a3      	ldrh	r3, [r4, #12]
 8008c20:	431d      	orrs	r5, r3
 8008c22:	81a5      	strh	r5, [r4, #12]
 8008c24:	e7cf      	b.n	8008bc6 <__smakebuf_r+0x18>
	...

08008c28 <_fstat_r>:
 8008c28:	b538      	push	{r3, r4, r5, lr}
 8008c2a:	2300      	movs	r3, #0
 8008c2c:	4d06      	ldr	r5, [pc, #24]	@ (8008c48 <_fstat_r+0x20>)
 8008c2e:	4604      	mov	r4, r0
 8008c30:	4608      	mov	r0, r1
 8008c32:	4611      	mov	r1, r2
 8008c34:	602b      	str	r3, [r5, #0]
 8008c36:	f7f9 f986 	bl	8001f46 <_fstat>
 8008c3a:	1c43      	adds	r3, r0, #1
 8008c3c:	d102      	bne.n	8008c44 <_fstat_r+0x1c>
 8008c3e:	682b      	ldr	r3, [r5, #0]
 8008c40:	b103      	cbz	r3, 8008c44 <_fstat_r+0x1c>
 8008c42:	6023      	str	r3, [r4, #0]
 8008c44:	bd38      	pop	{r3, r4, r5, pc}
 8008c46:	bf00      	nop
 8008c48:	20003f50 	.word	0x20003f50

08008c4c <_isatty_r>:
 8008c4c:	b538      	push	{r3, r4, r5, lr}
 8008c4e:	2300      	movs	r3, #0
 8008c50:	4d05      	ldr	r5, [pc, #20]	@ (8008c68 <_isatty_r+0x1c>)
 8008c52:	4604      	mov	r4, r0
 8008c54:	4608      	mov	r0, r1
 8008c56:	602b      	str	r3, [r5, #0]
 8008c58:	f7f9 f97a 	bl	8001f50 <_isatty>
 8008c5c:	1c43      	adds	r3, r0, #1
 8008c5e:	d102      	bne.n	8008c66 <_isatty_r+0x1a>
 8008c60:	682b      	ldr	r3, [r5, #0]
 8008c62:	b103      	cbz	r3, 8008c66 <_isatty_r+0x1a>
 8008c64:	6023      	str	r3, [r4, #0]
 8008c66:	bd38      	pop	{r3, r4, r5, pc}
 8008c68:	20003f50 	.word	0x20003f50

08008c6c <_init>:
 8008c6c:	b5f8      	push	{r3, r4, r5, r6, r7, lr}
 8008c6e:	bf00      	nop
 8008c70:	bcf8      	pop	{r3, r4, r5, r6, r7}
 8008c72:	bc08      	pop	{r3}
 8008c74:	469e      	mov	lr, r3
 8008c76:	4770      	bx	lr

08008c78 <_fini>:
 8008c78:	b5f8      	push	{r3, r4, r5, r6, r7, lr}
 8008c7a:	bf00      	nop
 8008c7c:	bcf8      	pop	{r3, r4, r5, r6, r7}
 8008c7e:	bc08      	pop	{r3}
 8008c80:	469e      	mov	lr, r3
 8008c82:	4770      	bx	lr
